; Listing generated by Microsoft (R) Optimizing Compiler Version 19.27.29111.0 

include listing.inc

INCLUDELIB MSVCRTD
INCLUDELIB OLDNAMES

msvcjmc	SEGMENT
__FC8B975D_vcruntime_new@h DB 01H
__F4CA4DDB_cstddef DB 01H
__09340588_corecrt_math@h DB 01H
__24E9E95F_stdlib@h DB 01H
__51019776_cstdlib DB 01H
__B236D4B0_type_traits DB 01H
__B0C4CEA9_malloc@h DB 01H
__18D87206_vcruntime_exception@h DB 01H
__1302BCB8_exception DB 01H
__F66CEB67_corecrt_stdio_config@h DB 01H
__101834BA_corecrt_wstdio@h DB 01H
__AD6A91B7_stdio@h DB 01H
__367CC694_corecrt_memcpy_s@h DB 01H
__35D7DDB3_corecrt_memory@h DB 01H
__DC9673E3_corecrt_wstring@h DB 01H
__A29A7DFB_string@h DB 01H
__5467428D_corecrt_wconio@h DB 01H
__4442441F_corecrt_wio@h DB 01H
__45F4AF76_corecrt_wtime@h DB 01H
__186FF47F_stat@h DB 01H
__534C724A_wchar@h DB 01H
__7B3ADE64_vcruntime_typeinfo@h DB 01H
__4638863E_typeinfo DB 01H
__5E219BC0_limits DB 01H
__36E77527_xutility DB 01H
__0C99713E_xmemory DB 01H
__E28F974E_memory DB 01H
__24DC9795_any DB 01H
__B6041EFB_tuple DB 01H
__04937CFC_xpolymorphic_allocator@h DB 01H
__784AF7A2_xstring DB 01H
__9A4C86E5_stdexcept DB 01H
__7242C389_ctype@h DB 01H
__965C11D2_string DB 01H
__190EFBB8_xtree DB 01H
__7C949E14_ratio DB 01H
__8AA3BE86_time@h DB 01H
__3ACC9D4A_chrono DB 01H
__102707BA_cmath DB 01H
__238A5427_xcall_once@h DB 01H
__3514C702_atomic DB 01H
__9CD74607_system_error DB 01H
__CECAC041_xfacet DB 01H
__59B165F6_xlocinfo DB 01H
__A7748393_xlocale DB 01H
__605412E5_xiosbase DB 01H
__39F3E584_xlocnum DB 01H
__D3011E72_ios DB 01H
__9705A642_LoggerHandler@hpp DB 01H
__1291F0BC_xlocmon DB 01H
__FDACCCE4_xloctime DB 01H
__8B7874EF_xlocmes DB 01H
__23708014_Client@hpp DB 01H
__BEAA83ED_SimpleUI@hpp DB 01H
__B2FF6C0C_SimpleUI@cpp DB 01H
__5F9BC604_initializer_list DB 01H
__138CEB20_vector DB 01H
__496265E3_locale DB 01H
__D7B46C6D_istream DB 01H
__B4645957_ostream DB 01H
__98EC3E59_streambuf DB 01H
__274BC267_iterator DB 01H
__92C84E46_iosfwd DB 01H
__660C12FD_utility DB 01H
__911385EF_xstddef DB 01H
__190E306E_xatomic@h DB 01H
__2B76AA3F_iomanip DB 01H
msvcjmc	ENDS
PUBLIC	?__empty_global_delete@@YAXPEAX@Z		; __empty_global_delete
PUBLIC	?__empty_global_delete@@YAXPEAX_K@Z		; __empty_global_delete
PUBLIC	?__empty_global_delete@@YAXPEAXW4align_val_t@std@@@Z ; __empty_global_delete
PUBLIC	?__empty_global_delete@@YAXPEAX_KW4align_val_t@std@@@Z ; __empty_global_delete
PUBLIC	??2@YAPEAX_KPEAX@Z				; operator new
PUBLIC	??0exception@std@@QEAA@QEBDH@Z			; std::exception::exception
PUBLIC	??0exception@std@@QEAA@AEBV01@@Z		; std::exception::exception
PUBLIC	??1exception@std@@UEAA@XZ			; std::exception::~exception
PUBLIC	?what@exception@std@@UEBAPEBDXZ			; std::exception::what
PUBLIC	??_Gexception@std@@UEAAPEAXI@Z			; std::exception::`scalar deleting destructor'
PUBLIC	??0bad_alloc@std@@AEAA@QEBD@Z			; std::bad_alloc::bad_alloc
PUBLIC	??1bad_alloc@std@@UEAA@XZ			; std::bad_alloc::~bad_alloc
PUBLIC	??0bad_alloc@std@@QEAA@AEBV01@@Z		; std::bad_alloc::bad_alloc
PUBLIC	??_Gbad_alloc@std@@UEAAPEAXI@Z			; std::bad_alloc::`scalar deleting destructor'
PUBLIC	??0bad_array_new_length@std@@QEAA@XZ		; std::bad_array_new_length::bad_array_new_length
PUBLIC	??1bad_array_new_length@std@@UEAA@XZ		; std::bad_array_new_length::~bad_array_new_length
PUBLIC	??0bad_array_new_length@std@@QEAA@AEBV01@@Z	; std::bad_array_new_length::bad_array_new_length
PUBLIC	??_Gbad_array_new_length@std@@UEAAPEAXI@Z	; std::bad_array_new_length::`scalar deleting destructor'
PUBLIC	?_Throw_bad_array_new_length@std@@YAXXZ		; std::_Throw_bad_array_new_length
PUBLIC	wmemcpy
PUBLIC	??9type_info@@QEBA_NAEBV0@@Z			; type_info::operator!=
PUBLIC	??0bad_cast@std@@QEAA@XZ			; std::bad_cast::bad_cast
PUBLIC	??1bad_cast@std@@UEAA@XZ			; std::bad_cast::~bad_cast
PUBLIC	??0bad_cast@std@@QEAA@AEBV01@@Z			; std::bad_cast::bad_cast
PUBLIC	??_Gbad_cast@std@@UEAAPEAXI@Z			; std::bad_cast::`scalar deleting destructor'
PUBLIC	?_Throw_bad_cast@std@@YAXXZ			; std::_Throw_bad_cast
PUBLIC	?max@?$numeric_limits@_J@std@@SA_JXZ		; std::numeric_limits<__int64>::max
PUBLIC	?_Allocate@_Default_allocate_traits@std@@SAPEAX_K@Z ; std::_Default_allocate_traits::_Allocate
PUBLIC	?_Adjust_manually_vector_aligned@std@@YAXAEAPEAXAEA_K@Z ; std::_Adjust_manually_vector_aligned
PUBLIC	??$_Convert_size@_K@std@@YA_K_K@Z		; std::_Convert_size<unsigned __int64>
PUBLIC	??0_Container_proxy@std@@QEAA@PEAU_Container_base12@1@@Z ; std::_Container_proxy::_Container_proxy
PUBLIC	??0_Container_base12@std@@QEAA@XZ		; std::_Container_base12::_Container_base12
PUBLIC	?_Orphan_all@_Container_base12@std@@QEAAXXZ	; std::_Container_base12::_Orphan_all
PUBLIC	?_Swap_proxy_and_iterators@_Container_base12@std@@QEAAXAEAU12@@Z ; std::_Container_base12::_Swap_proxy_and_iterators
PUBLIC	?_Release@_Basic_container_proxy_ptr12@std@@QEAAXXZ ; std::_Basic_container_proxy_ptr12::_Release
PUBLIC	??$addressof@U_Container_base12@std@@@std@@YAPEAU_Container_base12@0@AEAU10@@Z ; std::addressof<std::_Container_base12>
PUBLIC	??$_Construct_in_place@U_Container_proxy@std@@PEAU_Container_base12@2@@std@@YAXAEAU_Container_proxy@0@$$QEAPEAU_Container_base12@0@@Z ; std::_Construct_in_place<std::_Container_proxy,std::_Container_base12 *>
PUBLIC	?what@bad_any_cast@std@@UEBAPEBDXZ		; std::bad_any_cast::what
PUBLIC	??0bad_any_cast@std@@QEAA@XZ			; std::bad_any_cast::bad_any_cast
PUBLIC	??1bad_any_cast@std@@UEAA@XZ			; std::bad_any_cast::~bad_any_cast
PUBLIC	??0bad_any_cast@std@@QEAA@AEBV01@@Z		; std::bad_any_cast::bad_any_cast
PUBLIC	??_Gbad_any_cast@std@@UEAAPEAXI@Z		; std::bad_any_cast::`scalar deleting destructor'
PUBLIC	?_Throw_bad_any_cast@std@@YAXXZ			; std::_Throw_bad_any_cast
PUBLIC	??1any@std@@QEAA@XZ				; std::any::~any
PUBLIC	?reset@any@std@@QEAAXXZ				; std::any::reset
PUBLIC	?has_value@any@std@@QEBA_NXZ			; std::any::has_value
PUBLIC	?_Rep@any@std@@AEBA?AW4_Any_representation@2@XZ	; std::any::_Rep
PUBLIC	?_TypeInfo@any@std@@AEBAPEBVtype_info@@XZ	; std::any::_TypeInfo
PUBLIC	??0?$allocator@D@std@@QEAA@XZ			; std::allocator<char>::allocator<char>
PUBLIC	?deallocate@?$allocator@D@std@@QEAAXQEAD_K@Z	; std::allocator<char>::deallocate
PUBLIC	?allocate@?$allocator@D@std@@QEAAPEAD_K@Z	; std::allocator<char>::allocate
PUBLIC	?compare@?$_Narrow_char_traits@DH@std@@SAHQEBD0_K@Z ; std::_Narrow_char_traits<char,int>::compare
PUBLIC	?length@?$_Narrow_char_traits@DH@std@@SA_KQEBD@Z ; std::_Narrow_char_traits<char,int>::length
PUBLIC	?copy@?$_Narrow_char_traits@DH@std@@SAPEADQEADQEBD_K@Z ; std::_Narrow_char_traits<char,int>::copy
PUBLIC	?move@?$_Narrow_char_traits@DH@std@@SAPEADQEADQEBD_K@Z ; std::_Narrow_char_traits<char,int>::move
PUBLIC	?assign@?$_Narrow_char_traits@DH@std@@SAXAEADAEBD@Z ; std::_Narrow_char_traits<char,int>::assign
PUBLIC	?to_char_type@?$_Narrow_char_traits@DH@std@@SADAEBH@Z ; std::_Narrow_char_traits<char,int>::to_char_type
PUBLIC	?to_int_type@?$_Narrow_char_traits@DH@std@@SAHAEBD@Z ; std::_Narrow_char_traits<char,int>::to_int_type
PUBLIC	?eq_int_type@?$_Narrow_char_traits@DH@std@@SA_NAEBH0@Z ; std::_Narrow_char_traits<char,int>::eq_int_type
PUBLIC	?eof@?$_Narrow_char_traits@DH@std@@SAHXZ	; std::_Narrow_char_traits<char,int>::eof
PUBLIC	?_Xlen_string@std@@YAXXZ			; std::_Xlen_string
PUBLIC	?max_size@?$_Default_allocator_traits@V?$allocator@D@std@@@std@@SA_KAEBV?$allocator@D@2@@Z ; std::_Default_allocator_traits<std::allocator<char> >::max_size
PUBLIC	?select_on_container_copy_construction@?$_Default_allocator_traits@V?$allocator@D@std@@@std@@SA?AV?$allocator@D@2@AEBV32@@Z ; std::_Default_allocator_traits<std::allocator<char> >::select_on_container_copy_construction
PUBLIC	??0?$_String_val@U?$_Simple_types@D@std@@@std@@QEAA@XZ ; std::_String_val<std::_Simple_types<char> >::_String_val<std::_Simple_types<char> >
PUBLIC	?_Myptr@?$_String_val@U?$_Simple_types@D@std@@@std@@QEAAPEADXZ ; std::_String_val<std::_Simple_types<char> >::_Myptr
PUBLIC	?_Myptr@?$_String_val@U?$_Simple_types@D@std@@@std@@QEBAPEBDXZ ; std::_String_val<std::_Simple_types<char> >::_Myptr
PUBLIC	?_Large_string_engaged@?$_String_val@U?$_Simple_types@D@std@@@std@@QEBA_NXZ ; std::_String_val<std::_Simple_types<char> >::_Large_string_engaged
PUBLIC	?_Check_offset@?$_String_val@U?$_Simple_types@D@std@@@std@@QEBAX_K@Z ; std::_String_val<std::_Simple_types<char> >::_Check_offset
PUBLIC	?_Xran@?$_String_val@U?$_Simple_types@D@std@@@std@@SAXXZ ; std::_String_val<std::_Simple_types<char> >::_Xran
PUBLIC	??0_Bxty@?$_String_val@U?$_Simple_types@D@std@@@std@@QEAA@XZ ; std::_String_val<std::_Simple_types<char> >::_Bxty::_Bxty
PUBLIC	??1_Bxty@?$_String_val@U?$_Simple_types@D@std@@@std@@QEAA@XZ ; std::_String_val<std::_Simple_types<char> >::_Bxty::~_Bxty
PUBLIC	??1?$_String_val@U?$_Simple_types@D@std@@@std@@QEAA@XZ ; std::_String_val<std::_Simple_types<char> >::~_String_val<std::_Simple_types<char> >
PUBLIC	??0?$basic_string@DU?$char_traits@D@std@@V?$allocator@D@2@@std@@QEAA@AEBV01@@Z ; std::basic_string<char,std::char_traits<char>,std::allocator<char> >::basic_string<char,std::char_traits<char>,std::allocator<char> >
PUBLIC	??0?$basic_string@DU?$char_traits@D@std@@V?$allocator@D@2@@std@@QEAA@XZ ; std::basic_string<char,std::char_traits<char>,std::allocator<char> >::basic_string<char,std::char_traits<char>,std::allocator<char> >
PUBLIC	??0?$basic_string@DU?$char_traits@D@std@@V?$allocator@D@2@@std@@QEAA@QEBD@Z ; std::basic_string<char,std::char_traits<char>,std::allocator<char> >::basic_string<char,std::char_traits<char>,std::allocator<char> >
PUBLIC	?_Construct@?$basic_string@DU?$char_traits@D@std@@V?$allocator@D@2@@std@@QEAAXQEAD0Urandom_access_iterator_tag@2@@Z ; std::basic_string<char,std::char_traits<char>,std::allocator<char> >::_Construct
PUBLIC	??0?$basic_string@DU?$char_traits@D@std@@V?$allocator@D@2@@std@@QEAA@$$QEAV01@@Z ; std::basic_string<char,std::char_traits<char>,std::allocator<char> >::basic_string<char,std::char_traits<char>,std::allocator<char> >
PUBLIC	??0?$basic_string@DU?$char_traits@D@std@@V?$allocator@D@2@@std@@QEAA@U_String_constructor_concat_tag@1@AEBV01@QEBD_K23@Z ; std::basic_string<char,std::char_traits<char>,std::allocator<char> >::basic_string<char,std::char_traits<char>,std::allocator<char> >
PUBLIC	?_Move_assign@?$basic_string@DU?$char_traits@D@std@@V?$allocator@D@2@@std@@AEAAXAEAV12@U_Equal_allocators@2@@Z ; std::basic_string<char,std::char_traits<char>,std::allocator<char> >::_Move_assign
PUBLIC	??4?$basic_string@DU?$char_traits@D@std@@V?$allocator@D@2@@std@@QEAAAEAV01@$$QEAV01@@Z ; std::basic_string<char,std::char_traits<char>,std::allocator<char> >::operator=
PUBLIC	?_Memcpy_val_from@?$basic_string@DU?$char_traits@D@std@@V?$allocator@D@2@@std@@AEAAXAEBV12@@Z ; std::basic_string<char,std::char_traits<char>,std::allocator<char> >::_Memcpy_val_from
PUBLIC	?_Take_contents@?$basic_string@DU?$char_traits@D@std@@V?$allocator@D@2@@std@@AEAAXAEAV12@U?$integral_constant@_N$00@2@@Z ; std::basic_string<char,std::char_traits<char>,std::allocator<char> >::_Take_contents
PUBLIC	?_Construct_lv_contents@?$basic_string@DU?$char_traits@D@std@@V?$allocator@D@2@@std@@AEAAXAEBV12@@Z ; std::basic_string<char,std::char_traits<char>,std::allocator<char> >::_Construct_lv_contents
PUBLIC	??1?$basic_string@DU?$char_traits@D@std@@V?$allocator@D@2@@std@@QEAA@XZ ; std::basic_string<char,std::char_traits<char>,std::allocator<char> >::~basic_string<char,std::char_traits<char>,std::allocator<char> >
PUBLIC	?_Copy_assign@?$basic_string@DU?$char_traits@D@std@@V?$allocator@D@2@@std@@AEAAXAEBV12@U?$integral_constant@_N$0A@@2@@Z ; std::basic_string<char,std::char_traits<char>,std::allocator<char> >::_Copy_assign
PUBLIC	??4?$basic_string@DU?$char_traits@D@std@@V?$allocator@D@2@@std@@QEAAAEAV01@AEBV01@@Z ; std::basic_string<char,std::char_traits<char>,std::allocator<char> >::operator=
PUBLIC	??Y?$basic_string@DU?$char_traits@D@std@@V?$allocator@D@2@@std@@QEAAAEAV01@D@Z ; std::basic_string<char,std::char_traits<char>,std::allocator<char> >::operator+=
PUBLIC	?append@?$basic_string@DU?$char_traits@D@std@@V?$allocator@D@2@@std@@QEAAAEAV12@QEBD_K@Z ; std::basic_string<char,std::char_traits<char>,std::allocator<char> >::append
PUBLIC	?append@?$basic_string@DU?$char_traits@D@std@@V?$allocator@D@2@@std@@QEAAAEAV12@QEBD@Z ; std::basic_string<char,std::char_traits<char>,std::allocator<char> >::append
PUBLIC	?assign@?$basic_string@DU?$char_traits@D@std@@V?$allocator@D@2@@std@@QEAAAEAV12@QEBD_K@Z ; std::basic_string<char,std::char_traits<char>,std::allocator<char> >::assign
PUBLIC	?assign@?$basic_string@DU?$char_traits@D@std@@V?$allocator@D@2@@std@@QEAAAEAV12@QEBD@Z ; std::basic_string<char,std::char_traits<char>,std::allocator<char> >::assign
PUBLIC	?insert@?$basic_string@DU?$char_traits@D@std@@V?$allocator@D@2@@std@@QEAAAEAV12@_KQEBD0@Z ; std::basic_string<char,std::char_traits<char>,std::allocator<char> >::insert
PUBLIC	?insert@?$basic_string@DU?$char_traits@D@std@@V?$allocator@D@2@@std@@QEAAAEAV12@_KQEBD@Z ; std::basic_string<char,std::char_traits<char>,std::allocator<char> >::insert
PUBLIC	?erase@?$basic_string@DU?$char_traits@D@std@@V?$allocator@D@2@@std@@QEAAAEAV12@_K@Z ; std::basic_string<char,std::char_traits<char>,std::allocator<char> >::erase
PUBLIC	?push_back@?$basic_string@DU?$char_traits@D@std@@V?$allocator@D@2@@std@@QEAAXD@Z ; std::basic_string<char,std::char_traits<char>,std::allocator<char> >::push_back
PUBLIC	?c_str@?$basic_string@DU?$char_traits@D@std@@V?$allocator@D@2@@std@@QEBAPEBDXZ ; std::basic_string<char,std::char_traits<char>,std::allocator<char> >::c_str
PUBLIC	?data@?$basic_string@DU?$char_traits@D@std@@V?$allocator@D@2@@std@@QEBAPEBDXZ ; std::basic_string<char,std::char_traits<char>,std::allocator<char> >::data
PUBLIC	?size@?$basic_string@DU?$char_traits@D@std@@V?$allocator@D@2@@std@@QEBA_KXZ ; std::basic_string<char,std::char_traits<char>,std::allocator<char> >::size
PUBLIC	?max_size@?$basic_string@DU?$char_traits@D@std@@V?$allocator@D@2@@std@@QEBA_KXZ ; std::basic_string<char,std::char_traits<char>,std::allocator<char> >::max_size
PUBLIC	?_Equal@?$basic_string@DU?$char_traits@D@std@@V?$allocator@D@2@@std@@QEBA_NQEBD@Z ; std::basic_string<char,std::char_traits<char>,std::allocator<char> >::_Equal
PUBLIC	?_Calculate_growth@?$basic_string@DU?$char_traits@D@std@@V?$allocator@D@2@@std@@CA_K_K00@Z ; std::basic_string<char,std::char_traits<char>,std::allocator<char> >::_Calculate_growth
PUBLIC	?_Calculate_growth@?$basic_string@DU?$char_traits@D@std@@V?$allocator@D@2@@std@@AEBA_K_K@Z ; std::basic_string<char,std::char_traits<char>,std::allocator<char> >::_Calculate_growth
PUBLIC	?_Eos@?$basic_string@DU?$char_traits@D@std@@V?$allocator@D@2@@std@@AEAAX_K@Z ; std::basic_string<char,std::char_traits<char>,std::allocator<char> >::_Eos
PUBLIC	?_Tidy_init@?$basic_string@DU?$char_traits@D@std@@V?$allocator@D@2@@std@@AEAAXXZ ; std::basic_string<char,std::char_traits<char>,std::allocator<char> >::_Tidy_init
PUBLIC	?_Tidy_deallocate@?$basic_string@DU?$char_traits@D@std@@V?$allocator@D@2@@std@@AEAAXXZ ; std::basic_string<char,std::char_traits<char>,std::allocator<char> >::_Tidy_deallocate
PUBLIC	?_Swap_proxy_and_iterators@?$basic_string@DU?$char_traits@D@std@@V?$allocator@D@2@@std@@AEAAXAEAV12@@Z ; std::basic_string<char,std::char_traits<char>,std::allocator<char> >::_Swap_proxy_and_iterators
PUBLIC	?_Getal@?$basic_string@DU?$char_traits@D@std@@V?$allocator@D@2@@std@@AEAAAEAV?$allocator@D@2@XZ ; std::basic_string<char,std::char_traits<char>,std::allocator<char> >::_Getal
PUBLIC	?_Getal@?$basic_string@DU?$char_traits@D@std@@V?$allocator@D@2@@std@@AEBAAEBV?$allocator@D@2@XZ ; std::basic_string<char,std::char_traits<char>,std::allocator<char> >::_Getal
PUBLIC	?_Get_first@?$_Compressed_pair@V?$allocator@D@std@@V?$_String_val@U?$_Simple_types@D@std@@@2@$00@std@@QEAAAEAV?$allocator@D@2@XZ ; std::_Compressed_pair<std::allocator<char>,std::_String_val<std::_Simple_types<char> >,1>::_Get_first
PUBLIC	?_Get_first@?$_Compressed_pair@V?$allocator@D@std@@V?$_String_val@U?$_Simple_types@D@std@@@2@$00@std@@QEBAAEBV?$allocator@D@2@XZ ; std::_Compressed_pair<std::allocator<char>,std::_String_val<std::_Simple_types<char> >,1>::_Get_first
PUBLIC	??1?$_Compressed_pair@V?$allocator@D@std@@V?$_String_val@U?$_Simple_types@D@std@@@2@$00@std@@QEAA@XZ ; std::_Compressed_pair<std::allocator<char>,std::_String_val<std::_Simple_types<char> >,1>::~_Compressed_pair<std::allocator<char>,std::_String_val<std::_Simple_types<char> >,1>
PUBLIC	??_G?$basic_string@DU?$char_traits@D@std@@V?$allocator@D@2@@std@@QEAAPEAXI@Z ; std::basic_string<char,std::char_traits<char>,std::allocator<char> >::`scalar deleting destructor'
PUBLIC	?to_string@std@@YA?AV?$basic_string@DU?$char_traits@D@std@@V?$allocator@D@2@@1@H@Z ; std::to_string
PUBLIC	??$_Integral_to_string@DH@std@@YA?AV?$basic_string@DU?$char_traits@D@std@@V?$allocator@D@2@@0@H@Z ; std::_Integral_to_string<char,int>
PUBLIC	?to_string@std@@YA?AV?$basic_string@DU?$char_traits@D@std@@V?$allocator@D@2@@1@_K@Z ; std::to_string
PUBLIC	??$_UIntegral_to_string@D_K@std@@YA?AV?$basic_string@DU?$char_traits@D@std@@V?$allocator@D@2@@0@_K@Z ; std::_UIntegral_to_string<char,unsigned __int64>
PUBLIC	??0?$allocator@V?$basic_string@DU?$char_traits@D@std@@V?$allocator@D@2@@std@@@std@@QEAA@XZ ; std::allocator<std::basic_string<char,std::char_traits<char>,std::allocator<char> > >::allocator<std::basic_string<char,std::char_traits<char>,std::allocator<char> > >
PUBLIC	?deallocate@?$allocator@V?$basic_string@DU?$char_traits@D@std@@V?$allocator@D@2@@std@@@std@@QEAAXQEAV?$basic_string@DU?$char_traits@D@std@@V?$allocator@D@2@@2@_K@Z ; std::allocator<std::basic_string<char,std::char_traits<char>,std::allocator<char> > >::deallocate
PUBLIC	?allocate@?$allocator@V?$basic_string@DU?$char_traits@D@std@@V?$allocator@D@2@@std@@@std@@QEAAPEAV?$basic_string@DU?$char_traits@D@std@@V?$allocator@D@2@@2@_K@Z ; std::allocator<std::basic_string<char,std::char_traits<char>,std::allocator<char> > >::allocate
PUBLIC	?max_size@?$_Default_allocator_traits@V?$allocator@V?$basic_string@DU?$char_traits@D@std@@V?$allocator@D@2@@std@@@std@@@std@@SA_KAEBV?$allocator@V?$basic_string@DU?$char_traits@D@std@@V?$allocator@D@2@@std@@@2@@Z ; std::_Default_allocator_traits<std::allocator<std::basic_string<char,std::char_traits<char>,std::allocator<char> > > >::max_size
PUBLIC	??0?$vector@V?$basic_string@DU?$char_traits@D@std@@V?$allocator@D@2@@std@@V?$allocator@V?$basic_string@DU?$char_traits@D@std@@V?$allocator@D@2@@std@@@2@@std@@QEAA@XZ ; std::vector<std::basic_string<char,std::char_traits<char>,std::allocator<char> >,std::allocator<std::basic_string<char,std::char_traits<char>,std::allocator<char> > > >::vector<std::basic_string<char,std::char_traits<char>,std::allocator<char> >,std::allocator<std::basic_string<char,std::char_traits<char>,std::allocator<char> > > >
PUBLIC	??0?$vector@V?$basic_string@DU?$char_traits@D@std@@V?$allocator@D@2@@std@@V?$allocator@V?$basic_string@DU?$char_traits@D@std@@V?$allocator@D@2@@std@@@2@@std@@QEAA@_KAEBV?$allocator@V?$basic_string@DU?$char_traits@D@std@@V?$allocator@D@2@@std@@@1@@Z ; std::vector<std::basic_string<char,std::char_traits<char>,std::allocator<char> >,std::allocator<std::basic_string<char,std::char_traits<char>,std::allocator<char> > > >::vector<std::basic_string<char,std::char_traits<char>,std::allocator<char> >,std::allocator<std::basic_string<char,std::char_traits<char>,std::allocator<char> > > >
PUBLIC	??0?$vector@V?$basic_string@DU?$char_traits@D@std@@V?$allocator@D@2@@std@@V?$allocator@V?$basic_string@DU?$char_traits@D@std@@V?$allocator@D@2@@std@@@2@@std@@QEAA@V?$initializer_list@V?$basic_string@DU?$char_traits@D@std@@V?$allocator@D@2@@std@@@1@AEBV?$allocator@V?$basic_string@DU?$char_traits@D@std@@V?$allocator@D@2@@std@@@1@@Z ; std::vector<std::basic_string<char,std::char_traits<char>,std::allocator<char> >,std::allocator<std::basic_string<char,std::char_traits<char>,std::allocator<char> > > >::vector<std::basic_string<char,std::char_traits<char>,std::allocator<char> >,std::allocator<std::basic_string<char,std::char_traits<char>,std::allocator<char> > > >
PUBLIC	??1?$vector@V?$basic_string@DU?$char_traits@D@std@@V?$allocator@D@2@@std@@V?$allocator@V?$basic_string@DU?$char_traits@D@std@@V?$allocator@D@2@@std@@@2@@std@@QEAA@XZ ; std::vector<std::basic_string<char,std::char_traits<char>,std::allocator<char> >,std::allocator<std::basic_string<char,std::char_traits<char>,std::allocator<char> > > >::~vector<std::basic_string<char,std::char_traits<char>,std::allocator<char> >,std::allocator<std::basic_string<char,std::char_traits<char>,std::allocator<char> > > >
PUBLIC	?size@?$vector@V?$basic_string@DU?$char_traits@D@std@@V?$allocator@D@2@@std@@V?$allocator@V?$basic_string@DU?$char_traits@D@std@@V?$allocator@D@2@@std@@@2@@std@@QEBA_KXZ ; std::vector<std::basic_string<char,std::char_traits<char>,std::allocator<char> >,std::allocator<std::basic_string<char,std::char_traits<char>,std::allocator<char> > > >::size
PUBLIC	?max_size@?$vector@V?$basic_string@DU?$char_traits@D@std@@V?$allocator@D@2@@std@@V?$allocator@V?$basic_string@DU?$char_traits@D@std@@V?$allocator@D@2@@std@@@2@@std@@QEBA_KXZ ; std::vector<std::basic_string<char,std::char_traits<char>,std::allocator<char> >,std::allocator<std::basic_string<char,std::char_traits<char>,std::allocator<char> > > >::max_size
PUBLIC	??A?$vector@V?$basic_string@DU?$char_traits@D@std@@V?$allocator@D@2@@std@@V?$allocator@V?$basic_string@DU?$char_traits@D@std@@V?$allocator@D@2@@std@@@2@@std@@QEAAAEAV?$basic_string@DU?$char_traits@D@std@@V?$allocator@D@2@@1@_K@Z ; std::vector<std::basic_string<char,std::char_traits<char>,std::allocator<char> >,std::allocator<std::basic_string<char,std::char_traits<char>,std::allocator<char> > > >::operator[]
PUBLIC	?_Ufill@?$vector@V?$basic_string@DU?$char_traits@D@std@@V?$allocator@D@2@@std@@V?$allocator@V?$basic_string@DU?$char_traits@D@std@@V?$allocator@D@2@@std@@@2@@std@@AEAAPEAV?$basic_string@DU?$char_traits@D@std@@V?$allocator@D@2@@2@PEAV32@_KU_Value_init_tag@2@@Z ; std::vector<std::basic_string<char,std::char_traits<char>,std::allocator<char> >,std::allocator<std::basic_string<char,std::char_traits<char>,std::allocator<char> > > >::_Ufill
PUBLIC	?_Destroy@?$vector@V?$basic_string@DU?$char_traits@D@std@@V?$allocator@D@2@@std@@V?$allocator@V?$basic_string@DU?$char_traits@D@std@@V?$allocator@D@2@@std@@@2@@std@@AEAAXPEAV?$basic_string@DU?$char_traits@D@std@@V?$allocator@D@2@@2@0@Z ; std::vector<std::basic_string<char,std::char_traits<char>,std::allocator<char> >,std::allocator<std::basic_string<char,std::char_traits<char>,std::allocator<char> > > >::_Destroy
PUBLIC	?_Buy_raw@?$vector@V?$basic_string@DU?$char_traits@D@std@@V?$allocator@D@2@@std@@V?$allocator@V?$basic_string@DU?$char_traits@D@std@@V?$allocator@D@2@@std@@@2@@std@@AEAAX_K@Z ; std::vector<std::basic_string<char,std::char_traits<char>,std::allocator<char> >,std::allocator<std::basic_string<char,std::char_traits<char>,std::allocator<char> > > >::_Buy_raw
PUBLIC	?_Buy_nonzero@?$vector@V?$basic_string@DU?$char_traits@D@std@@V?$allocator@D@2@@std@@V?$allocator@V?$basic_string@DU?$char_traits@D@std@@V?$allocator@D@2@@std@@@2@@std@@AEAAX_K@Z ; std::vector<std::basic_string<char,std::char_traits<char>,std::allocator<char> >,std::allocator<std::basic_string<char,std::char_traits<char>,std::allocator<char> > > >::_Buy_nonzero
PUBLIC	?_Tidy@?$vector@V?$basic_string@DU?$char_traits@D@std@@V?$allocator@D@2@@std@@V?$allocator@V?$basic_string@DU?$char_traits@D@std@@V?$allocator@D@2@@std@@@2@@std@@AEAAXXZ ; std::vector<std::basic_string<char,std::char_traits<char>,std::allocator<char> >,std::allocator<std::basic_string<char,std::char_traits<char>,std::allocator<char> > > >::_Tidy
PUBLIC	?_Xlength@?$vector@V?$basic_string@DU?$char_traits@D@std@@V?$allocator@D@2@@std@@V?$allocator@V?$basic_string@DU?$char_traits@D@std@@V?$allocator@D@2@@std@@@2@@std@@CAXXZ ; std::vector<std::basic_string<char,std::char_traits<char>,std::allocator<char> >,std::allocator<std::basic_string<char,std::char_traits<char>,std::allocator<char> > > >::_Xlength
PUBLIC	?_Getal@?$vector@V?$basic_string@DU?$char_traits@D@std@@V?$allocator@D@2@@std@@V?$allocator@V?$basic_string@DU?$char_traits@D@std@@V?$allocator@D@2@@std@@@2@@std@@AEAAAEAV?$allocator@V?$basic_string@DU?$char_traits@D@std@@V?$allocator@D@2@@std@@@2@XZ ; std::vector<std::basic_string<char,std::char_traits<char>,std::allocator<char> >,std::allocator<std::basic_string<char,std::char_traits<char>,std::allocator<char> > > >::_Getal
PUBLIC	?_Getal@?$vector@V?$basic_string@DU?$char_traits@D@std@@V?$allocator@D@2@@std@@V?$allocator@V?$basic_string@DU?$char_traits@D@std@@V?$allocator@D@2@@std@@@2@@std@@AEBAAEBV?$allocator@V?$basic_string@DU?$char_traits@D@std@@V?$allocator@D@2@@std@@@2@XZ ; std::vector<std::basic_string<char,std::char_traits<char>,std::allocator<char> >,std::allocator<std::basic_string<char,std::char_traits<char>,std::allocator<char> > > >::_Getal
PUBLIC	??0?$_Vector_val@U?$_Simple_types@V?$basic_string@DU?$char_traits@D@std@@V?$allocator@D@2@@std@@@std@@@std@@QEAA@XZ ; std::_Vector_val<std::_Simple_types<std::basic_string<char,std::char_traits<char>,std::allocator<char> > > >::_Vector_val<std::_Simple_types<std::basic_string<char,std::char_traits<char>,std::allocator<char> > > >
PUBLIC	?_Get_first@?$_Compressed_pair@V?$allocator@V?$basic_string@DU?$char_traits@D@std@@V?$allocator@D@2@@std@@@std@@V?$_Vector_val@U?$_Simple_types@V?$basic_string@DU?$char_traits@D@std@@V?$allocator@D@2@@std@@@std@@@2@$00@std@@QEAAAEAV?$allocator@V?$basic_string@DU?$char_traits@D@std@@V?$allocator@D@2@@std@@@2@XZ ; std::_Compressed_pair<std::allocator<std::basic_string<char,std::char_traits<char>,std::allocator<char> > >,std::_Vector_val<std::_Simple_types<std::basic_string<char,std::char_traits<char>,std::allocator<char> > > >,1>::_Get_first
PUBLIC	?_Get_first@?$_Compressed_pair@V?$allocator@V?$basic_string@DU?$char_traits@D@std@@V?$allocator@D@2@@std@@@std@@V?$_Vector_val@U?$_Simple_types@V?$basic_string@DU?$char_traits@D@std@@V?$allocator@D@2@@std@@@std@@@2@$00@std@@QEBAAEBV?$allocator@V?$basic_string@DU?$char_traits@D@std@@V?$allocator@D@2@@std@@@2@XZ ; std::_Compressed_pair<std::allocator<std::basic_string<char,std::char_traits<char>,std::allocator<char> > >,std::_Vector_val<std::_Simple_types<std::basic_string<char,std::char_traits<char>,std::allocator<char> > > >,1>::_Get_first
PUBLIC	?__autoclassinit2@?$vector@V?$basic_string@DU?$char_traits@D@std@@V?$allocator@D@2@@std@@V?$allocator@V?$basic_string@DU?$char_traits@D@std@@V?$allocator@D@2@@std@@@2@@std@@QEAAX_K@Z ; std::vector<std::basic_string<char,std::char_traits<char>,std::allocator<char> >,std::allocator<std::basic_string<char,std::char_traits<char>,std::allocator<char> > > >::__autoclassinit2
PUBLIC	??1UserCredentials@Persistence@TechnicalServices@@QEAA@XZ ; TechnicalServices::Persistence::UserCredentials::~UserCredentials
PUBLIC	??1Client@Persistence@TechnicalServices@@QEAA@XZ ; TechnicalServices::Persistence::Client::~Client
PUBLIC	??0Client@Persistence@TechnicalServices@@QEAA@AEBU012@@Z ; TechnicalServices::Persistence::Client::Client
PUBLIC	??4Client@Persistence@TechnicalServices@@QEAAAEAU012@AEBU012@@Z ; TechnicalServices::Persistence::Client::operator=
PUBLIC	??_GClient@Persistence@TechnicalServices@@QEAAPEAXI@Z ; TechnicalServices::Persistence::Client::`scalar deleting destructor'
PUBLIC	??1Clientprofile@Persistence@TechnicalServices@@QEAA@XZ ; TechnicalServices::Persistence::Clientprofile::~Clientprofile
PUBLIC	??0Clientprofile@Persistence@TechnicalServices@@QEAA@AEBU012@@Z ; TechnicalServices::Persistence::Clientprofile::Clientprofile
PUBLIC	??0Clientprofile@Persistence@TechnicalServices@@QEAA@$$QEAU012@@Z ; TechnicalServices::Persistence::Clientprofile::Clientprofile
PUBLIC	??4Clientprofile@Persistence@TechnicalServices@@QEAAAEAU012@AEBU012@@Z ; TechnicalServices::Persistence::Clientprofile::operator=
PUBLIC	??_GClientprofile@Persistence@TechnicalServices@@QEAAPEAXI@Z ; TechnicalServices::Persistence::Clientprofile::`scalar deleting destructor'
PUBLIC	??0locale@std@@QEAA@XZ				; std::locale::locale
PUBLIC	??1locale@std@@QEAA@XZ				; std::locale::~locale
PUBLIC	?_Getfacet@locale@std@@QEBAPEBVfacet@12@_K@Z	; std::locale::_Getfacet
PUBLIC	??$_Maklocstr@_W@std@@YAPEA_WPEBDPEA_WAEBU_Cvtvec@@@Z ; std::_Maklocstr<wchar_t>
PUBLIC	??$_Adl_verify_range@PEADPEAD@std@@YAXAEBQEAD0@Z ; std::_Adl_verify_range<char *,char *>
PUBLIC	??$use_facet@V?$ctype@D@std@@@std@@YAAEBV?$ctype@D@0@AEBVlocale@0@@Z ; std::use_facet<std::ctype<char> >
PUBLIC	?_Maklocwcs@std@@YAPEA_WPEB_W@Z			; std::_Maklocwcs
PUBLIC	??$_Maklocstr@D@std@@YAPEADPEBDPEADAEBU_Cvtvec@@@Z ; std::_Maklocstr<char>
PUBLIC	??0UserInterfaceHandler@UI@@QEAA@XZ		; UI::UserInterfaceHandler::UserInterfaceHandler
PUBLIC	??0SimpleUI@UI@@QEAA@XZ				; UI::SimpleUI::SimpleUI
PUBLIC	?launch@SimpleUI@UI@@UEAAXXZ			; UI::SimpleUI::launch
PUBLIC	??1SimpleUI@UI@@UEAA@XZ				; UI::SimpleUI::~SimpleUI
PUBLIC	??R?$default_delete@VProductHandler@Product@Domain@@@std@@QEBAXPEAVProductHandler@Product@Domain@@@Z ; std::default_delete<Domain::Product::ProductHandler>::operator()
PUBLIC	??1?$unique_ptr@VProductHandler@Product@Domain@@U?$default_delete@VProductHandler@Product@Domain@@@std@@@std@@QEAA@XZ ; std::unique_ptr<Domain::Product::ProductHandler,std::default_delete<Domain::Product::ProductHandler> >::~unique_ptr<Domain::Product::ProductHandler,std::default_delete<Domain::Product::ProductHandler> >
PUBLIC	??C?$unique_ptr@VProductHandler@Product@Domain@@U?$default_delete@VProductHandler@Product@Domain@@@std@@@std@@QEBAPEAVProductHandler@Product@Domain@@XZ ; std::unique_ptr<Domain::Product::ProductHandler,std::default_delete<Domain::Product::ProductHandler> >::operator->
PUBLIC	??B?$unique_ptr@VProductHandler@Product@Domain@@U?$default_delete@VProductHandler@Product@Domain@@@std@@@std@@QEBA_NXZ ; std::unique_ptr<Domain::Product::ProductHandler,std::default_delete<Domain::Product::ProductHandler> >::operator bool
PUBLIC	?release@?$unique_ptr@VProductHandler@Product@Domain@@U?$default_delete@VProductHandler@Product@Domain@@@std@@@std@@QEAAPEAVProductHandler@Product@Domain@@XZ ; std::unique_ptr<Domain::Product::ProductHandler,std::default_delete<Domain::Product::ProductHandler> >::release
PUBLIC	?reset@?$unique_ptr@VProductHandler@Product@Domain@@U?$default_delete@VProductHandler@Product@Domain@@@std@@@std@@QEAAXPEAVProductHandler@Product@Domain@@@Z ; std::unique_ptr<Domain::Product::ProductHandler,std::default_delete<Domain::Product::ProductHandler> >::reset
PUBLIC	?_Get_first@?$_Compressed_pair@U?$default_delete@VProductHandler@Product@Domain@@@std@@PEAVProductHandler@Product@Domain@@$00@std@@QEAAAEAU?$default_delete@VProductHandler@Product@Domain@@@2@XZ ; std::_Compressed_pair<std::default_delete<Domain::Product::ProductHandler>,Domain::Product::ProductHandler *,1>::_Get_first
PUBLIC	??R?$default_delete@VSaleHandler@Sale@Domain@@@std@@QEBAXPEAVSaleHandler@Sale@Domain@@@Z ; std::default_delete<Domain::Sale::SaleHandler>::operator()
PUBLIC	??1?$unique_ptr@VSaleHandler@Sale@Domain@@U?$default_delete@VSaleHandler@Sale@Domain@@@std@@@std@@QEAA@XZ ; std::unique_ptr<Domain::Sale::SaleHandler,std::default_delete<Domain::Sale::SaleHandler> >::~unique_ptr<Domain::Sale::SaleHandler,std::default_delete<Domain::Sale::SaleHandler> >
PUBLIC	??C?$unique_ptr@VSaleHandler@Sale@Domain@@U?$default_delete@VSaleHandler@Sale@Domain@@@std@@@std@@QEBAPEAVSaleHandler@Sale@Domain@@XZ ; std::unique_ptr<Domain::Sale::SaleHandler,std::default_delete<Domain::Sale::SaleHandler> >::operator->
PUBLIC	??B?$unique_ptr@VSaleHandler@Sale@Domain@@U?$default_delete@VSaleHandler@Sale@Domain@@@std@@@std@@QEBA_NXZ ; std::unique_ptr<Domain::Sale::SaleHandler,std::default_delete<Domain::Sale::SaleHandler> >::operator bool
PUBLIC	?release@?$unique_ptr@VSaleHandler@Sale@Domain@@U?$default_delete@VSaleHandler@Sale@Domain@@@std@@@std@@QEAAPEAVSaleHandler@Sale@Domain@@XZ ; std::unique_ptr<Domain::Sale::SaleHandler,std::default_delete<Domain::Sale::SaleHandler> >::release
PUBLIC	?reset@?$unique_ptr@VSaleHandler@Sale@Domain@@U?$default_delete@VSaleHandler@Sale@Domain@@@std@@@std@@QEAAXPEAVSaleHandler@Sale@Domain@@@Z ; std::unique_ptr<Domain::Sale::SaleHandler,std::default_delete<Domain::Sale::SaleHandler> >::reset
PUBLIC	?_Get_first@?$_Compressed_pair@U?$default_delete@VSaleHandler@Sale@Domain@@@std@@PEAVSaleHandler@Sale@Domain@@$00@std@@QEAAAEAU?$default_delete@VSaleHandler@Sale@Domain@@@2@XZ ; std::_Compressed_pair<std::default_delete<Domain::Sale::SaleHandler>,Domain::Sale::SaleHandler *,1>::_Get_first
PUBLIC	??R?$default_delete@VLoggerHandler@Logging@TechnicalServices@@@std@@QEBAXPEAVLoggerHandler@Logging@TechnicalServices@@@Z ; std::default_delete<TechnicalServices::Logging::LoggerHandler>::operator()
PUBLIC	??1?$unique_ptr@VLoggerHandler@Logging@TechnicalServices@@U?$default_delete@VLoggerHandler@Logging@TechnicalServices@@@std@@@std@@QEAA@XZ ; std::unique_ptr<TechnicalServices::Logging::LoggerHandler,std::default_delete<TechnicalServices::Logging::LoggerHandler> >::~unique_ptr<TechnicalServices::Logging::LoggerHandler,std::default_delete<TechnicalServices::Logging::LoggerHandler> >
PUBLIC	??D?$unique_ptr@VLoggerHandler@Logging@TechnicalServices@@U?$default_delete@VLoggerHandler@Logging@TechnicalServices@@@std@@@std@@QEBAAEAVLoggerHandler@Logging@TechnicalServices@@XZ ; std::unique_ptr<TechnicalServices::Logging::LoggerHandler,std::default_delete<TechnicalServices::Logging::LoggerHandler> >::operator*
PUBLIC	?_Get_first@?$_Compressed_pair@U?$default_delete@VLoggerHandler@Logging@TechnicalServices@@@std@@PEAVLoggerHandler@Logging@TechnicalServices@@$00@std@@QEAAAEAU?$default_delete@VLoggerHandler@Logging@TechnicalServices@@@2@XZ ; std::_Compressed_pair<std::default_delete<TechnicalServices::Logging::LoggerHandler>,TechnicalServices::Logging::LoggerHandler *,1>::_Get_first
PUBLIC	??_GSimpleUI@UI@@UEAAPEAXI@Z			; UI::SimpleUI::`scalar deleting destructor'
PUBLIC	??$_Getvals@_W@?$time_get@DV?$istreambuf_iterator@DU?$char_traits@D@std@@@std@@@std@@IEAAX_WAEBV_Locinfo@1@@Z ; std::time_get<char,std::istreambuf_iterator<char,std::char_traits<char> > >::_Getvals<wchar_t>
PUBLIC	??$_Getvals@_W@?$time_get@_WV?$istreambuf_iterator@_WU?$char_traits@_W@std@@@std@@@std@@IEAAX_WAEBV_Locinfo@1@@Z ; std::time_get<wchar_t,std::istreambuf_iterator<wchar_t,std::char_traits<wchar_t> > >::_Getvals<wchar_t>
PUBLIC	?deallocate@?$allocator@UClient@Persistence@TechnicalServices@@@std@@QEAAXQEAUClient@Persistence@TechnicalServices@@_K@Z ; std::allocator<TechnicalServices::Persistence::Client>::deallocate
PUBLIC	?allocate@?$allocator@UClient@Persistence@TechnicalServices@@@std@@QEAAPEAUClient@Persistence@TechnicalServices@@_K@Z ; std::allocator<TechnicalServices::Persistence::Client>::allocate
PUBLIC	?max_size@?$_Default_allocator_traits@V?$allocator@UClient@Persistence@TechnicalServices@@@std@@@std@@SA_KAEBV?$allocator@UClient@Persistence@TechnicalServices@@@2@@Z ; std::_Default_allocator_traits<std::allocator<TechnicalServices::Persistence::Client> >::max_size
PUBLIC	?_Move_assign@?$vector@UClient@Persistence@TechnicalServices@@V?$allocator@UClient@Persistence@TechnicalServices@@@std@@@std@@AEAAXAEAV12@U_Equal_allocators@2@@Z ; std::vector<TechnicalServices::Persistence::Client,std::allocator<TechnicalServices::Persistence::Client> >::_Move_assign
PUBLIC	??4?$vector@UClient@Persistence@TechnicalServices@@V?$allocator@UClient@Persistence@TechnicalServices@@@std@@@std@@QEAAAEAV01@$$QEAV01@@Z ; std::vector<TechnicalServices::Persistence::Client,std::allocator<TechnicalServices::Persistence::Client> >::operator=
PUBLIC	??1?$vector@UClient@Persistence@TechnicalServices@@V?$allocator@UClient@Persistence@TechnicalServices@@@std@@@std@@QEAA@XZ ; std::vector<TechnicalServices::Persistence::Client,std::allocator<TechnicalServices::Persistence::Client> >::~vector<TechnicalServices::Persistence::Client,std::allocator<TechnicalServices::Persistence::Client> >
PUBLIC	?_Copy_assign@?$vector@UClient@Persistence@TechnicalServices@@V?$allocator@UClient@Persistence@TechnicalServices@@@std@@@std@@AEAAXAEBV12@U?$integral_constant@_N$0A@@2@@Z ; std::vector<TechnicalServices::Persistence::Client,std::allocator<TechnicalServices::Persistence::Client> >::_Copy_assign
PUBLIC	??4?$vector@UClient@Persistence@TechnicalServices@@V?$allocator@UClient@Persistence@TechnicalServices@@@std@@@std@@QEAAAEAV01@AEBV01@@Z ; std::vector<TechnicalServices::Persistence::Client,std::allocator<TechnicalServices::Persistence::Client> >::operator=
PUBLIC	?_Clear_and_reserve_geometric@?$vector@UClient@Persistence@TechnicalServices@@V?$allocator@UClient@Persistence@TechnicalServices@@@std@@@std@@AEAAX_K@Z ; std::vector<TechnicalServices::Persistence::Client,std::allocator<TechnicalServices::Persistence::Client> >::_Clear_and_reserve_geometric
PUBLIC	?size@?$vector@UClient@Persistence@TechnicalServices@@V?$allocator@UClient@Persistence@TechnicalServices@@@std@@@std@@QEBA_KXZ ; std::vector<TechnicalServices::Persistence::Client,std::allocator<TechnicalServices::Persistence::Client> >::size
PUBLIC	?max_size@?$vector@UClient@Persistence@TechnicalServices@@V?$allocator@UClient@Persistence@TechnicalServices@@@std@@@std@@QEBA_KXZ ; std::vector<TechnicalServices::Persistence::Client,std::allocator<TechnicalServices::Persistence::Client> >::max_size
PUBLIC	?capacity@?$vector@UClient@Persistence@TechnicalServices@@V?$allocator@UClient@Persistence@TechnicalServices@@@std@@@std@@QEBA_KXZ ; std::vector<TechnicalServices::Persistence::Client,std::allocator<TechnicalServices::Persistence::Client> >::capacity
PUBLIC	?_Destroy@?$vector@UClient@Persistence@TechnicalServices@@V?$allocator@UClient@Persistence@TechnicalServices@@@std@@@std@@AEAAXPEAUClient@Persistence@TechnicalServices@@0@Z ; std::vector<TechnicalServices::Persistence::Client,std::allocator<TechnicalServices::Persistence::Client> >::_Destroy
PUBLIC	?_Calculate_growth@?$vector@UClient@Persistence@TechnicalServices@@V?$allocator@UClient@Persistence@TechnicalServices@@@std@@@std@@AEBA_K_K@Z ; std::vector<TechnicalServices::Persistence::Client,std::allocator<TechnicalServices::Persistence::Client> >::_Calculate_growth
PUBLIC	?_Buy_raw@?$vector@UClient@Persistence@TechnicalServices@@V?$allocator@UClient@Persistence@TechnicalServices@@@std@@@std@@AEAAX_K@Z ; std::vector<TechnicalServices::Persistence::Client,std::allocator<TechnicalServices::Persistence::Client> >::_Buy_raw
PUBLIC	?_Tidy@?$vector@UClient@Persistence@TechnicalServices@@V?$allocator@UClient@Persistence@TechnicalServices@@@std@@@std@@AEAAXXZ ; std::vector<TechnicalServices::Persistence::Client,std::allocator<TechnicalServices::Persistence::Client> >::_Tidy
PUBLIC	?_Xlength@?$vector@UClient@Persistence@TechnicalServices@@V?$allocator@UClient@Persistence@TechnicalServices@@@std@@@std@@CAXXZ ; std::vector<TechnicalServices::Persistence::Client,std::allocator<TechnicalServices::Persistence::Client> >::_Xlength
PUBLIC	?_Getal@?$vector@UClient@Persistence@TechnicalServices@@V?$allocator@UClient@Persistence@TechnicalServices@@@std@@@std@@AEAAAEAV?$allocator@UClient@Persistence@TechnicalServices@@@2@XZ ; std::vector<TechnicalServices::Persistence::Client,std::allocator<TechnicalServices::Persistence::Client> >::_Getal
PUBLIC	?_Getal@?$vector@UClient@Persistence@TechnicalServices@@V?$allocator@UClient@Persistence@TechnicalServices@@@std@@@std@@AEBAAEBV?$allocator@UClient@Persistence@TechnicalServices@@@2@XZ ; std::vector<TechnicalServices::Persistence::Client,std::allocator<TechnicalServices::Persistence::Client> >::_Getal
PUBLIC	?_Take_contents@?$_Vector_val@U?$_Simple_types@UClient@Persistence@TechnicalServices@@@std@@@std@@QEAAXAEAV12@@Z ; std::_Vector_val<std::_Simple_types<TechnicalServices::Persistence::Client> >::_Take_contents
PUBLIC	?_Get_first@?$_Compressed_pair@V?$allocator@UClient@Persistence@TechnicalServices@@@std@@V?$_Vector_val@U?$_Simple_types@UClient@Persistence@TechnicalServices@@@std@@@2@$00@std@@QEAAAEAV?$allocator@UClient@Persistence@TechnicalServices@@@2@XZ ; std::_Compressed_pair<std::allocator<TechnicalServices::Persistence::Client>,std::_Vector_val<std::_Simple_types<TechnicalServices::Persistence::Client> >,1>::_Get_first
PUBLIC	?_Get_first@?$_Compressed_pair@V?$allocator@UClient@Persistence@TechnicalServices@@@std@@V?$_Vector_val@U?$_Simple_types@UClient@Persistence@TechnicalServices@@@std@@@2@$00@std@@QEBAAEBV?$allocator@UClient@Persistence@TechnicalServices@@@2@XZ ; std::_Compressed_pair<std::allocator<TechnicalServices::Persistence::Client>,std::_Vector_val<std::_Simple_types<TechnicalServices::Persistence::Client> >,1>::_Get_first
PUBLIC	?__autoclassinit2@?$vector@UClient@Persistence@TechnicalServices@@V?$allocator@UClient@Persistence@TechnicalServices@@@std@@@std@@QEAAX_K@Z ; std::vector<TechnicalServices::Persistence::Client,std::allocator<TechnicalServices::Persistence::Client> >::__autoclassinit2
PUBLIC	?deallocate@?$allocator@UClientprofile@Persistence@TechnicalServices@@@std@@QEAAXQEAUClientprofile@Persistence@TechnicalServices@@_K@Z ; std::allocator<TechnicalServices::Persistence::Clientprofile>::deallocate
PUBLIC	?allocate@?$allocator@UClientprofile@Persistence@TechnicalServices@@@std@@QEAAPEAUClientprofile@Persistence@TechnicalServices@@_K@Z ; std::allocator<TechnicalServices::Persistence::Clientprofile>::allocate
PUBLIC	?max_size@?$_Default_allocator_traits@V?$allocator@UClientprofile@Persistence@TechnicalServices@@@std@@@std@@SA_KAEBV?$allocator@UClientprofile@Persistence@TechnicalServices@@@2@@Z ; std::_Default_allocator_traits<std::allocator<TechnicalServices::Persistence::Clientprofile> >::max_size
PUBLIC	??1?$vector@UClientprofile@Persistence@TechnicalServices@@V?$allocator@UClientprofile@Persistence@TechnicalServices@@@std@@@std@@QEAA@XZ ; std::vector<TechnicalServices::Persistence::Clientprofile,std::allocator<TechnicalServices::Persistence::Clientprofile> >::~vector<TechnicalServices::Persistence::Clientprofile,std::allocator<TechnicalServices::Persistence::Clientprofile> >
PUBLIC	?push_back@?$vector@UClientprofile@Persistence@TechnicalServices@@V?$allocator@UClientprofile@Persistence@TechnicalServices@@@std@@@std@@QEAAX$$QEAUClientprofile@Persistence@TechnicalServices@@@Z ; std::vector<TechnicalServices::Persistence::Clientprofile,std::allocator<TechnicalServices::Persistence::Clientprofile> >::push_back
PUBLIC	?_Copy_assign@?$vector@UClientprofile@Persistence@TechnicalServices@@V?$allocator@UClientprofile@Persistence@TechnicalServices@@@std@@@std@@AEAAXAEBV12@U?$integral_constant@_N$0A@@2@@Z ; std::vector<TechnicalServices::Persistence::Clientprofile,std::allocator<TechnicalServices::Persistence::Clientprofile> >::_Copy_assign
PUBLIC	??4?$vector@UClientprofile@Persistence@TechnicalServices@@V?$allocator@UClientprofile@Persistence@TechnicalServices@@@std@@@std@@QEAAAEAV01@AEBV01@@Z ; std::vector<TechnicalServices::Persistence::Clientprofile,std::allocator<TechnicalServices::Persistence::Clientprofile> >::operator=
PUBLIC	?_Clear_and_reserve_geometric@?$vector@UClientprofile@Persistence@TechnicalServices@@V?$allocator@UClientprofile@Persistence@TechnicalServices@@@std@@@std@@AEAAX_K@Z ; std::vector<TechnicalServices::Persistence::Clientprofile,std::allocator<TechnicalServices::Persistence::Clientprofile> >::_Clear_and_reserve_geometric
PUBLIC	?max_size@?$vector@UClientprofile@Persistence@TechnicalServices@@V?$allocator@UClientprofile@Persistence@TechnicalServices@@@std@@@std@@QEBA_KXZ ; std::vector<TechnicalServices::Persistence::Clientprofile,std::allocator<TechnicalServices::Persistence::Clientprofile> >::max_size
PUBLIC	?capacity@?$vector@UClientprofile@Persistence@TechnicalServices@@V?$allocator@UClientprofile@Persistence@TechnicalServices@@@std@@@std@@QEBA_KXZ ; std::vector<TechnicalServices::Persistence::Clientprofile,std::allocator<TechnicalServices::Persistence::Clientprofile> >::capacity
PUBLIC	?_Umove@?$vector@UClientprofile@Persistence@TechnicalServices@@V?$allocator@UClientprofile@Persistence@TechnicalServices@@@std@@@std@@AEAAPEAUClientprofile@Persistence@TechnicalServices@@PEAU345@00@Z ; std::vector<TechnicalServices::Persistence::Clientprofile,std::allocator<TechnicalServices::Persistence::Clientprofile> >::_Umove
PUBLIC	?_Umove_if_noexcept1@?$vector@UClientprofile@Persistence@TechnicalServices@@V?$allocator@UClientprofile@Persistence@TechnicalServices@@@std@@@std@@AEAAXPEAUClientprofile@Persistence@TechnicalServices@@00U?$integral_constant@_N$00@2@@Z ; std::vector<TechnicalServices::Persistence::Clientprofile,std::allocator<TechnicalServices::Persistence::Clientprofile> >::_Umove_if_noexcept1
PUBLIC	?_Umove_if_noexcept@?$vector@UClientprofile@Persistence@TechnicalServices@@V?$allocator@UClientprofile@Persistence@TechnicalServices@@@std@@@std@@AEAAXPEAUClientprofile@Persistence@TechnicalServices@@00@Z ; std::vector<TechnicalServices::Persistence::Clientprofile,std::allocator<TechnicalServices::Persistence::Clientprofile> >::_Umove_if_noexcept
PUBLIC	?_Destroy@?$vector@UClientprofile@Persistence@TechnicalServices@@V?$allocator@UClientprofile@Persistence@TechnicalServices@@@std@@@std@@AEAAXPEAUClientprofile@Persistence@TechnicalServices@@0@Z ; std::vector<TechnicalServices::Persistence::Clientprofile,std::allocator<TechnicalServices::Persistence::Clientprofile> >::_Destroy
PUBLIC	?_Calculate_growth@?$vector@UClientprofile@Persistence@TechnicalServices@@V?$allocator@UClientprofile@Persistence@TechnicalServices@@@std@@@std@@AEBA_K_K@Z ; std::vector<TechnicalServices::Persistence::Clientprofile,std::allocator<TechnicalServices::Persistence::Clientprofile> >::_Calculate_growth
PUBLIC	?_Buy_raw@?$vector@UClientprofile@Persistence@TechnicalServices@@V?$allocator@UClientprofile@Persistence@TechnicalServices@@@std@@@std@@AEAAX_K@Z ; std::vector<TechnicalServices::Persistence::Clientprofile,std::allocator<TechnicalServices::Persistence::Clientprofile> >::_Buy_raw
PUBLIC	?_Change_array@?$vector@UClientprofile@Persistence@TechnicalServices@@V?$allocator@UClientprofile@Persistence@TechnicalServices@@@std@@@std@@AEAAXQEAUClientprofile@Persistence@TechnicalServices@@_K1@Z ; std::vector<TechnicalServices::Persistence::Clientprofile,std::allocator<TechnicalServices::Persistence::Clientprofile> >::_Change_array
PUBLIC	?_Tidy@?$vector@UClientprofile@Persistence@TechnicalServices@@V?$allocator@UClientprofile@Persistence@TechnicalServices@@@std@@@std@@AEAAXXZ ; std::vector<TechnicalServices::Persistence::Clientprofile,std::allocator<TechnicalServices::Persistence::Clientprofile> >::_Tidy
PUBLIC	?_Xlength@?$vector@UClientprofile@Persistence@TechnicalServices@@V?$allocator@UClientprofile@Persistence@TechnicalServices@@@std@@@std@@CAXXZ ; std::vector<TechnicalServices::Persistence::Clientprofile,std::allocator<TechnicalServices::Persistence::Clientprofile> >::_Xlength
PUBLIC	?_Orphan_range@?$vector@UClientprofile@Persistence@TechnicalServices@@V?$allocator@UClientprofile@Persistence@TechnicalServices@@@std@@@std@@AEBAXPEAUClientprofile@Persistence@TechnicalServices@@0@Z ; std::vector<TechnicalServices::Persistence::Clientprofile,std::allocator<TechnicalServices::Persistence::Clientprofile> >::_Orphan_range
PUBLIC	?_Getal@?$vector@UClientprofile@Persistence@TechnicalServices@@V?$allocator@UClientprofile@Persistence@TechnicalServices@@@std@@@std@@AEAAAEAV?$allocator@UClientprofile@Persistence@TechnicalServices@@@2@XZ ; std::vector<TechnicalServices::Persistence::Clientprofile,std::allocator<TechnicalServices::Persistence::Clientprofile> >::_Getal
PUBLIC	?_Getal@?$vector@UClientprofile@Persistence@TechnicalServices@@V?$allocator@UClientprofile@Persistence@TechnicalServices@@@std@@@std@@AEBAAEBV?$allocator@UClientprofile@Persistence@TechnicalServices@@@2@XZ ; std::vector<TechnicalServices::Persistence::Clientprofile,std::allocator<TechnicalServices::Persistence::Clientprofile> >::_Getal
PUBLIC	?_Get_first@?$_Compressed_pair@V?$allocator@UClientprofile@Persistence@TechnicalServices@@@std@@V?$_Vector_val@U?$_Simple_types@UClientprofile@Persistence@TechnicalServices@@@std@@@2@$00@std@@QEAAAEAV?$allocator@UClientprofile@Persistence@TechnicalServices@@@2@XZ ; std::_Compressed_pair<std::allocator<TechnicalServices::Persistence::Clientprofile>,std::_Vector_val<std::_Simple_types<TechnicalServices::Persistence::Clientprofile> >,1>::_Get_first
PUBLIC	?_Get_first@?$_Compressed_pair@V?$allocator@UClientprofile@Persistence@TechnicalServices@@@std@@V?$_Vector_val@U?$_Simple_types@UClientprofile@Persistence@TechnicalServices@@@std@@@2@$00@std@@QEBAAEBV?$allocator@UClientprofile@Persistence@TechnicalServices@@@2@XZ ; std::_Compressed_pair<std::allocator<TechnicalServices::Persistence::Clientprofile>,std::_Vector_val<std::_Simple_types<TechnicalServices::Persistence::Clientprofile> >,1>::_Get_first
PUBLIC	?__autoclassinit2@?$vector@UClientprofile@Persistence@TechnicalServices@@V?$allocator@UClientprofile@Persistence@TechnicalServices@@@std@@@std@@QEAAX_K@Z ; std::vector<TechnicalServices::Persistence::Clientprofile,std::allocator<TechnicalServices::Persistence::Clientprofile> >::__autoclassinit2
PUBLIC	??$?HDU?$char_traits@D@std@@V?$allocator@D@1@@std@@YA?AV?$basic_string@DU?$char_traits@D@std@@V?$allocator@D@2@@0@QEBDAEBV10@@Z ; std::operator+<char,std::char_traits<char>,std::allocator<char> >
PUBLIC	??$?HDU?$char_traits@D@std@@V?$allocator@D@1@@std@@YA?AV?$basic_string@DU?$char_traits@D@std@@V?$allocator@D@2@@0@QEBD$$QEAV10@@Z ; std::operator+<char,std::char_traits<char>,std::allocator<char> >
PUBLIC	??$?HDU?$char_traits@D@std@@V?$allocator@D@1@@std@@YA?AV?$basic_string@DU?$char_traits@D@std@@V?$allocator@D@2@@0@$$QEAV10@QEBD@Z ; std::operator+<char,std::char_traits<char>,std::allocator<char> >
PUBLIC	??$?0U?$default_delete@VProductHandler@Product@Domain@@@std@@$0A@@?$unique_ptr@VProductHandler@Product@Domain@@U?$default_delete@VProductHandler@Product@Domain@@@std@@@std@@QEAA@XZ ; std::unique_ptr<Domain::Product::ProductHandler,std::default_delete<Domain::Product::ProductHandler> >::unique_ptr<Domain::Product::ProductHandler,std::default_delete<Domain::Product::ProductHandler> ><std::default_delete<Domain::Product::ProductHandler>,0>
PUBLIC	??$?0U?$default_delete@VSaleHandler@Sale@Domain@@@std@@$0A@@?$unique_ptr@VSaleHandler@Sale@Domain@@U?$default_delete@VSaleHandler@Sale@Domain@@@std@@@std@@QEAA@XZ ; std::unique_ptr<Domain::Sale::SaleHandler,std::default_delete<Domain::Sale::SaleHandler> >::unique_ptr<Domain::Sale::SaleHandler,std::default_delete<Domain::Sale::SaleHandler> ><std::default_delete<Domain::Sale::SaleHandler>,0>
PUBLIC	?line@UI@@YAXXZ					; UI::line
PUBLIC	??$?6U?$char_traits@D@std@@@std@@YAAEAV?$basic_ostream@DU?$char_traits@D@std@@@0@AEAV10@PEBD@Z ; std::operator<<<std::char_traits<char> >
PUBLIC	??$?6U?$char_traits@D@std@@@std@@YAAEAV?$basic_ostream@DU?$char_traits@D@std@@@0@AEAV10@D@Z ; std::operator<<<std::char_traits<char> >
PUBLIC	??0?$initializer_list@V?$basic_string@DU?$char_traits@D@std@@V?$allocator@D@2@@std@@@std@@QEAA@PEBV?$basic_string@DU?$char_traits@D@std@@V?$allocator@D@2@@1@0@Z ; std::initializer_list<std::basic_string<char,std::char_traits<char>,std::allocator<char> > >::initializer_list<std::basic_string<char,std::char_traits<char>,std::allocator<char> > >
PUBLIC	?begin@?$initializer_list@V?$basic_string@DU?$char_traits@D@std@@V?$allocator@D@2@@std@@@std@@QEBAPEBV?$basic_string@DU?$char_traits@D@std@@V?$allocator@D@2@@2@XZ ; std::initializer_list<std::basic_string<char,std::char_traits<char>,std::allocator<char> > >::begin
PUBLIC	?end@?$initializer_list@V?$basic_string@DU?$char_traits@D@std@@V?$allocator@D@2@@std@@@std@@QEBAPEBV?$basic_string@DU?$char_traits@D@std@@V?$allocator@D@2@@2@XZ ; std::initializer_list<std::basic_string<char,std::char_traits<char>,std::allocator<char> > >::end
PUBLIC	??R?$default_delete@VSessionHandler@Session@Domain@@@std@@QEBAXPEAVSessionHandler@Session@Domain@@@Z ; std::default_delete<Domain::Session::SessionHandler>::operator()
PUBLIC	??1?$unique_ptr@VSessionHandler@Session@Domain@@U?$default_delete@VSessionHandler@Session@Domain@@@std@@@std@@QEAA@XZ ; std::unique_ptr<Domain::Session::SessionHandler,std::default_delete<Domain::Session::SessionHandler> >::~unique_ptr<Domain::Session::SessionHandler,std::default_delete<Domain::Session::SessionHandler> >
PUBLIC	??C?$unique_ptr@VSessionHandler@Session@Domain@@U?$default_delete@VSessionHandler@Session@Domain@@@std@@@std@@QEBAPEAVSessionHandler@Session@Domain@@XZ ; std::unique_ptr<Domain::Session::SessionHandler,std::default_delete<Domain::Session::SessionHandler> >::operator->
PUBLIC	??B?$unique_ptr@VSessionHandler@Session@Domain@@U?$default_delete@VSessionHandler@Session@Domain@@@std@@@std@@QEBA_NXZ ; std::unique_ptr<Domain::Session::SessionHandler,std::default_delete<Domain::Session::SessionHandler> >::operator bool
PUBLIC	?release@?$unique_ptr@VSessionHandler@Session@Domain@@U?$default_delete@VSessionHandler@Session@Domain@@@std@@@std@@QEAAPEAVSessionHandler@Session@Domain@@XZ ; std::unique_ptr<Domain::Session::SessionHandler,std::default_delete<Domain::Session::SessionHandler> >::release
PUBLIC	?reset@?$unique_ptr@VSessionHandler@Session@Domain@@U?$default_delete@VSessionHandler@Session@Domain@@@std@@@std@@QEAAXPEAVSessionHandler@Session@Domain@@@Z ; std::unique_ptr<Domain::Session::SessionHandler,std::default_delete<Domain::Session::SessionHandler> >::reset
PUBLIC	?_Get_first@?$_Compressed_pair@U?$default_delete@VSessionHandler@Session@Domain@@@std@@PEAVSessionHandler@Session@Domain@@$00@std@@QEAAAEAU?$default_delete@VSessionHandler@Session@Domain@@@2@XZ ; std::_Compressed_pair<std::default_delete<Domain::Session::SessionHandler>,Domain::Session::SessionHandler *,1>::_Get_first
PUBLIC	?__autoclassinit2@?$unique_ptr@VSessionHandler@Session@Domain@@U?$default_delete@VSessionHandler@Session@Domain@@@std@@@std@@QEAAX_K@Z ; std::unique_ptr<Domain::Session::SessionHandler,std::default_delete<Domain::Session::SessionHandler> >::__autoclassinit2
PUBLIC	??$?0U?$default_delete@VSessionHandler@Session@Domain@@@std@@$0A@@?$unique_ptr@VSessionHandler@Session@Domain@@U?$default_delete@VSessionHandler@Session@Domain@@@std@@@std@@QEAA@XZ ; std::unique_ptr<Domain::Session::SessionHandler,std::default_delete<Domain::Session::SessionHandler> >::unique_ptr<Domain::Session::SessionHandler,std::default_delete<Domain::Session::SessionHandler> ><std::default_delete<Domain::Session::SessionHandler>,0>
PUBLIC	??$getline@DU?$char_traits@D@std@@V?$allocator@D@2@@std@@YAAEAV?$basic_istream@DU?$char_traits@D@std@@@0@AEAV10@AEAV?$basic_string@DU?$char_traits@D@std@@V?$allocator@D@2@@0@@Z ; std::getline<char,std::char_traits<char>,std::allocator<char> >
PUBLIC	??$?4U?$default_delete@VSessionHandler@Session@Domain@@@std@@$0A@@?$unique_ptr@VSessionHandler@Session@Domain@@U?$default_delete@VSessionHandler@Session@Domain@@@std@@@std@@QEAAAEAV01@$$QEAV01@@Z ; std::unique_ptr<Domain::Session::SessionHandler,std::default_delete<Domain::Session::SessionHandler> >::operator=<std::default_delete<Domain::Session::SessionHandler>,0>
PUBLIC	??$?9VSessionHandler@Session@Domain@@U?$default_delete@VSessionHandler@Session@Domain@@@std@@@std@@YA_NAEBV?$unique_ptr@VSessionHandler@Session@Domain@@U?$default_delete@VSessionHandler@Session@Domain@@@std@@@0@$$T@Z ; std::operator!=<Domain::Session::SessionHandler,std::default_delete<Domain::Session::SessionHandler> >
PUBLIC	??$?6DU?$char_traits@D@std@@_J@std@@YAAEAV?$basic_ostream@DU?$char_traits@D@std@@@0@AEAV10@AEBU?$_Smanip@_J@0@@Z ; std::operator<<<char,std::char_traits<char>,__int64>
PUBLIC	??$?6DU?$char_traits@D@std@@V?$allocator@D@1@@std@@YAAEAV?$basic_ostream@DU?$char_traits@D@std@@@0@AEAV10@AEBV?$basic_string@DU?$char_traits@D@std@@V?$allocator@D@2@@0@@Z ; std::operator<<<char,std::char_traits<char>,std::allocator<char> >
PUBLIC	??$?HDU?$char_traits@D@std@@V?$allocator@D@1@@std@@YA?AV?$basic_string@DU?$char_traits@D@std@@V?$allocator@D@2@@0@$$QEAV10@D@Z ; std::operator+<char,std::char_traits<char>,std::allocator<char> >
PUBLIC	??$?8DU?$char_traits@D@std@@V?$allocator@D@1@@std@@YA_NAEBV?$basic_string@DU?$char_traits@D@std@@V?$allocator@D@2@@0@QEBD@Z ; std::operator==<char,std::char_traits<char>,std::allocator<char> >
PUBLIC	??R?$default_delete@VClientHandler@Client@Domain@@@std@@QEBAXPEAVClientHandler@Client@Domain@@@Z ; std::default_delete<Domain::Client::ClientHandler>::operator()
PUBLIC	??1?$unique_ptr@VClientHandler@Client@Domain@@U?$default_delete@VClientHandler@Client@Domain@@@std@@@std@@QEAA@XZ ; std::unique_ptr<Domain::Client::ClientHandler,std::default_delete<Domain::Client::ClientHandler> >::~unique_ptr<Domain::Client::ClientHandler,std::default_delete<Domain::Client::ClientHandler> >
PUBLIC	??C?$unique_ptr@VClientHandler@Client@Domain@@U?$default_delete@VClientHandler@Client@Domain@@@std@@@std@@QEBAPEAVClientHandler@Client@Domain@@XZ ; std::unique_ptr<Domain::Client::ClientHandler,std::default_delete<Domain::Client::ClientHandler> >::operator->
PUBLIC	??B?$unique_ptr@VClientHandler@Client@Domain@@U?$default_delete@VClientHandler@Client@Domain@@@std@@@std@@QEBA_NXZ ; std::unique_ptr<Domain::Client::ClientHandler,std::default_delete<Domain::Client::ClientHandler> >::operator bool
PUBLIC	?release@?$unique_ptr@VClientHandler@Client@Domain@@U?$default_delete@VClientHandler@Client@Domain@@@std@@@std@@QEAAPEAVClientHandler@Client@Domain@@XZ ; std::unique_ptr<Domain::Client::ClientHandler,std::default_delete<Domain::Client::ClientHandler> >::release
PUBLIC	?reset@?$unique_ptr@VClientHandler@Client@Domain@@U?$default_delete@VClientHandler@Client@Domain@@@std@@@std@@QEAAXPEAVClientHandler@Client@Domain@@@Z ; std::unique_ptr<Domain::Client::ClientHandler,std::default_delete<Domain::Client::ClientHandler> >::reset
PUBLIC	?_Get_first@?$_Compressed_pair@U?$default_delete@VClientHandler@Client@Domain@@@std@@PEAVClientHandler@Client@Domain@@$00@std@@QEAAAEAU?$default_delete@VClientHandler@Client@Domain@@@2@XZ ; std::_Compressed_pair<std::default_delete<Domain::Client::ClientHandler>,Domain::Client::ClientHandler *,1>::_Get_first
PUBLIC	?__autoclassinit2@?$unique_ptr@VClientHandler@Client@Domain@@U?$default_delete@VClientHandler@Client@Domain@@@std@@@std@@QEAAX_K@Z ; std::unique_ptr<Domain::Client::ClientHandler,std::default_delete<Domain::Client::ClientHandler> >::__autoclassinit2
PUBLIC	??$?0U?$default_delete@VClientHandler@Client@Domain@@@std@@$0A@@?$unique_ptr@VClientHandler@Client@Domain@@U?$default_delete@VClientHandler@Client@Domain@@@std@@@std@@QEAA@XZ ; std::unique_ptr<Domain::Client::ClientHandler,std::default_delete<Domain::Client::ClientHandler> >::unique_ptr<Domain::Client::ClientHandler,std::default_delete<Domain::Client::ClientHandler> ><std::default_delete<Domain::Client::ClientHandler>,0>
PUBLIC	??$?4U?$default_delete@VClientHandler@Client@Domain@@@std@@$0A@@?$unique_ptr@VClientHandler@Client@Domain@@U?$default_delete@VClientHandler@Client@Domain@@@std@@@std@@QEAAAEAV01@$$QEAV01@@Z ; std::unique_ptr<Domain::Client::ClientHandler,std::default_delete<Domain::Client::ClientHandler> >::operator=<std::default_delete<Domain::Client::ClientHandler>,0>
PUBLIC	??$?9VClientHandler@Client@Domain@@U?$default_delete@VClientHandler@Client@Domain@@@std@@@std@@YA_NAEBV?$unique_ptr@VClientHandler@Client@Domain@@U?$default_delete@VClientHandler@Client@Domain@@@std@@@0@$$T@Z ; std::operator!=<Domain::Client::ClientHandler,std::default_delete<Domain::Client::ClientHandler> >
PUBLIC	??$?5DU?$char_traits@D@std@@@std@@YAAEAV?$basic_istream@DU?$char_traits@D@std@@@0@AEAV10@AEAD@Z ; std::operator>><char,std::char_traits<char> >
PUBLIC	??$ws@DU?$char_traits@D@std@@@std@@YAAEAV?$basic_istream@DU?$char_traits@D@std@@@0@AEAV10@@Z ; std::ws<char,std::char_traits<char> >
PUBLIC	??$any_cast@AEBV?$vector@UClient@Persistence@TechnicalServices@@V?$allocator@UClient@Persistence@TechnicalServices@@@std@@@std@@@std@@YAAEBV?$vector@UClient@Persistence@TechnicalServices@@V?$allocator@UClient@Persistence@TechnicalServices@@@std@@@0@AEAVany@0@@Z ; std::any_cast<std::vector<TechnicalServices::Persistence::Client,std::allocator<TechnicalServices::Persistence::Client> > const &>
PUBLIC	??$toupper@D@std@@YADDAEBVlocale@0@@Z		; std::toupper<char>
PUBLIC	??$any_cast@AEBV?$vector@UClientprofile@Persistence@TechnicalServices@@V?$allocator@UClientprofile@Persistence@TechnicalServices@@@std@@@std@@@std@@YAAEBV?$vector@UClientprofile@Persistence@TechnicalServices@@V?$allocator@UClientprofile@Persistence@TechnicalServices@@@std@@@0@AEAVany@0@@Z ; std::any_cast<std::vector<TechnicalServices::Persistence::Clientprofile,std::allocator<TechnicalServices::Persistence::Clientprofile> > const &>
PUBLIC	??$any_cast@AEBUClientprofile@Persistence@TechnicalServices@@@std@@YAAEBUClientprofile@Persistence@TechnicalServices@@AEAVany@0@@Z ; std::any_cast<TechnicalServices::Persistence::Clientprofile const &>
PUBLIC	??$?4U?$default_delete@VProductHandler@Product@Domain@@@std@@$0A@@?$unique_ptr@VProductHandler@Product@Domain@@U?$default_delete@VProductHandler@Product@Domain@@@std@@@std@@QEAAAEAV01@$$QEAV01@@Z ; std::unique_ptr<Domain::Product::ProductHandler,std::default_delete<Domain::Product::ProductHandler> >::operator=<std::default_delete<Domain::Product::ProductHandler>,0>
PUBLIC	??$?9VProductHandler@Product@Domain@@U?$default_delete@VProductHandler@Product@Domain@@@std@@@std@@YA_NAEBV?$unique_ptr@VProductHandler@Product@Domain@@U?$default_delete@VProductHandler@Product@Domain@@@std@@@0@$$T@Z ; std::operator!=<Domain::Product::ProductHandler,std::default_delete<Domain::Product::ProductHandler> >
PUBLIC	??$?4U?$default_delete@VSaleHandler@Sale@Domain@@@std@@$0A@@?$unique_ptr@VSaleHandler@Sale@Domain@@U?$default_delete@VSaleHandler@Sale@Domain@@@std@@@std@@QEAAAEAV01@$$QEAV01@@Z ; std::unique_ptr<Domain::Sale::SaleHandler,std::default_delete<Domain::Sale::SaleHandler> >::operator=<std::default_delete<Domain::Sale::SaleHandler>,0>
PUBLIC	??$?9VSaleHandler@Sale@Domain@@U?$default_delete@VSaleHandler@Sale@Domain@@@std@@@std@@YA_NAEBV?$unique_ptr@VSaleHandler@Sale@Domain@@U?$default_delete@VSaleHandler@Sale@Domain@@@std@@@0@$$T@Z ; std::operator!=<Domain::Sale::SaleHandler,std::default_delete<Domain::Sale::SaleHandler> >
PUBLIC	?allocate@?$allocator@U_Container_proxy@std@@@std@@QEAAPEAU_Container_proxy@2@_K@Z ; std::allocator<std::_Container_proxy>::allocate
PUBLIC	??$_Delete_plain_internal@V?$allocator@U_Container_proxy@std@@@std@@@std@@YAXAEAV?$allocator@U_Container_proxy@std@@@0@QEAU_Container_proxy@0@@Z ; std::_Delete_plain_internal<std::allocator<std::_Container_proxy> >
PUBLIC	??$addressof@$$CBV?$vector@UClientprofile@Persistence@TechnicalServices@@V?$allocator@UClientprofile@Persistence@TechnicalServices@@@std@@@std@@@std@@YAPEBV?$vector@UClientprofile@Persistence@TechnicalServices@@V?$allocator@UClientprofile@Persistence@TechnicalServices@@@std@@@0@AEBV10@@Z ; std::addressof<std::vector<TechnicalServices::Persistence::Clientprofile,std::allocator<TechnicalServices::Persistence::Clientprofile> > const >
PUBLIC	??$move@AEAUClientprofile@Persistence@TechnicalServices@@@std@@YA$$QEAUClientprofile@Persistence@TechnicalServices@@AEAU123@@Z ; std::move<TechnicalServices::Persistence::Clientprofile &>
PUBLIC	??$emplace_back@UClientprofile@Persistence@TechnicalServices@@@?$vector@UClientprofile@Persistence@TechnicalServices@@V?$allocator@UClientprofile@Persistence@TechnicalServices@@@std@@@std@@QEAA@$$QEAUClientprofile@Persistence@TechnicalServices@@@Z ; std::vector<TechnicalServices::Persistence::Clientprofile,std::allocator<TechnicalServices::Persistence::Clientprofile> >::emplace_back<TechnicalServices::Persistence::Clientprofile>
PUBLIC	??$forward@UClientprofile@Persistence@TechnicalServices@@@std@@YA$$QEAUClientprofile@Persistence@TechnicalServices@@AEAU123@@Z ; std::forward<TechnicalServices::Persistence::Clientprofile>
PUBLIC	??$_Emplace_back_with_unused_capacity@UClientprofile@Persistence@TechnicalServices@@@?$vector@UClientprofile@Persistence@TechnicalServices@@V?$allocator@UClientprofile@Persistence@TechnicalServices@@@std@@@std@@AEAA@$$QEAUClientprofile@Persistence@TechnicalServices@@@Z ; std::vector<TechnicalServices::Persistence::Clientprofile,std::allocator<TechnicalServices::Persistence::Clientprofile> >::_Emplace_back_with_unused_capacity<TechnicalServices::Persistence::Clientprofile>
PUBLIC	??$_Unfancy@UClientprofile@Persistence@TechnicalServices@@@std@@YAPEAUClientprofile@Persistence@TechnicalServices@@PEAU123@@Z ; std::_Unfancy<TechnicalServices::Persistence::Clientprofile>
PUBLIC	??$construct@UClientprofile@Persistence@TechnicalServices@@U123@@?$_Default_allocator_traits@V?$allocator@UClientprofile@Persistence@TechnicalServices@@@std@@@std@@SAXAEAV?$allocator@UClientprofile@Persistence@TechnicalServices@@@1@QEAUClientprofile@Persistence@TechnicalServices@@$$QEAU345@@Z ; std::_Default_allocator_traits<std::allocator<TechnicalServices::Persistence::Clientprofile> >::construct<TechnicalServices::Persistence::Clientprofile,TechnicalServices::Persistence::Clientprofile>
PUBLIC	??$_Emplace_reallocate@UClientprofile@Persistence@TechnicalServices@@@?$vector@UClientprofile@Persistence@TechnicalServices@@V?$allocator@UClientprofile@Persistence@TechnicalServices@@@std@@@std@@QEAAPEAUClientprofile@Persistence@TechnicalServices@@QEAU234@$$QEAU234@@Z ; std::vector<TechnicalServices::Persistence::Clientprofile,std::allocator<TechnicalServices::Persistence::Clientprofile> >::_Emplace_reallocate<TechnicalServices::Persistence::Clientprofile>
PUBLIC	??$?0UClientprofile@Persistence@TechnicalServices@@@?$allocator@U_Container_proxy@std@@@std@@QEAA@AEBV?$allocator@UClientprofile@Persistence@TechnicalServices@@@1@@Z ; std::allocator<std::_Container_proxy>::allocator<std::_Container_proxy><TechnicalServices::Persistence::Clientprofile>
PUBLIC	??$exchange@PEAU_Container_proxy@std@@$$T@std@@YAPEAU_Container_proxy@0@AEAPEAU10@$$QEA$$T@Z ; std::exchange<std::_Container_proxy *,std::nullptr_t>
PUBLIC	??$addressof@$$CBV?$vector@UClient@Persistence@TechnicalServices@@V?$allocator@UClient@Persistence@TechnicalServices@@@std@@@std@@@std@@YAPEBV?$vector@UClient@Persistence@TechnicalServices@@V?$allocator@UClient@Persistence@TechnicalServices@@@std@@@0@AEBV10@@Z ; std::addressof<std::vector<TechnicalServices::Persistence::Client,std::allocator<TechnicalServices::Persistence::Client> > const >
PUBLIC	??$?0UClient@Persistence@TechnicalServices@@@?$allocator@U_Container_proxy@std@@@std@@QEAA@AEBV?$allocator@UClient@Persistence@TechnicalServices@@@1@@Z ; std::allocator<std::_Container_proxy>::allocator<std::_Container_proxy><TechnicalServices::Persistence::Client>
PUBLIC	??$addressof@V?$vector@UClient@Persistence@TechnicalServices@@V?$allocator@UClient@Persistence@TechnicalServices@@@std@@@std@@@std@@YAPEAV?$vector@UClient@Persistence@TechnicalServices@@V?$allocator@UClient@Persistence@TechnicalServices@@@std@@@0@AEAV10@@Z ; std::addressof<std::vector<TechnicalServices::Persistence::Client,std::allocator<TechnicalServices::Persistence::Client> > >
PUBLIC	??0_Sentry_base@?$basic_istream@DU?$char_traits@D@std@@@std@@QEAA@AEAV12@@Z ; std::basic_istream<char,std::char_traits<char> >::_Sentry_base::_Sentry_base
PUBLIC	??1_Sentry_base@?$basic_istream@DU?$char_traits@D@std@@@std@@QEAA@XZ ; std::basic_istream<char,std::char_traits<char> >::_Sentry_base::~_Sentry_base
PUBLIC	??0sentry@?$basic_istream@DU?$char_traits@D@std@@@std@@QEAA@AEAV12@_N@Z ; std::basic_istream<char,std::char_traits<char> >::sentry::sentry
PUBLIC	??Bsentry@?$basic_istream@DU?$char_traits@D@std@@@std@@QEBA_NXZ ; std::basic_istream<char,std::char_traits<char> >::sentry::operator bool
PUBLIC	??1sentry@?$basic_istream@DU?$char_traits@D@std@@@std@@QEAA@XZ ; std::basic_istream<char,std::char_traits<char> >::sentry::~sentry
PUBLIC	??0_Sentry_base@?$basic_ostream@DU?$char_traits@D@std@@@std@@QEAA@AEAV12@@Z ; std::basic_ostream<char,std::char_traits<char> >::_Sentry_base::_Sentry_base
PUBLIC	??1_Sentry_base@?$basic_ostream@DU?$char_traits@D@std@@@std@@QEAA@XZ ; std::basic_ostream<char,std::char_traits<char> >::_Sentry_base::~_Sentry_base
PUBLIC	??0sentry@?$basic_ostream@DU?$char_traits@D@std@@@std@@QEAA@AEAV12@@Z ; std::basic_ostream<char,std::char_traits<char> >::sentry::sentry
PUBLIC	??1sentry@?$basic_ostream@DU?$char_traits@D@std@@@std@@QEAA@XZ ; std::basic_ostream<char,std::char_traits<char> >::sentry::~sentry
PUBLIC	??Bsentry@?$basic_ostream@DU?$char_traits@D@std@@@std@@QEBA_NXZ ; std::basic_ostream<char,std::char_traits<char> >::sentry::operator bool
PUBLIC	??$move@AEAV?$basic_string@DU?$char_traits@D@std@@V?$allocator@D@2@@std@@@std@@YA$$QEAV?$basic_string@DU?$char_traits@D@std@@V?$allocator@D@2@@0@AEAV10@@Z ; std::move<std::basic_string<char,std::char_traits<char>,std::allocator<char> > &>
PUBLIC	??$min@_K@std@@YAAEB_KAEB_K0@Z			; std::min<unsigned __int64>
PUBLIC	??$?0V?$basic_string@DU?$char_traits@D@std@@V?$allocator@D@2@@std@@@?$allocator@U_Container_proxy@std@@@std@@QEAA@AEBV?$allocator@V?$basic_string@DU?$char_traits@D@std@@V?$allocator@D@2@@std@@@1@@Z ; std::allocator<std::_Container_proxy>::allocator<std::_Container_proxy><std::basic_string<char,std::char_traits<char>,std::allocator<char> > >
PUBLIC	??$?0AEBV?$allocator@V?$basic_string@DU?$char_traits@D@std@@V?$allocator@D@2@@std@@@std@@$$V@?$_Compressed_pair@V?$allocator@V?$basic_string@DU?$char_traits@D@std@@V?$allocator@D@2@@std@@@std@@V?$_Vector_val@U?$_Simple_types@V?$basic_string@DU?$char_traits@D@std@@V?$allocator@D@2@@std@@@std@@@2@$00@std@@QEAA@U_One_then_variadic_args_t@1@AEBV?$allocator@V?$basic_string@DU?$char_traits@D@std@@V?$allocator@D@2@@std@@@1@@Z ; std::_Compressed_pair<std::allocator<std::basic_string<char,std::char_traits<char>,std::allocator<char> > >,std::_Vector_val<std::_Simple_types<std::basic_string<char,std::char_traits<char>,std::allocator<char> > > >,1>::_Compressed_pair<std::allocator<std::basic_string<char,std::char_traits<char>,std::allocator<char> > >,std::_Vector_val<std::_Simple_types<std::basic_string<char,std::char_traits<char>,std::allocator<char> > > >,1><std::allocator<std::basic_string<char,std::char_traits<char>,std::allocator<char> > > const &>
PUBLIC	??0?$_Container_proxy_ptr12@V?$allocator@U_Container_proxy@std@@@std@@@std@@QEAA@AEAV?$allocator@U_Container_proxy@std@@@1@AEAU_Container_base12@1@@Z ; std::_Container_proxy_ptr12<std::allocator<std::_Container_proxy> >::_Container_proxy_ptr12<std::allocator<std::_Container_proxy> >
PUBLIC	??1?$_Container_proxy_ptr12@V?$allocator@U_Container_proxy@std@@@std@@@std@@QEAA@XZ ; std::_Container_proxy_ptr12<std::allocator<std::_Container_proxy> >::~_Container_proxy_ptr12<std::allocator<std::_Container_proxy> >
PUBLIC	??$_Range_construct_or_tidy@PEBV?$basic_string@DU?$char_traits@D@std@@V?$allocator@D@2@@std@@@?$vector@V?$basic_string@DU?$char_traits@D@std@@V?$allocator@D@2@@std@@V?$allocator@V?$basic_string@DU?$char_traits@D@std@@V?$allocator@D@2@@std@@@2@@std@@AEAAXPEBV?$basic_string@DU?$char_traits@D@std@@V?$allocator@D@2@@1@0Uforward_iterator_tag@1@@Z ; std::vector<std::basic_string<char,std::char_traits<char>,std::allocator<char> >,std::allocator<std::basic_string<char,std::char_traits<char>,std::allocator<char> > > >::_Range_construct_or_tidy<std::basic_string<char,std::char_traits<char>,std::allocator<char> > const *>
PUBLIC	??$_Construct_n_copies_of_ty@U_Value_init_tag@std@@@?$vector@V?$basic_string@DU?$char_traits@D@std@@V?$allocator@D@2@@std@@V?$allocator@V?$basic_string@DU?$char_traits@D@std@@V?$allocator@D@2@@std@@@2@@std@@AEAAX_KAEBU_Value_init_tag@1@@Z ; std::vector<std::basic_string<char,std::char_traits<char>,std::allocator<char> >,std::allocator<std::basic_string<char,std::char_traits<char>,std::allocator<char> > > >::_Construct_n_copies_of_ty<std::_Value_init_tag>
PUBLIC	??$?0$$V@?$_Compressed_pair@V?$allocator@V?$basic_string@DU?$char_traits@D@std@@V?$allocator@D@2@@std@@@std@@V?$_Vector_val@U?$_Simple_types@V?$basic_string@DU?$char_traits@D@std@@V?$allocator@D@2@@std@@@std@@@2@$00@std@@QEAA@U_Zero_then_variadic_args_t@1@@Z ; std::_Compressed_pair<std::allocator<std::basic_string<char,std::char_traits<char>,std::allocator<char> > >,std::_Vector_val<std::_Simple_types<std::basic_string<char,std::char_traits<char>,std::allocator<char> > > >,1>::_Compressed_pair<std::allocator<std::basic_string<char,std::char_traits<char>,std::allocator<char> > >,std::_Vector_val<std::_Simple_types<std::basic_string<char,std::char_traits<char>,std::allocator<char> > > >,1><>
PUBLIC	??$_Alloc_proxy@V?$allocator@U_Container_proxy@std@@@std@@@_Container_base12@std@@QEAAX$$QEAV?$allocator@U_Container_proxy@std@@@1@@Z ; std::_Container_base12::_Alloc_proxy<std::allocator<std::_Container_proxy> >
PUBLIC	??$addressof@$$CBV?$basic_string@DU?$char_traits@D@std@@V?$allocator@D@2@@std@@@std@@YAPEBV?$basic_string@DU?$char_traits@D@std@@V?$allocator@D@2@@0@AEBV10@@Z ; std::addressof<std::basic_string<char,std::char_traits<char>,std::allocator<char> > const >
PUBLIC	??$?0D@?$allocator@U_Container_proxy@std@@@std@@QEAA@AEBV?$allocator@D@1@@Z ; std::allocator<std::_Container_proxy>::allocator<std::_Container_proxy><char>
PUBLIC	??$addressof@V?$basic_string@DU?$char_traits@D@std@@V?$allocator@D@2@@std@@@std@@YAPEAV?$basic_string@DU?$char_traits@D@std@@V?$allocator@D@2@@0@AEAV10@@Z ; std::addressof<std::basic_string<char,std::char_traits<char>,std::allocator<char> > >
PUBLIC	??$move@AEAV?$allocator@D@std@@@std@@YA$$QEAV?$allocator@D@0@AEAV10@@Z ; std::move<std::allocator<char> &>
PUBLIC	??$?0V?$allocator@D@std@@$$V@?$_Compressed_pair@V?$allocator@D@std@@V?$_String_val@U?$_Simple_types@D@std@@@2@$00@std@@QEAA@U_One_then_variadic_args_t@1@$$QEAV?$allocator@D@1@@Z ; std::_Compressed_pair<std::allocator<char>,std::_String_val<std::_Simple_types<char> >,1>::_Compressed_pair<std::allocator<char>,std::_String_val<std::_Simple_types<char> >,1><std::allocator<char> >
PUBLIC	??$?0$$V@?$_Compressed_pair@V?$allocator@D@std@@V?$_String_val@U?$_Simple_types@D@std@@@2@$00@std@@QEAA@U_Zero_then_variadic_args_t@1@@Z ; std::_Compressed_pair<std::allocator<char>,std::_String_val<std::_Simple_types<char> >,1>::_Compressed_pair<std::allocator<char>,std::_String_val<std::_Simple_types<char> >,1><>
PUBLIC	??$_Unfancy@U_Container_proxy@std@@@std@@YAPEAU_Container_proxy@0@PEAU10@@Z ; std::_Unfancy<std::_Container_proxy>
PUBLIC	??$_Pocca@V?$allocator@UClientprofile@Persistence@TechnicalServices@@@std@@@std@@YAXAEAV?$allocator@UClientprofile@Persistence@TechnicalServices@@@0@AEBV10@@Z ; std::_Pocca<std::allocator<TechnicalServices::Persistence::Clientprofile> >
PUBLIC	??$assign@PEAUClientprofile@Persistence@TechnicalServices@@$0A@@?$vector@UClientprofile@Persistence@TechnicalServices@@V?$allocator@UClientprofile@Persistence@TechnicalServices@@@std@@@std@@QEAAXPEAUClientprofile@Persistence@TechnicalServices@@0@Z ; std::vector<TechnicalServices::Persistence::Clientprofile,std::allocator<TechnicalServices::Persistence::Clientprofile> >::assign<TechnicalServices::Persistence::Clientprofile *,0>
PUBLIC	??$_Pocca@V?$allocator@UClient@Persistence@TechnicalServices@@@std@@@std@@YAXAEAV?$allocator@UClient@Persistence@TechnicalServices@@@0@AEBV10@@Z ; std::_Pocca<std::allocator<TechnicalServices::Persistence::Client> >
PUBLIC	??$assign@PEAUClient@Persistence@TechnicalServices@@$0A@@?$vector@UClient@Persistence@TechnicalServices@@V?$allocator@UClient@Persistence@TechnicalServices@@@std@@@std@@QEAAXPEAUClient@Persistence@TechnicalServices@@0@Z ; std::vector<TechnicalServices::Persistence::Client,std::allocator<TechnicalServices::Persistence::Client> >::assign<TechnicalServices::Persistence::Client *,0>
PUBLIC	??$_Pocma@V?$allocator@UClient@Persistence@TechnicalServices@@@std@@@std@@YAXAEAV?$allocator@UClient@Persistence@TechnicalServices@@@0@0@Z ; std::_Pocma<std::allocator<TechnicalServices::Persistence::Client> >
PUBLIC	??$_Destroy_in_place@PEAD@std@@YAXAEAPEAD@Z	; std::_Destroy_in_place<char *>
PUBLIC	??R<lambda_319d5e083f45f90dcdce5dce53cbb275>@@QEBA@QEADQEBD_KD@Z ; <lambda_319d5e083f45f90dcdce5dce53cbb275>::operator()
PUBLIC	??$_Reallocate_grow_by@V<lambda_319d5e083f45f90dcdce5dce53cbb275>@@D@?$basic_string@DU?$char_traits@D@std@@V?$allocator@D@2@@std@@AEAAAEAV01@_KV<lambda_319d5e083f45f90dcdce5dce53cbb275>@@D@Z ; std::basic_string<char,std::char_traits<char>,std::allocator<char> >::_Reallocate_grow_by<<lambda_319d5e083f45f90dcdce5dce53cbb275>,char>
PUBLIC	??R<lambda_66f57f934f28d61049862f64df852ff0>@@QEBA@QEAD_KQEBD@Z ; <lambda_66f57f934f28d61049862f64df852ff0>::operator()
PUBLIC	??$_Reallocate_for@V<lambda_66f57f934f28d61049862f64df852ff0>@@PEBD@?$basic_string@DU?$char_traits@D@std@@V?$allocator@D@2@@std@@AEAAAEAV01@_KV<lambda_66f57f934f28d61049862f64df852ff0>@@PEBD@Z ; std::basic_string<char,std::char_traits<char>,std::allocator<char> >::_Reallocate_for<<lambda_66f57f934f28d61049862f64df852ff0>,char const *>
PUBLIC	??R<lambda_65e615be2a453ca0576c979606f46740>@@QEBA@QEADQEBD_K12@Z ; <lambda_65e615be2a453ca0576c979606f46740>::operator()
PUBLIC	??$_Reallocate_grow_by@V<lambda_65e615be2a453ca0576c979606f46740>@@PEBD_K@?$basic_string@DU?$char_traits@D@std@@V?$allocator@D@2@@std@@AEAAAEAV01@_KV<lambda_65e615be2a453ca0576c979606f46740>@@PEBD_K@Z ; std::basic_string<char,std::char_traits<char>,std::allocator<char> >::_Reallocate_grow_by<<lambda_65e615be2a453ca0576c979606f46740>,char const *,unsigned __int64>
PUBLIC	??$_Pocca@V?$allocator@D@std@@@std@@YAXAEAV?$allocator@D@0@AEBV10@@Z ; std::_Pocca<std::allocator<char> >
PUBLIC	??$_Construct_in_place@PEADAEBQEAD@std@@YAXAEAPEADAEBQEAD@Z ; std::_Construct_in_place<char *,char * const &>
PUBLIC	??$_Unfancy@D@std@@YAPEADPEAD@Z			; std::_Unfancy<char>
PUBLIC	??$_Pocma@V?$allocator@D@std@@@std@@YAXAEAV?$allocator@D@0@0@Z ; std::_Pocma<std::allocator<char> >
PUBLIC	??$max@_K@std@@YAAEB_KAEB_K0@Z			; std::max<unsigned __int64>
PUBLIC	??$_Get_size_of_n@$0BA@@std@@YA_K_K@Z		; std::_Get_size_of_n<16>
PUBLIC	??$_Allocate@$0BA@U_Default_allocate_traits@std@@$0A@@std@@YAPEAX_K@Z ; std::_Allocate<16,std::_Default_allocate_traits,0>
PUBLIC	??$_Destroy_range@V?$allocator@UClientprofile@Persistence@TechnicalServices@@@std@@@std@@YAXPEAUClientprofile@Persistence@TechnicalServices@@QEAU123@AEAV?$allocator@UClientprofile@Persistence@TechnicalServices@@@0@@Z ; std::_Destroy_range<std::allocator<TechnicalServices::Persistence::Clientprofile> >
PUBLIC	??$_Deallocate@$0BA@$0A@@std@@YAXPEAX_K@Z	; std::_Deallocate<16,0>
PUBLIC	??$_Destroy_range@V?$allocator@UClient@Persistence@TechnicalServices@@@std@@@std@@YAXPEAUClient@Persistence@TechnicalServices@@QEAU123@AEAV?$allocator@UClient@Persistence@TechnicalServices@@@0@@Z ; std::_Destroy_range<std::allocator<TechnicalServices::Persistence::Client> >
PUBLIC	??$_Destroy_range@V?$allocator@V?$basic_string@DU?$char_traits@D@std@@V?$allocator@D@2@@std@@@std@@@std@@YAXPEAV?$basic_string@DU?$char_traits@D@std@@V?$allocator@D@2@@0@QEAV10@AEAV?$allocator@V?$basic_string@DU?$char_traits@D@std@@V?$allocator@D@2@@std@@@0@@Z ; std::_Destroy_range<std::allocator<std::basic_string<char,std::char_traits<char>,std::allocator<char> > > >
PUBLIC	??$addressof@V?$_String_val@U?$_Simple_types@D@std@@@std@@@std@@YAPEAV?$_String_val@U?$_Simple_types@D@std@@@0@AEAV10@@Z ; std::addressof<std::_String_val<std::_Simple_types<char> > >
PUBLIC	??$addressof@$$CBV?$_String_val@U?$_Simple_types@D@std@@@std@@@std@@YAPEBV?$_String_val@U?$_Simple_types@D@std@@@0@AEBV10@@Z ; std::addressof<std::_String_val<std::_Simple_types<char> > const >
PUBLIC	??$_Get_size_of_n@$00@std@@YA_K_K@Z		; std::_Get_size_of_n<1>
PUBLIC	??$addressof@U_Container_proxy@std@@@std@@YAPEAU_Container_proxy@0@AEAU10@@Z ; std::addressof<std::_Container_proxy>
PUBLIC	??$forward@PEAU_Container_base12@std@@@std@@YA$$QEAPEAU_Container_base12@0@AEAPEAU10@@Z ; std::forward<std::_Container_base12 *>
PUBLIC	??$end@D$0BF@@std@@YAPEADAEAY0BF@D@Z		; std::end<char,21>
PUBLIC	??$_UIntegral_to_buff@DI@std@@YAPEADPEADI@Z	; std::_UIntegral_to_buff<char,unsigned int>
PUBLIC	??$?0PEAD$0A@@?$basic_string@DU?$char_traits@D@std@@V?$allocator@D@2@@std@@QEAA@PEAD0AEBV?$allocator@D@1@@Z ; std::basic_string<char,std::char_traits<char>,std::allocator<char> >::basic_string<char,std::char_traits<char>,std::allocator<char> ><char *,0>
PUBLIC	??$_UIntegral_to_buff@D_K@std@@YAPEADPEAD_K@Z	; std::_UIntegral_to_buff<char,unsigned __int64>
PUBLIC	??$_Verify_range@D@std@@YAXQEBD0@Z		; std::_Verify_range<char>
PUBLIC	??R?$default_delete@V_Facet_base@std@@@std@@QEBAXPEAV_Facet_base@1@@Z ; std::default_delete<std::_Facet_base>::operator()
PUBLIC	??1?$unique_ptr@V_Facet_base@std@@U?$default_delete@V_Facet_base@std@@@2@@std@@QEAA@XZ ; std::unique_ptr<std::_Facet_base,std::default_delete<std::_Facet_base> >::~unique_ptr<std::_Facet_base,std::default_delete<std::_Facet_base> >
PUBLIC	?release@?$unique_ptr@V_Facet_base@std@@U?$default_delete@V_Facet_base@std@@@2@@std@@QEAAPEAV_Facet_base@2@XZ ; std::unique_ptr<std::_Facet_base,std::default_delete<std::_Facet_base> >::release
PUBLIC	?_Get_first@?$_Compressed_pair@U?$default_delete@V_Facet_base@std@@@std@@PEAV_Facet_base@2@$00@std@@QEAAAEAU?$default_delete@V_Facet_base@std@@@2@XZ ; std::_Compressed_pair<std::default_delete<std::_Facet_base>,std::_Facet_base *,1>::_Get_first
PUBLIC	?__autoclassinit2@?$unique_ptr@V_Facet_base@std@@U?$default_delete@V_Facet_base@std@@@2@@std@@QEAAX_K@Z ; std::unique_ptr<std::_Facet_base,std::default_delete<std::_Facet_base> >::__autoclassinit2
PUBLIC	??$?0U?$default_delete@V_Facet_base@std@@@std@@$0A@@?$unique_ptr@V_Facet_base@std@@U?$default_delete@V_Facet_base@std@@@2@@std@@QEAA@PEAV_Facet_base@1@@Z ; std::unique_ptr<std::_Facet_base,std::default_delete<std::_Facet_base> >::unique_ptr<std::_Facet_base,std::default_delete<std::_Facet_base> ><std::default_delete<std::_Facet_base>,0>
PUBLIC	??$?0$$V@?$_Compressed_pair@U?$default_delete@VProductHandler@Product@Domain@@@std@@PEAVProductHandler@Product@Domain@@$00@std@@QEAA@U_Zero_then_variadic_args_t@1@@Z ; std::_Compressed_pair<std::default_delete<Domain::Product::ProductHandler>,Domain::Product::ProductHandler *,1>::_Compressed_pair<std::default_delete<Domain::Product::ProductHandler>,Domain::Product::ProductHandler *,1><>
PUBLIC	??$?0$$V@?$_Compressed_pair@U?$default_delete@VSaleHandler@Sale@Domain@@@std@@PEAVSaleHandler@Sale@Domain@@$00@std@@QEAA@U_Zero_then_variadic_args_t@1@@Z ; std::_Compressed_pair<std::default_delete<Domain::Sale::SaleHandler>,Domain::Sale::SaleHandler *,1>::_Compressed_pair<std::default_delete<Domain::Sale::SaleHandler>,Domain::Sale::SaleHandler *,1><>
PUBLIC	??$?0$$V@?$_Compressed_pair@U?$default_delete@VSessionHandler@Session@Domain@@@std@@PEAVSessionHandler@Session@Domain@@$00@std@@QEAA@U_Zero_then_variadic_args_t@1@@Z ; std::_Compressed_pair<std::default_delete<Domain::Session::SessionHandler>,Domain::Session::SessionHandler *,1>::_Compressed_pair<std::default_delete<Domain::Session::SessionHandler>,Domain::Session::SessionHandler *,1><>
PUBLIC	??$move@AEAV?$basic_istream@DU?$char_traits@D@std@@@std@@@std@@YA$$QEAV?$basic_istream@DU?$char_traits@D@std@@@0@AEAV10@@Z ; std::move<std::basic_istream<char,std::char_traits<char> > &>
PUBLIC	??$getline@DU?$char_traits@D@std@@V?$allocator@D@2@@std@@YAAEAV?$basic_istream@DU?$char_traits@D@std@@@0@$$QEAV10@AEAV?$basic_string@DU?$char_traits@D@std@@V?$allocator@D@2@@0@D@Z ; std::getline<char,std::char_traits<char>,std::allocator<char> >
PUBLIC	??$addressof@V?$unique_ptr@VSessionHandler@Session@Domain@@U?$default_delete@VSessionHandler@Session@Domain@@@std@@@std@@@std@@YAPEAV?$unique_ptr@VSessionHandler@Session@Domain@@U?$default_delete@VSessionHandler@Session@Domain@@@std@@@0@AEAV10@@Z ; std::addressof<std::unique_ptr<Domain::Session::SessionHandler,std::default_delete<Domain::Session::SessionHandler> > >
PUBLIC	??$forward@U?$default_delete@VSessionHandler@Session@Domain@@@std@@@std@@YA$$QEAU?$default_delete@VSessionHandler@Session@Domain@@@0@AEAU10@@Z ; std::forward<std::default_delete<Domain::Session::SessionHandler> >
PUBLIC	??$?8VSessionHandler@Session@Domain@@U?$default_delete@VSessionHandler@Session@Domain@@@std@@@std@@YA_NAEBV?$unique_ptr@VSessionHandler@Session@Domain@@U?$default_delete@VSessionHandler@Session@Domain@@@std@@@0@$$T@Z ; std::operator==<Domain::Session::SessionHandler,std::default_delete<Domain::Session::SessionHandler> >
PUBLIC	??$_Insert_string@DU?$char_traits@D@std@@_K@std@@YAAEAV?$basic_ostream@DU?$char_traits@D@std@@@0@AEAV10@QEBD_K@Z ; std::_Insert_string<char,std::char_traits<char>,unsigned __int64>
PUBLIC	??$?0$$V@?$_Compressed_pair@U?$default_delete@VClientHandler@Client@Domain@@@std@@PEAVClientHandler@Client@Domain@@$00@std@@QEAA@U_Zero_then_variadic_args_t@1@@Z ; std::_Compressed_pair<std::default_delete<Domain::Client::ClientHandler>,Domain::Client::ClientHandler *,1>::_Compressed_pair<std::default_delete<Domain::Client::ClientHandler>,Domain::Client::ClientHandler *,1><>
PUBLIC	??$addressof@V?$unique_ptr@VClientHandler@Client@Domain@@U?$default_delete@VClientHandler@Client@Domain@@@std@@@std@@@std@@YAPEAV?$unique_ptr@VClientHandler@Client@Domain@@U?$default_delete@VClientHandler@Client@Domain@@@std@@@0@AEAV10@@Z ; std::addressof<std::unique_ptr<Domain::Client::ClientHandler,std::default_delete<Domain::Client::ClientHandler> > >
PUBLIC	??$forward@U?$default_delete@VClientHandler@Client@Domain@@@std@@@std@@YA$$QEAU?$default_delete@VClientHandler@Client@Domain@@@0@AEAU10@@Z ; std::forward<std::default_delete<Domain::Client::ClientHandler> >
PUBLIC	??$?8VClientHandler@Client@Domain@@U?$default_delete@VClientHandler@Client@Domain@@@std@@@std@@YA_NAEBV?$unique_ptr@VClientHandler@Client@Domain@@U?$default_delete@VClientHandler@Client@Domain@@@std@@@0@$$T@Z ; std::operator==<Domain::Client::ClientHandler,std::default_delete<Domain::Client::ClientHandler> >
PUBLIC	??$any_cast@V?$vector@UClient@Persistence@TechnicalServices@@V?$allocator@UClient@Persistence@TechnicalServices@@@std@@@std@@@std@@YAPEAV?$vector@UClient@Persistence@TechnicalServices@@V?$allocator@UClient@Persistence@TechnicalServices@@@std@@@0@QEAVany@0@@Z ; std::any_cast<std::vector<TechnicalServices::Persistence::Client,std::allocator<TechnicalServices::Persistence::Client> > >
PUBLIC	??$any_cast@V?$vector@UClientprofile@Persistence@TechnicalServices@@V?$allocator@UClientprofile@Persistence@TechnicalServices@@@std@@@std@@@std@@YAPEAV?$vector@UClientprofile@Persistence@TechnicalServices@@V?$allocator@UClientprofile@Persistence@TechnicalServices@@@std@@@0@QEAVany@0@@Z ; std::any_cast<std::vector<TechnicalServices::Persistence::Clientprofile,std::allocator<TechnicalServices::Persistence::Clientprofile> > >
PUBLIC	??$any_cast@UClientprofile@Persistence@TechnicalServices@@@std@@YAPEAUClientprofile@Persistence@TechnicalServices@@QEAVany@0@@Z ; std::any_cast<TechnicalServices::Persistence::Clientprofile>
PUBLIC	??$addressof@V?$unique_ptr@VProductHandler@Product@Domain@@U?$default_delete@VProductHandler@Product@Domain@@@std@@@std@@@std@@YAPEAV?$unique_ptr@VProductHandler@Product@Domain@@U?$default_delete@VProductHandler@Product@Domain@@@std@@@0@AEAV10@@Z ; std::addressof<std::unique_ptr<Domain::Product::ProductHandler,std::default_delete<Domain::Product::ProductHandler> > >
PUBLIC	??$forward@U?$default_delete@VProductHandler@Product@Domain@@@std@@@std@@YA$$QEAU?$default_delete@VProductHandler@Product@Domain@@@0@AEAU10@@Z ; std::forward<std::default_delete<Domain::Product::ProductHandler> >
PUBLIC	??$?8VProductHandler@Product@Domain@@U?$default_delete@VProductHandler@Product@Domain@@@std@@@std@@YA_NAEBV?$unique_ptr@VProductHandler@Product@Domain@@U?$default_delete@VProductHandler@Product@Domain@@@std@@@0@$$T@Z ; std::operator==<Domain::Product::ProductHandler,std::default_delete<Domain::Product::ProductHandler> >
PUBLIC	??$addressof@V?$unique_ptr@VSaleHandler@Sale@Domain@@U?$default_delete@VSaleHandler@Sale@Domain@@@std@@@std@@@std@@YAPEAV?$unique_ptr@VSaleHandler@Sale@Domain@@U?$default_delete@VSaleHandler@Sale@Domain@@@std@@@0@AEAV10@@Z ; std::addressof<std::unique_ptr<Domain::Sale::SaleHandler,std::default_delete<Domain::Sale::SaleHandler> > >
PUBLIC	??$forward@U?$default_delete@VSaleHandler@Sale@Domain@@@std@@@std@@YA$$QEAU?$default_delete@VSaleHandler@Sale@Domain@@@0@AEAU10@@Z ; std::forward<std::default_delete<Domain::Sale::SaleHandler> >
PUBLIC	??$?8VSaleHandler@Sale@Domain@@U?$default_delete@VSaleHandler@Sale@Domain@@@std@@@std@@YA_NAEBV?$unique_ptr@VSaleHandler@Sale@Domain@@U?$default_delete@VSaleHandler@Sale@Domain@@@std@@@0@$$T@Z ; std::operator==<Domain::Sale::SaleHandler,std::default_delete<Domain::Sale::SaleHandler> >
PUBLIC	??$_Deallocate_plain@V?$allocator@U_Container_proxy@std@@@std@@@std@@YAXAEAV?$allocator@U_Container_proxy@std@@@0@QEAU_Container_proxy@0@@Z ; std::_Deallocate_plain<std::allocator<std::_Container_proxy> >
PUBLIC	??$_Get_unwrapped@AEAPEAD@std@@YA@AEAPEAD@Z	; std::_Get_unwrapped<char * &>
PUBLIC	??$forward@AEBV?$allocator@V?$basic_string@DU?$char_traits@D@std@@V?$allocator@D@2@@std@@@std@@@std@@YAAEBV?$allocator@V?$basic_string@DU?$char_traits@D@std@@V?$allocator@D@2@@std@@@0@AEBV10@@Z ; std::forward<std::allocator<std::basic_string<char,std::char_traits<char>,std::allocator<char> > > const &>
PUBLIC	??$distance@PEBV?$basic_string@DU?$char_traits@D@std@@V?$allocator@D@2@@std@@@std@@YA_JPEBV?$basic_string@DU?$char_traits@D@std@@V?$allocator@D@2@@0@0@Z ; std::distance<std::basic_string<char,std::char_traits<char>,std::allocator<char> > const *>
PUBLIC	??1?$_Tidy_guard@V?$vector@V?$basic_string@DU?$char_traits@D@std@@V?$allocator@D@2@@std@@V?$allocator@V?$basic_string@DU?$char_traits@D@std@@V?$allocator@D@2@@std@@@2@@std@@@std@@QEAA@XZ ; std::_Tidy_guard<std::vector<std::basic_string<char,std::char_traits<char>,std::allocator<char> >,std::allocator<std::basic_string<char,std::char_traits<char>,std::allocator<char> > > > >::~_Tidy_guard<std::vector<std::basic_string<char,std::char_traits<char>,std::allocator<char> >,std::allocator<std::basic_string<char,std::char_traits<char>,std::allocator<char> > > > >
PUBLIC	??$_Ucopy@PEBV?$basic_string@DU?$char_traits@D@std@@V?$allocator@D@2@@std@@@?$vector@V?$basic_string@DU?$char_traits@D@std@@V?$allocator@D@2@@std@@V?$allocator@V?$basic_string@DU?$char_traits@D@std@@V?$allocator@D@2@@std@@@2@@std@@AEAAPEAV?$basic_string@DU?$char_traits@D@std@@V?$allocator@D@2@@1@PEBV21@0PEAV21@@Z ; std::vector<std::basic_string<char,std::char_traits<char>,std::allocator<char> >,std::allocator<std::basic_string<char,std::char_traits<char>,std::allocator<char> > > >::_Ucopy<std::basic_string<char,std::char_traits<char>,std::allocator<char> > const *>
PUBLIC	??$forward@V?$allocator@D@std@@@std@@YA$$QEAV?$allocator@D@0@AEAV10@@Z ; std::forward<std::allocator<char> >
PUBLIC	??$_Adl_verify_range@PEAUClientprofile@Persistence@TechnicalServices@@PEAU123@@std@@YAXAEBQEAUClientprofile@Persistence@TechnicalServices@@0@Z ; std::_Adl_verify_range<TechnicalServices::Persistence::Clientprofile *,TechnicalServices::Persistence::Clientprofile *>
PUBLIC	??$_Get_unwrapped@AEAPEAUClientprofile@Persistence@TechnicalServices@@@std@@YA@AEAPEAUClientprofile@Persistence@TechnicalServices@@@Z ; std::_Get_unwrapped<TechnicalServices::Persistence::Clientprofile * &>
PUBLIC	??$_Assign_range@PEAUClientprofile@Persistence@TechnicalServices@@@?$vector@UClientprofile@Persistence@TechnicalServices@@V?$allocator@UClientprofile@Persistence@TechnicalServices@@@std@@@std@@AEAAXPEAUClientprofile@Persistence@TechnicalServices@@0Uforward_iterator_tag@1@@Z ; std::vector<TechnicalServices::Persistence::Clientprofile,std::allocator<TechnicalServices::Persistence::Clientprofile> >::_Assign_range<TechnicalServices::Persistence::Clientprofile *>
PUBLIC	??$_Adl_verify_range@PEAUClient@Persistence@TechnicalServices@@PEAU123@@std@@YAXAEBQEAUClient@Persistence@TechnicalServices@@0@Z ; std::_Adl_verify_range<TechnicalServices::Persistence::Client *,TechnicalServices::Persistence::Client *>
PUBLIC	??$_Get_unwrapped@AEAPEAUClient@Persistence@TechnicalServices@@@std@@YA@AEAPEAUClient@Persistence@TechnicalServices@@@Z ; std::_Get_unwrapped<TechnicalServices::Persistence::Client * &>
PUBLIC	??$_Assign_range@PEAUClient@Persistence@TechnicalServices@@@?$vector@UClient@Persistence@TechnicalServices@@V?$allocator@UClient@Persistence@TechnicalServices@@@std@@@std@@AEAAXPEAUClient@Persistence@TechnicalServices@@0Uforward_iterator_tag@1@@Z ; std::vector<TechnicalServices::Persistence::Client,std::allocator<TechnicalServices::Persistence::Client> >::_Assign_range<TechnicalServices::Persistence::Client *>
PUBLIC	??$move@AEAV?$allocator@UClient@Persistence@TechnicalServices@@@std@@@std@@YA$$QEAV?$allocator@UClient@Persistence@TechnicalServices@@@0@AEAV10@@Z ; std::move<std::allocator<TechnicalServices::Persistence::Client> &>
PUBLIC	??$addressof@PEAD@std@@YAPEAPEADAEAPEAD@Z	; std::addressof<char *>
PUBLIC	??$forward@AEBQEAD@std@@YAAEBQEADAEBQEAD@Z	; std::forward<char * const &>
PUBLIC	??$_Allocate_manually_vector_aligned@U_Default_allocate_traits@std@@@std@@YAPEAX_K@Z ; std::_Allocate_manually_vector_aligned<std::_Default_allocate_traits>
PUBLIC	??$destroy@UClientprofile@Persistence@TechnicalServices@@@?$_Default_allocator_traits@V?$allocator@UClientprofile@Persistence@TechnicalServices@@@std@@@std@@SAXAEAV?$allocator@UClientprofile@Persistence@TechnicalServices@@@1@QEAUClientprofile@Persistence@TechnicalServices@@@Z ; std::_Default_allocator_traits<std::allocator<TechnicalServices::Persistence::Clientprofile> >::destroy<TechnicalServices::Persistence::Clientprofile>
PUBLIC	??$_Unfancy@UClient@Persistence@TechnicalServices@@@std@@YAPEAUClient@Persistence@TechnicalServices@@PEAU123@@Z ; std::_Unfancy<TechnicalServices::Persistence::Client>
PUBLIC	??$destroy@UClient@Persistence@TechnicalServices@@@?$_Default_allocator_traits@V?$allocator@UClient@Persistence@TechnicalServices@@@std@@@std@@SAXAEAV?$allocator@UClient@Persistence@TechnicalServices@@@1@QEAUClient@Persistence@TechnicalServices@@@Z ; std::_Default_allocator_traits<std::allocator<TechnicalServices::Persistence::Client> >::destroy<TechnicalServices::Persistence::Client>
PUBLIC	??$_Unfancy@V?$basic_string@DU?$char_traits@D@std@@V?$allocator@D@2@@std@@@std@@YAPEAV?$basic_string@DU?$char_traits@D@std@@V?$allocator@D@2@@0@PEAV10@@Z ; std::_Unfancy<std::basic_string<char,std::char_traits<char>,std::allocator<char> > >
PUBLIC	??$destroy@V?$basic_string@DU?$char_traits@D@std@@V?$allocator@D@2@@std@@@?$_Default_allocator_traits@V?$allocator@V?$basic_string@DU?$char_traits@D@std@@V?$allocator@D@2@@std@@@std@@@std@@SAXAEAV?$allocator@V?$basic_string@DU?$char_traits@D@std@@V?$allocator@D@2@@std@@@1@QEAV?$basic_string@DU?$char_traits@D@std@@V?$allocator@D@2@@1@@Z ; std::_Default_allocator_traits<std::allocator<std::basic_string<char,std::char_traits<char>,std::allocator<char> > > >::destroy<std::basic_string<char,std::char_traits<char>,std::allocator<char> > >
PUBLIC	??$exchange@PEAV_Facet_base@std@@PEAV12@@std@@YAPEAV_Facet_base@0@AEAPEAV10@$$QEAPEAV10@@Z ; std::exchange<std::_Facet_base *,std::_Facet_base *>
PUBLIC	??$exchange@PEAVClientHandler@Client@Domain@@AEAPEAV123@@std@@YAPEAVClientHandler@Client@Domain@@AEAPEAV123@0@Z ; std::exchange<Domain::Client::ClientHandler *,Domain::Client::ClientHandler * &>
PUBLIC	??$exchange@PEAVClientHandler@Client@Domain@@PEAV123@@std@@YAPEAVClientHandler@Client@Domain@@AEAPEAV123@$$QEAPEAV123@@Z ; std::exchange<Domain::Client::ClientHandler *,Domain::Client::ClientHandler *>
PUBLIC	??$exchange@PEAVSessionHandler@Session@Domain@@AEAPEAV123@@std@@YAPEAVSessionHandler@Session@Domain@@AEAPEAV123@0@Z ; std::exchange<Domain::Session::SessionHandler *,Domain::Session::SessionHandler * &>
PUBLIC	??$exchange@PEAVSessionHandler@Session@Domain@@PEAV123@@std@@YAPEAVSessionHandler@Session@Domain@@AEAPEAV123@$$QEAPEAV123@@Z ; std::exchange<Domain::Session::SessionHandler *,Domain::Session::SessionHandler *>
PUBLIC	??$_Uninitialized_move@PEAUClientprofile@Persistence@TechnicalServices@@V?$allocator@UClientprofile@Persistence@TechnicalServices@@@std@@@std@@YAPEAUClientprofile@Persistence@TechnicalServices@@QEAU123@0PEAU123@AEAV?$allocator@UClientprofile@Persistence@TechnicalServices@@@0@@Z ; std::_Uninitialized_move<TechnicalServices::Persistence::Clientprofile *,std::allocator<TechnicalServices::Persistence::Clientprofile> >
PUBLIC	??$_Get_size_of_n@$0DI@@std@@YA_K_K@Z		; std::_Get_size_of_n<56>
PUBLIC	??$exchange@PEAVSaleHandler@Sale@Domain@@AEAPEAV123@@std@@YAPEAVSaleHandler@Sale@Domain@@AEAPEAV123@0@Z ; std::exchange<Domain::Sale::SaleHandler *,Domain::Sale::SaleHandler * &>
PUBLIC	??$exchange@PEAVSaleHandler@Sale@Domain@@PEAV123@@std@@YAPEAVSaleHandler@Sale@Domain@@AEAPEAV123@$$QEAPEAV123@@Z ; std::exchange<Domain::Sale::SaleHandler *,Domain::Sale::SaleHandler *>
PUBLIC	??$exchange@PEAVProductHandler@Product@Domain@@AEAPEAV123@@std@@YAPEAVProductHandler@Product@Domain@@AEAPEAV123@0@Z ; std::exchange<Domain::Product::ProductHandler *,Domain::Product::ProductHandler * &>
PUBLIC	??$exchange@PEAVProductHandler@Product@Domain@@PEAV123@@std@@YAPEAVProductHandler@Product@Domain@@AEAPEAV123@$$QEAPEAV123@@Z ; std::exchange<Domain::Product::ProductHandler *,Domain::Product::ProductHandler *>
PUBLIC	??$_Uninitialized_value_construct_n@V?$allocator@V?$basic_string@DU?$char_traits@D@std@@V?$allocator@D@2@@std@@@std@@@std@@YAPEAV?$basic_string@DU?$char_traits@D@std@@V?$allocator@D@2@@0@PEAV10@_KAEAV?$allocator@V?$basic_string@DU?$char_traits@D@std@@V?$allocator@D@2@@std@@@0@@Z ; std::_Uninitialized_value_construct_n<std::allocator<std::basic_string<char,std::char_traits<char>,std::allocator<char> > > >
PUBLIC	??$_Traits_equal@U?$char_traits@D@std@@@std@@YA_NQEBD_K01@Z ; std::_Traits_equal<std::char_traits<char> >
PUBLIC	??R<lambda_f3a66ab6a0570788f31503db83886f49>@@QEBA@QEADQEBD_K212@Z ; <lambda_f3a66ab6a0570788f31503db83886f49>::operator()
PUBLIC	??$_Reallocate_grow_by@V<lambda_f3a66ab6a0570788f31503db83886f49>@@_KPEBD_K@?$basic_string@DU?$char_traits@D@std@@V?$allocator@D@2@@std@@AEAAAEAV01@_KV<lambda_f3a66ab6a0570788f31503db83886f49>@@_KPEBD2@Z ; std::basic_string<char,std::char_traits<char>,std::allocator<char> >::_Reallocate_grow_by<<lambda_f3a66ab6a0570788f31503db83886f49>,unsigned __int64,char const *,unsigned __int64>
PUBLIC	??$_Get_size_of_n@$0CI@@std@@YA_K_K@Z		; std::_Get_size_of_n<40>
PUBLIC	??$?0AEBV?$allocator@D@std@@$$V@?$_Compressed_pair@V?$allocator@D@std@@V?$_String_val@U?$_Simple_types@D@std@@@2@$00@std@@QEAA@U_One_then_variadic_args_t@1@AEBV?$allocator@D@1@@Z ; std::_Compressed_pair<std::allocator<char>,std::_String_val<std::_Simple_types<char> >,1>::_Compressed_pair<std::allocator<char>,std::_String_val<std::_Simple_types<char> >,1><std::allocator<char> const &>
PUBLIC	??$?0AEAPEAV_Facet_base@std@@@?$_Compressed_pair@U?$default_delete@V_Facet_base@std@@@std@@PEAV_Facet_base@2@$00@std@@QEAA@U_Zero_then_variadic_args_t@1@AEAPEAV_Facet_base@1@@Z ; std::_Compressed_pair<std::default_delete<std::_Facet_base>,std::_Facet_base *,1>::_Compressed_pair<std::default_delete<std::_Facet_base>,std::_Facet_base *,1><std::_Facet_base * &>
PUBLIC	??$_Cast@V?$vector@UClient@Persistence@TechnicalServices@@V?$allocator@UClient@Persistence@TechnicalServices@@@std@@@std@@@any@std@@QEAAPEAV?$vector@UClient@Persistence@TechnicalServices@@V?$allocator@UClient@Persistence@TechnicalServices@@@std@@@1@XZ ; std::any::_Cast<std::vector<TechnicalServices::Persistence::Client,std::allocator<TechnicalServices::Persistence::Client> > >
PUBLIC	??$_Cast@V?$vector@UClient@Persistence@TechnicalServices@@V?$allocator@UClient@Persistence@TechnicalServices@@@std@@@std@@@any@std@@QEBAPEBV?$vector@UClient@Persistence@TechnicalServices@@V?$allocator@UClient@Persistence@TechnicalServices@@@std@@@1@XZ ; std::any::_Cast<std::vector<TechnicalServices::Persistence::Client,std::allocator<TechnicalServices::Persistence::Client> > >
PUBLIC	??$_Cast@V?$vector@UClientprofile@Persistence@TechnicalServices@@V?$allocator@UClientprofile@Persistence@TechnicalServices@@@std@@@std@@@any@std@@QEAAPEAV?$vector@UClientprofile@Persistence@TechnicalServices@@V?$allocator@UClientprofile@Persistence@TechnicalServices@@@std@@@1@XZ ; std::any::_Cast<std::vector<TechnicalServices::Persistence::Clientprofile,std::allocator<TechnicalServices::Persistence::Clientprofile> > >
PUBLIC	??$_Cast@V?$vector@UClientprofile@Persistence@TechnicalServices@@V?$allocator@UClientprofile@Persistence@TechnicalServices@@@std@@@std@@@any@std@@QEBAPEBV?$vector@UClientprofile@Persistence@TechnicalServices@@V?$allocator@UClientprofile@Persistence@TechnicalServices@@@std@@@1@XZ ; std::any::_Cast<std::vector<TechnicalServices::Persistence::Clientprofile,std::allocator<TechnicalServices::Persistence::Clientprofile> > >
PUBLIC	??$_Cast@UClientprofile@Persistence@TechnicalServices@@@any@std@@QEAAPEAUClientprofile@Persistence@TechnicalServices@@XZ ; std::any::_Cast<TechnicalServices::Persistence::Clientprofile>
PUBLIC	??$_Cast@UClientprofile@Persistence@TechnicalServices@@@any@std@@QEBAPEBUClientprofile@Persistence@TechnicalServices@@XZ ; std::any::_Cast<TechnicalServices::Persistence::Clientprofile>
PUBLIC	?deallocate@?$_Default_allocator_traits@V?$allocator@U_Container_proxy@std@@@std@@@std@@SAXAEAV?$allocator@U_Container_proxy@std@@@2@QEAU_Container_proxy@2@_K@Z ; std::_Default_allocator_traits<std::allocator<std::_Container_proxy> >::deallocate
PUBLIC	??$_Uninitialized_copy@PEBV?$basic_string@DU?$char_traits@D@std@@V?$allocator@D@2@@std@@V?$allocator@V?$basic_string@DU?$char_traits@D@std@@V?$allocator@D@2@@std@@@2@@std@@YAPEAV?$basic_string@DU?$char_traits@D@std@@V?$allocator@D@2@@0@QEBV10@0PEAV10@AEAV?$allocator@V?$basic_string@DU?$char_traits@D@std@@V?$allocator@D@2@@std@@@0@@Z ; std::_Uninitialized_copy<std::basic_string<char,std::char_traits<char>,std::allocator<char> > const *,std::allocator<std::basic_string<char,std::char_traits<char>,std::allocator<char> > > >
PUBLIC	??$_Verify_range@UClientprofile@Persistence@TechnicalServices@@@std@@YAXQEBUClientprofile@Persistence@TechnicalServices@@0@Z ; std::_Verify_range<TechnicalServices::Persistence::Clientprofile>
PUBLIC	??$distance@PEAUClientprofile@Persistence@TechnicalServices@@@std@@YA_JPEAUClientprofile@Persistence@TechnicalServices@@0@Z ; std::distance<TechnicalServices::Persistence::Clientprofile *>
PUBLIC	??$next@PEAUClientprofile@Persistence@TechnicalServices@@@std@@YAPEAUClientprofile@Persistence@TechnicalServices@@PEAU123@_J@Z ; std::next<TechnicalServices::Persistence::Clientprofile *>
PUBLIC	??$_Copy_unchecked@PEAUClientprofile@Persistence@TechnicalServices@@PEAU123@@std@@YAPEAUClientprofile@Persistence@TechnicalServices@@PEAU123@00@Z ; std::_Copy_unchecked<TechnicalServices::Persistence::Clientprofile *,TechnicalServices::Persistence::Clientprofile *>
PUBLIC	??$_Ucopy@PEAUClientprofile@Persistence@TechnicalServices@@@?$vector@UClientprofile@Persistence@TechnicalServices@@V?$allocator@UClientprofile@Persistence@TechnicalServices@@@std@@@std@@AEAAPEAUClientprofile@Persistence@TechnicalServices@@PEAU234@00@Z ; std::vector<TechnicalServices::Persistence::Clientprofile,std::allocator<TechnicalServices::Persistence::Clientprofile> >::_Ucopy<TechnicalServices::Persistence::Clientprofile *>
PUBLIC	??$_Verify_range@UClient@Persistence@TechnicalServices@@@std@@YAXQEBUClient@Persistence@TechnicalServices@@0@Z ; std::_Verify_range<TechnicalServices::Persistence::Client>
PUBLIC	??$distance@PEAUClient@Persistence@TechnicalServices@@@std@@YA_JPEAUClient@Persistence@TechnicalServices@@0@Z ; std::distance<TechnicalServices::Persistence::Client *>
PUBLIC	??$next@PEAUClient@Persistence@TechnicalServices@@@std@@YAPEAUClient@Persistence@TechnicalServices@@PEAU123@_J@Z ; std::next<TechnicalServices::Persistence::Client *>
PUBLIC	??$_Copy_unchecked@PEAUClient@Persistence@TechnicalServices@@PEAU123@@std@@YAPEAUClient@Persistence@TechnicalServices@@PEAU123@00@Z ; std::_Copy_unchecked<TechnicalServices::Persistence::Client *,TechnicalServices::Persistence::Client *>
PUBLIC	??$_Ucopy@PEAUClient@Persistence@TechnicalServices@@@?$vector@UClient@Persistence@TechnicalServices@@V?$allocator@UClient@Persistence@TechnicalServices@@@std@@@std@@AEAAPEAUClient@Persistence@TechnicalServices@@PEAU234@00@Z ; std::vector<TechnicalServices::Persistence::Client,std::allocator<TechnicalServices::Persistence::Client> >::_Ucopy<TechnicalServices::Persistence::Client *>
PUBLIC	??$_Get_unwrapped@AEBQEAUClientprofile@Persistence@TechnicalServices@@@std@@YA@AEBQEAUClientprofile@Persistence@TechnicalServices@@@Z ; std::_Get_unwrapped<TechnicalServices::Persistence::Clientprofile * const &>
PUBLIC	??0?$_Uninitialized_backout_al@V?$allocator@UClientprofile@Persistence@TechnicalServices@@@std@@@std@@QEAA@PEAUClientprofile@Persistence@TechnicalServices@@AEAV?$allocator@UClientprofile@Persistence@TechnicalServices@@@1@@Z ; std::_Uninitialized_backout_al<std::allocator<TechnicalServices::Persistence::Clientprofile> >::_Uninitialized_backout_al<std::allocator<TechnicalServices::Persistence::Clientprofile> >
PUBLIC	??1?$_Uninitialized_backout_al@V?$allocator@UClientprofile@Persistence@TechnicalServices@@@std@@@std@@QEAA@XZ ; std::_Uninitialized_backout_al<std::allocator<TechnicalServices::Persistence::Clientprofile> >::~_Uninitialized_backout_al<std::allocator<TechnicalServices::Persistence::Clientprofile> >
PUBLIC	?_Release@?$_Uninitialized_backout_al@V?$allocator@UClientprofile@Persistence@TechnicalServices@@@std@@@std@@QEAAPEAUClientprofile@Persistence@TechnicalServices@@XZ ; std::_Uninitialized_backout_al<std::allocator<TechnicalServices::Persistence::Clientprofile> >::_Release
PUBLIC	?__autoclassinit2@?$_Uninitialized_backout_al@V?$allocator@UClientprofile@Persistence@TechnicalServices@@@std@@@std@@QEAAX_K@Z ; std::_Uninitialized_backout_al<std::allocator<TechnicalServices::Persistence::Clientprofile> >::__autoclassinit2
PUBLIC	??$_Emplace_back@UClientprofile@Persistence@TechnicalServices@@@?$_Uninitialized_backout_al@V?$allocator@UClientprofile@Persistence@TechnicalServices@@@std@@@std@@QEAAX$$QEAUClientprofile@Persistence@TechnicalServices@@@Z ; std::_Uninitialized_backout_al<std::allocator<TechnicalServices::Persistence::Clientprofile> >::_Emplace_back<TechnicalServices::Persistence::Clientprofile>
PUBLIC	??0?$_Uninitialized_backout_al@V?$allocator@V?$basic_string@DU?$char_traits@D@std@@V?$allocator@D@2@@std@@@std@@@std@@QEAA@PEAV?$basic_string@DU?$char_traits@D@std@@V?$allocator@D@2@@1@AEAV?$allocator@V?$basic_string@DU?$char_traits@D@std@@V?$allocator@D@2@@std@@@1@@Z ; std::_Uninitialized_backout_al<std::allocator<std::basic_string<char,std::char_traits<char>,std::allocator<char> > > >::_Uninitialized_backout_al<std::allocator<std::basic_string<char,std::char_traits<char>,std::allocator<char> > > >
PUBLIC	??1?$_Uninitialized_backout_al@V?$allocator@V?$basic_string@DU?$char_traits@D@std@@V?$allocator@D@2@@std@@@std@@@std@@QEAA@XZ ; std::_Uninitialized_backout_al<std::allocator<std::basic_string<char,std::char_traits<char>,std::allocator<char> > > >::~_Uninitialized_backout_al<std::allocator<std::basic_string<char,std::char_traits<char>,std::allocator<char> > > >
PUBLIC	?_Release@?$_Uninitialized_backout_al@V?$allocator@V?$basic_string@DU?$char_traits@D@std@@V?$allocator@D@2@@std@@@std@@@std@@QEAAPEAV?$basic_string@DU?$char_traits@D@std@@V?$allocator@D@2@@2@XZ ; std::_Uninitialized_backout_al<std::allocator<std::basic_string<char,std::char_traits<char>,std::allocator<char> > > >::_Release
PUBLIC	?__autoclassinit2@?$_Uninitialized_backout_al@V?$allocator@V?$basic_string@DU?$char_traits@D@std@@V?$allocator@D@2@@std@@@std@@@std@@QEAAX_K@Z ; std::_Uninitialized_backout_al<std::allocator<std::basic_string<char,std::char_traits<char>,std::allocator<char> > > >::__autoclassinit2
PUBLIC	??$_Emplace_back@$$V@?$_Uninitialized_backout_al@V?$allocator@V?$basic_string@DU?$char_traits@D@std@@V?$allocator@D@2@@std@@@std@@@std@@QEAAXXZ ; std::_Uninitialized_backout_al<std::allocator<std::basic_string<char,std::char_traits<char>,std::allocator<char> > > >::_Emplace_back<>
PUBLIC	??$_Get_size_of_n@$0GA@@std@@YA_K_K@Z		; std::_Get_size_of_n<96>
PUBLIC	??$forward@AEBV?$allocator@D@std@@@std@@YAAEBV?$allocator@D@0@AEBV10@@Z ; std::forward<std::allocator<char> const &>
PUBLIC	??$forward@AEAPEAV_Facet_base@std@@@std@@YAAEAPEAV_Facet_base@0@AEAPEAV10@@Z ; std::forward<std::_Facet_base * &>
PUBLIC	??$_Get_unwrapped@AEBQEBV?$basic_string@DU?$char_traits@D@std@@V?$allocator@D@2@@std@@@std@@YA@AEBQEBV?$basic_string@DU?$char_traits@D@std@@V?$allocator@D@2@@0@@Z ; std::_Get_unwrapped<std::basic_string<char,std::char_traits<char>,std::allocator<char> > const * const &>
PUBLIC	??$_Emplace_back@AEBV?$basic_string@DU?$char_traits@D@std@@V?$allocator@D@2@@std@@@?$_Uninitialized_backout_al@V?$allocator@V?$basic_string@DU?$char_traits@D@std@@V?$allocator@D@2@@std@@@std@@@std@@QEAAXAEBV?$basic_string@DU?$char_traits@D@std@@V?$allocator@D@2@@1@@Z ; std::_Uninitialized_backout_al<std::allocator<std::basic_string<char,std::char_traits<char>,std::allocator<char> > > >::_Emplace_back<std::basic_string<char,std::char_traits<char>,std::allocator<char> > const &>
PUBLIC	??$advance@PEAUClientprofile@Persistence@TechnicalServices@@_J@std@@YAXAEAPEAUClientprofile@Persistence@TechnicalServices@@_J@Z ; std::advance<TechnicalServices::Persistence::Clientprofile *,__int64>
PUBLIC	??$_Uninitialized_copy@PEAUClientprofile@Persistence@TechnicalServices@@V?$allocator@UClientprofile@Persistence@TechnicalServices@@@std@@@std@@YAPEAUClientprofile@Persistence@TechnicalServices@@QEAU123@0PEAU123@AEAV?$allocator@UClientprofile@Persistence@TechnicalServices@@@0@@Z ; std::_Uninitialized_copy<TechnicalServices::Persistence::Clientprofile *,std::allocator<TechnicalServices::Persistence::Clientprofile> >
PUBLIC	??$advance@PEAUClient@Persistence@TechnicalServices@@_J@std@@YAXAEAPEAUClient@Persistence@TechnicalServices@@_J@Z ; std::advance<TechnicalServices::Persistence::Client *,__int64>
PUBLIC	??$_Uninitialized_copy@PEAUClient@Persistence@TechnicalServices@@V?$allocator@UClient@Persistence@TechnicalServices@@@std@@@std@@YAPEAUClient@Persistence@TechnicalServices@@QEAU123@0PEAU123@AEAV?$allocator@UClient@Persistence@TechnicalServices@@@0@@Z ; std::_Uninitialized_copy<TechnicalServices::Persistence::Client *,std::allocator<TechnicalServices::Persistence::Client> >
PUBLIC	??$construct@V?$basic_string@DU?$char_traits@D@std@@V?$allocator@D@2@@std@@$$V@?$_Default_allocator_traits@V?$allocator@V?$basic_string@DU?$char_traits@D@std@@V?$allocator@D@2@@std@@@std@@@std@@SAXAEAV?$allocator@V?$basic_string@DU?$char_traits@D@std@@V?$allocator@D@2@@std@@@1@QEAV?$basic_string@DU?$char_traits@D@std@@V?$allocator@D@2@@1@@Z ; std::_Default_allocator_traits<std::allocator<std::basic_string<char,std::char_traits<char>,std::allocator<char> > > >::construct<std::basic_string<char,std::char_traits<char>,std::allocator<char> > >
PUBLIC	??$forward@AEBV?$basic_string@DU?$char_traits@D@std@@V?$allocator@D@2@@std@@@std@@YAAEBV?$basic_string@DU?$char_traits@D@std@@V?$allocator@D@2@@0@AEBV10@@Z ; std::forward<std::basic_string<char,std::char_traits<char>,std::allocator<char> > const &>
PUBLIC	??$construct@V?$basic_string@DU?$char_traits@D@std@@V?$allocator@D@2@@std@@AEBV12@@?$_Default_allocator_traits@V?$allocator@V?$basic_string@DU?$char_traits@D@std@@V?$allocator@D@2@@std@@@std@@@std@@SAXAEAV?$allocator@V?$basic_string@DU?$char_traits@D@std@@V?$allocator@D@2@@std@@@1@QEAV?$basic_string@DU?$char_traits@D@std@@V?$allocator@D@2@@1@AEBV31@@Z ; std::_Default_allocator_traits<std::allocator<std::basic_string<char,std::char_traits<char>,std::allocator<char> > > >::construct<std::basic_string<char,std::char_traits<char>,std::allocator<char> >,std::basic_string<char,std::char_traits<char>,std::allocator<char> > const &>
PUBLIC	??$_Emplace_back@AEAUClientprofile@Persistence@TechnicalServices@@@?$_Uninitialized_backout_al@V?$allocator@UClientprofile@Persistence@TechnicalServices@@@std@@@std@@QEAAXAEAUClientprofile@Persistence@TechnicalServices@@@Z ; std::_Uninitialized_backout_al<std::allocator<TechnicalServices::Persistence::Clientprofile> >::_Emplace_back<TechnicalServices::Persistence::Clientprofile &>
PUBLIC	??$_Get_unwrapped@AEBQEAUClient@Persistence@TechnicalServices@@@std@@YA@AEBQEAUClient@Persistence@TechnicalServices@@@Z ; std::_Get_unwrapped<TechnicalServices::Persistence::Client * const &>
PUBLIC	??0?$_Uninitialized_backout_al@V?$allocator@UClient@Persistence@TechnicalServices@@@std@@@std@@QEAA@PEAUClient@Persistence@TechnicalServices@@AEAV?$allocator@UClient@Persistence@TechnicalServices@@@1@@Z ; std::_Uninitialized_backout_al<std::allocator<TechnicalServices::Persistence::Client> >::_Uninitialized_backout_al<std::allocator<TechnicalServices::Persistence::Client> >
PUBLIC	??1?$_Uninitialized_backout_al@V?$allocator@UClient@Persistence@TechnicalServices@@@std@@@std@@QEAA@XZ ; std::_Uninitialized_backout_al<std::allocator<TechnicalServices::Persistence::Client> >::~_Uninitialized_backout_al<std::allocator<TechnicalServices::Persistence::Client> >
PUBLIC	?_Release@?$_Uninitialized_backout_al@V?$allocator@UClient@Persistence@TechnicalServices@@@std@@@std@@QEAAPEAUClient@Persistence@TechnicalServices@@XZ ; std::_Uninitialized_backout_al<std::allocator<TechnicalServices::Persistence::Client> >::_Release
PUBLIC	?__autoclassinit2@?$_Uninitialized_backout_al@V?$allocator@UClient@Persistence@TechnicalServices@@@std@@@std@@QEAAX_K@Z ; std::_Uninitialized_backout_al<std::allocator<TechnicalServices::Persistence::Client> >::__autoclassinit2
PUBLIC	??$_Emplace_back@AEAUClient@Persistence@TechnicalServices@@@?$_Uninitialized_backout_al@V?$allocator@UClient@Persistence@TechnicalServices@@@std@@@std@@QEAAXAEAUClient@Persistence@TechnicalServices@@@Z ; std::_Uninitialized_backout_al<std::allocator<TechnicalServices::Persistence::Client> >::_Emplace_back<TechnicalServices::Persistence::Client &>
PUBLIC	??$forward@AEAUClientprofile@Persistence@TechnicalServices@@@std@@YAAEAUClientprofile@Persistence@TechnicalServices@@AEAU123@@Z ; std::forward<TechnicalServices::Persistence::Clientprofile &>
PUBLIC	??$construct@UClientprofile@Persistence@TechnicalServices@@AEAU123@@?$_Default_allocator_traits@V?$allocator@UClientprofile@Persistence@TechnicalServices@@@std@@@std@@SAXAEAV?$allocator@UClientprofile@Persistence@TechnicalServices@@@1@QEAUClientprofile@Persistence@TechnicalServices@@AEAU345@@Z ; std::_Default_allocator_traits<std::allocator<TechnicalServices::Persistence::Clientprofile> >::construct<TechnicalServices::Persistence::Clientprofile,TechnicalServices::Persistence::Clientprofile &>
PUBLIC	??$forward@AEAUClient@Persistence@TechnicalServices@@@std@@YAAEAUClient@Persistence@TechnicalServices@@AEAU123@@Z ; std::forward<TechnicalServices::Persistence::Client &>
PUBLIC	??$construct@UClient@Persistence@TechnicalServices@@AEAU123@@?$_Default_allocator_traits@V?$allocator@UClient@Persistence@TechnicalServices@@@std@@@std@@SAXAEAV?$allocator@UClient@Persistence@TechnicalServices@@@1@QEAUClient@Persistence@TechnicalServices@@AEAU345@@Z ; std::_Default_allocator_traits<std::allocator<TechnicalServices::Persistence::Client> >::construct<TechnicalServices::Persistence::Client,TechnicalServices::Persistence::Client &>
PUBLIC	__JustMyCode_Default
PUBLIC	??_7exception@std@@6B@				; std::exception::`vftable'
PUBLIC	??_C@_0BC@EOODALEL@Unknown?5exception@		; `string'
PUBLIC	??_7bad_alloc@std@@6B@				; std::bad_alloc::`vftable'
PUBLIC	??_7bad_array_new_length@std@@6B@		; std::bad_array_new_length::`vftable'
PUBLIC	??_C@_0BF@KINCDENJ@bad?5array?5new?5length@	; `string'
PUBLIC	_TI3?AVbad_array_new_length@std@@
PUBLIC	_CTA3?AVbad_array_new_length@std@@
PUBLIC	??_R0?AVbad_array_new_length@std@@@8		; std::bad_array_new_length `RTTI Type Descriptor'
PUBLIC	_CT??_R0?AVbad_array_new_length@std@@@8??0bad_array_new_length@std@@QEAA@AEBV01@@Z24
PUBLIC	??_R0?AVbad_alloc@std@@@8			; std::bad_alloc `RTTI Type Descriptor'
PUBLIC	_CT??_R0?AVbad_alloc@std@@@8??0bad_alloc@std@@QEAA@AEBV01@@Z24
PUBLIC	??_R0?AVexception@std@@@8			; std::exception `RTTI Type Descriptor'
PUBLIC	_CT??_R0?AVexception@std@@@8??0exception@std@@QEAA@AEBV01@@Z24
PUBLIC	??_7bad_cast@std@@6B@				; std::bad_cast::`vftable'
PUBLIC	??_C@_08EPJLHIJG@bad?5cast@			; `string'
PUBLIC	_TI2?AVbad_cast@std@@
PUBLIC	_CTA2?AVbad_cast@std@@
PUBLIC	??_R0?AVbad_cast@std@@@8			; std::bad_cast `RTTI Type Descriptor'
PUBLIC	_CT??_R0?AVbad_cast@std@@@8??0bad_cast@std@@QEAA@AEBV01@@Z24
PUBLIC	?__LINE__Var@?0??_Adjust_manually_vector_aligned@std@@YAXAEAPEAXAEA_K@Z@4JA ; `std::_Adjust_manually_vector_aligned'::`1'::__LINE__Var
PUBLIC	??_C@_0BB@FCMFBGOM@invalid?5argument@		; `string'
PUBLIC	??_C@_02DKCKIIND@?$CFs@				; `string'
PUBLIC	??_C@_0GJ@EHJGLGPD@C?3?2Program?5Files?5?$CIx86?$CJ?2Microsof@ ; `string'
PUBLIC	??_C@_1NC@LBGPBFDE@?$AAC?$AA?3?$AA?2?$AAP?$AAr?$AAo?$AAg?$AAr?$AAa?$AAm?$AA?5?$AAF?$AAi?$AAl?$AAe@ ; `string'
PUBLIC	??_C@_1EK@NIFDJFDG@?$AAs?$AAt?$AAd?$AA?3?$AA?3?$AA_?$AAA?$AAd?$AAj?$AAu?$AAs?$AAt?$AA_?$AAm?$AAa@ ; `string'
PUBLIC	??_C@_1CG@JNLFBNGN@?$AA?$CC?$AAi?$AAn?$AAv?$AAa?$AAl?$AAi?$AAd?$AA?5?$AAa?$AAr?$AAg?$AAu?$AAm?$AAe@ ; `string'
PUBLIC	??_7bad_any_cast@std@@6B@			; std::bad_any_cast::`vftable'
PUBLIC	??_C@_0N@HLEAKECE@Bad?5any_cast@		; `string'
PUBLIC	_TI3?AVbad_any_cast@std@@
PUBLIC	_CTA3?AVbad_any_cast@std@@
PUBLIC	??_R0?AVbad_any_cast@std@@@8			; std::bad_any_cast `RTTI Type Descriptor'
PUBLIC	_CT??_R0?AVbad_any_cast@std@@@8??0bad_any_cast@std@@QEAA@AEBV01@@Z24
PUBLIC	??_C@_0BA@JFNIOLAK@string?5too?5long@		; `string'
PUBLIC	??_C@_00CNPNBAHC@@				; `string'
PUBLIC	??_C@_0GJ@OPFKIEFE@C?3?2Program?5Files?5?$CIx86?$CJ?2Microsof@ ; `string'
PUBLIC	?__LINE__Var@?0??_Maklocwcs@std@@YAPEA_WPEB_W@Z@4JA ; `std::_Maklocwcs'::`1'::__LINE__Var
PUBLIC	??_C@_0GJ@GMBHIGPF@C?3?2Program?5Files?5?$CIx86?$CJ?2Microsof@ ; `string'
PUBLIC	??_7UserInterfaceHandler@UI@@6B@		; UI::UserInterfaceHandler::`vftable'
PUBLIC	??_7SimpleUI@UI@@6B@				; UI::SimpleUI::`vftable'
PUBLIC	??_C@_0DL@DGNBDAFF@Simple?5UI?5being?5used?5and?5has?5be@ ; `string'
PUBLIC	??_C@_0CA@GAGEKOHD@Simple?5UI?5shutdown?5successfully@ ; `string'
PUBLIC	??_C@_02BAABKJLB@?9?9@				; `string'
PUBLIC	??_C@_01EEMJAFIK@?6@				; `string'
PUBLIC	??_C@_08KLHCBAMK@?5?5name?3?5@			; `string'
PUBLIC	??_C@_0BA@ILPNJJBN@?5?5pass?5phrase?3?5@	; `string'
PUBLIC	??_C@_03NLJIHOMM@?5?9?5@			; `string'
PUBLIC	??_C@_05FHOEHKDO@Quit?6@			; `string'
PUBLIC	??_C@_03LPPJIELD@?$CJ?3?5@			; `string'
PUBLIC	??_C@_0N@HNKDLDDO@?5?5action?5?$CI0?9@		; `string'
PUBLIC	??_C@_0BD@MDGDICNG@Command?5selected?5?$CC@	; `string'
PUBLIC	??_C@_0BC@EHNKAOLP@Client?5Management@		; `string'
PUBLIC	??_C@_0BD@FFFOHKNJ@Back?5to?5Main?5Menu?6@	; `string'
PUBLIC	??_C@_0L@DIFOHGNI@Add?5Client@			; `string'
PUBLIC	??_C@_0O@MLPIAAFK@?5Enter?5Name?5?5@		; `string'
PUBLIC	??_C@_0P@GFDLBMDB@?5Enter?5Phone?3?5@		; `string'
PUBLIC	??_C@_0BG@IHFBALOG@Successfully?5Added?5?$CC?5@	; `string'
PUBLIC	??_C@_0BB@NDHANJAG@View?5All?5Clients@		; `string'
PUBLIC	??_C@_0BG@DNLIOOFF@Update?5Client?5Profile@	; `string'
PUBLIC	??_C@_0BK@FPFOKBFM@Please?5choose?5Client?5Id?3?5@ ; `string'
PUBLIC	??_C@_09FLPCCMNH@?$DP?5?$CIY?1N?1Q?$CJ@		; `string'
PUBLIC	??_C@_0DN@NLFCEGHK@Do?5you?5want?5to?5continue?5Update?5@ ; `string'
PUBLIC	??_C@_0N@OCAGJCJO@?5Enter?5DOB?3?5@		; `string'
PUBLIC	??_C@_0BC@GJHCPECC@?5Enter?5Income?3?5?5?5@	; `string'
PUBLIC	??_C@_0BG@MCELGHIL@Successfully?5Updated?6@	; `string'
PUBLIC	??_C@_0BE@KBHAFDNP@View?5Client?5Profile@	; `string'
PUBLIC	??_C@_0BF@FILFDGDM@Reuslt?5of?5Searching?6@	; `string'
PUBLIC	??_C@_07JPDLJNBP@Income?6@			; `string'
PUBLIC	??_C@_03HDEEAIPD@DOB@				; `string'
PUBLIC	??_C@_02HOGEDOAB@Id@				; `string'
PUBLIC	??_C@_0BA@NFJLLIND@Another?5command@		; `string'
PUBLIC	??_C@_0BD@JBHMHLLP@Product?5Management@		; `string'
PUBLIC	??_C@_0P@NCIIAOKI@View?5Inventory@		; `string'
PUBLIC	??_C@_0BA@PFEIDNLD@Add?5New?5Product@		; `string'
PUBLIC	??_C@_0P@IIFMPIBN@?5Enter?5Price?3?5@		; `string'
PUBLIC	??_C@_0DF@JGCKDPPN@?5Enter?5Company?5ID?$CILeave?5blank?5f@ ; `string'
PUBLIC	??_C@_0CD@KOKJJPGG@Product?5Already?5added?5to?5Invent@ ; `string'
PUBLIC	??_C@_0P@GJAPJPIO@Modify?5Product@		; `string'
PUBLIC	??_C@_0BL@LPCNPAHN@Please?5choose?5Product?5Id?3?5@ ; `string'
PUBLIC	??_C@_0BJ@LEENPOEJ@Product?5Already?5Modified@	; `string'
PUBLIC	??_C@_0M@MAHCEMIN@Del?5product@			; `string'
PUBLIC	??_C@_0CH@CDCNELAJ@Product?5Already?5removed?5from?5In@ ; `string'
PUBLIC	??_C@_0BA@HNKEDJKE@Sale?5Management@		; `string'
PUBLIC	??_C@_09MKOENMDM@Make?5Sale@			; `string'
PUBLIC	??_C@_0BD@JJEDHDKM@under?5contruction?5@	; `string'
PUBLIC	??_C@_0BP@HIAJAIHD@Ending?5session?5and?5terminating@ ; `string'
PUBLIC	??_C@_0N@LPFKKEBD@?3AM?3am?3PM?3pm@		; `string'
PUBLIC	??_C@_0BO@PFKOHNJC@vector?5subscript?5out?5of?5range@ ; `string'
PUBLIC	??_C@_0GI@BDJNFBPD@C?3?2Program?5Files?5?$CIx86?$CJ?2Microsof@ ; `string'
PUBLIC	??_C@_1NA@MKDIEAJP@?$AAC?$AA?3?$AA?2?$AAP?$AAr?$AAo?$AAg?$AAr?$AAa?$AAm?$AA?5?$AAF?$AAi?$AAl?$AAe@ ; `string'
PUBLIC	??_C@_1BME@NCIPHHDN@?$AAs?$AAt?$AAd?$AA?3?$AA?3?$AAv?$AAe?$AAc?$AAt?$AAo?$AAr?$AA?$DM?$AAc?$AAl?$AAa@ ; `string'
PUBLIC	??_C@_1EA@LEKOKFNB@?$AA?$CC?$AAv?$AAe?$AAc?$AAt?$AAo?$AAr?$AA?5?$AAs?$AAu?$AAb?$AAs?$AAc?$AAr?$AAi@ ; `string'
PUBLIC	??_C@_0BI@CFPLBAOH@invalid?5string?5position@	; `string'
PUBLIC	?_Psave@?$_Facetptr@V?$ctype@D@std@@@std@@2PEBVfacet@locale@2@EB ; std::_Facetptr<std::ctype<char> >::_Psave
PUBLIC	??_C@_1BK@MHIKGOKE@?$AA?3?$AAA?$AAM?$AA?3?$AAa?$AAm?$AA?3?$AAP?$AAM?$AA?3?$AAp?$AAm@ ; `string'
PUBLIC	??_C@_0BA@FOIKENOD@vector?5too?5long@		; `string'
PUBLIC	??_C@_0BJ@HAJGEHKO@transposed?5pointer?5range@	; `string'
PUBLIC	??_C@_0GK@OHAIDBEA@C?3?2Program?5Files?5?$CIx86?$CJ?2Microsof@ ; `string'
PUBLIC	??_C@_1NE@NLDHILHB@?$AAC?$AA?3?$AA?2?$AAP?$AAr?$AAo?$AAg?$AAr?$AAa?$AAm?$AA?5?$AAF?$AAi?$AAl?$AAe@ ; `string'
PUBLIC	??_C@_1CG@LJCPDKEJ@?$AAs?$AAt?$AAd?$AA?3?$AA?3?$AA_?$AAV?$AAe?$AAr?$AAi?$AAf?$AAy?$AA_?$AAr?$AAa@ ; `string'
PUBLIC	??_C@_1DG@FJIKMGFD@?$AA?$CC?$AAt?$AAr?$AAa?$AAn?$AAs?$AAp?$AAo?$AAs?$AAe?$AAd?$AA?5?$AAp?$AAo?$AAi@ ; `string'
PUBLIC	??_C@_1EO@GFNCMDLA@?$AAs?$AAt?$AAd?$AA?3?$AA?3?$AA_?$AAA?$AAl?$AAl?$AAo?$AAc?$AAa?$AAt?$AAe?$AA_@ ; `string'
PUBLIC	??_R0?AV?$vector@UClient@Persistence@TechnicalServices@@V?$allocator@UClient@Persistence@TechnicalServices@@@std@@@std@@@8 ; std::vector<TechnicalServices::Persistence::Client,std::allocator<TechnicalServices::Persistence::Client> > `RTTI Type Descriptor'
PUBLIC	??_R0?AV?$vector@UClientprofile@Persistence@TechnicalServices@@V?$allocator@UClientprofile@Persistence@TechnicalServices@@@std@@@std@@@8 ; std::vector<TechnicalServices::Persistence::Clientprofile,std::allocator<TechnicalServices::Persistence::Clientprofile> > `RTTI Type Descriptor'
PUBLIC	??_R0?AUClientprofile@Persistence@TechnicalServices@@@8 ; TechnicalServices::Persistence::Clientprofile `RTTI Type Descriptor'
PUBLIC	??_R4exception@std@@6B@				; std::exception::`RTTI Complete Object Locator'
PUBLIC	??_R3exception@std@@8				; std::exception::`RTTI Class Hierarchy Descriptor'
PUBLIC	??_R2exception@std@@8				; std::exception::`RTTI Base Class Array'
PUBLIC	??_R1A@?0A@EA@exception@std@@8			; std::exception::`RTTI Base Class Descriptor at (0,-1,0,64)'
PUBLIC	??_R4bad_alloc@std@@6B@				; std::bad_alloc::`RTTI Complete Object Locator'
PUBLIC	??_R3bad_alloc@std@@8				; std::bad_alloc::`RTTI Class Hierarchy Descriptor'
PUBLIC	??_R2bad_alloc@std@@8				; std::bad_alloc::`RTTI Base Class Array'
PUBLIC	??_R1A@?0A@EA@bad_alloc@std@@8			; std::bad_alloc::`RTTI Base Class Descriptor at (0,-1,0,64)'
PUBLIC	??_R4bad_array_new_length@std@@6B@		; std::bad_array_new_length::`RTTI Complete Object Locator'
PUBLIC	??_R3bad_array_new_length@std@@8		; std::bad_array_new_length::`RTTI Class Hierarchy Descriptor'
PUBLIC	??_R2bad_array_new_length@std@@8		; std::bad_array_new_length::`RTTI Base Class Array'
PUBLIC	??_R1A@?0A@EA@bad_array_new_length@std@@8	; std::bad_array_new_length::`RTTI Base Class Descriptor at (0,-1,0,64)'
PUBLIC	??_R4bad_cast@std@@6B@				; std::bad_cast::`RTTI Complete Object Locator'
PUBLIC	??_R3bad_cast@std@@8				; std::bad_cast::`RTTI Class Hierarchy Descriptor'
PUBLIC	??_R2bad_cast@std@@8				; std::bad_cast::`RTTI Base Class Array'
PUBLIC	??_R1A@?0A@EA@bad_cast@std@@8			; std::bad_cast::`RTTI Base Class Descriptor at (0,-1,0,64)'
PUBLIC	??_R4bad_any_cast@std@@6B@			; std::bad_any_cast::`RTTI Complete Object Locator'
PUBLIC	??_R3bad_any_cast@std@@8			; std::bad_any_cast::`RTTI Class Hierarchy Descriptor'
PUBLIC	??_R2bad_any_cast@std@@8			; std::bad_any_cast::`RTTI Base Class Array'
PUBLIC	??_R1A@?0A@EA@bad_any_cast@std@@8		; std::bad_any_cast::`RTTI Base Class Descriptor at (0,-1,0,64)'
PUBLIC	??_R4UserInterfaceHandler@UI@@6B@		; UI::UserInterfaceHandler::`RTTI Complete Object Locator'
PUBLIC	??_R0?AVUserInterfaceHandler@UI@@@8		; UI::UserInterfaceHandler `RTTI Type Descriptor'
PUBLIC	??_R3UserInterfaceHandler@UI@@8			; UI::UserInterfaceHandler::`RTTI Class Hierarchy Descriptor'
PUBLIC	??_R2UserInterfaceHandler@UI@@8			; UI::UserInterfaceHandler::`RTTI Base Class Array'
PUBLIC	??_R1A@?0A@EA@UserInterfaceHandler@UI@@8	; UI::UserInterfaceHandler::`RTTI Base Class Descriptor at (0,-1,0,64)'
PUBLIC	??_R4SimpleUI@UI@@6B@				; UI::SimpleUI::`RTTI Complete Object Locator'
PUBLIC	??_R0?AVSimpleUI@UI@@@8				; UI::SimpleUI `RTTI Type Descriptor'
PUBLIC	??_R3SimpleUI@UI@@8				; UI::SimpleUI::`RTTI Class Hierarchy Descriptor'
PUBLIC	??_R2SimpleUI@UI@@8				; UI::SimpleUI::`RTTI Base Class Array'
PUBLIC	??_R1A@?0A@EA@SimpleUI@UI@@8			; UI::SimpleUI::`RTTI Base Class Descriptor at (0,-1,0,64)'
EXTRN	??_M@YAXPEAX_K1P6AX0@Z@Z:PROC			; `eh vector destructor iterator'
EXTRN	_purecall:PROC
EXTRN	??2@YAPEAX_K@Z:PROC				; operator new
EXTRN	??3@YAXPEAX_K@Z:PROC				; operator delete
EXTRN	__imp__invalid_parameter:PROC
EXTRN	__imp__calloc_dbg:PROC
EXTRN	__imp__CrtDbgReport:PROC
EXTRN	__imp_??0_Lockit@std@@QEAA@H@Z:PROC
EXTRN	__imp_??1_Lockit@std@@QEAA@XZ:PROC
EXTRN	__imp_atoi:PROC
EXTRN	?uncaught_exception@std@@YA_NXZ:PROC		; std::uncaught_exception
EXTRN	__std_exception_copy:PROC
EXTRN	__std_exception_destroy:PROC
EXTRN	??_Eexception@std@@UEAAPEAXI@Z:PROC		; std::exception::`vector deleting destructor'
EXTRN	??_Ebad_alloc@std@@UEAAPEAXI@Z:PROC		; std::bad_alloc::`vector deleting destructor'
EXTRN	??_Ebad_array_new_length@std@@UEAAPEAXI@Z:PROC	; std::bad_array_new_length::`vector deleting destructor'
EXTRN	memcpy:PROC
EXTRN	memmove:PROC
EXTRN	__imp_wcslen:PROC
EXTRN	strlen:PROC
EXTRN	__std_type_info_compare:PROC
EXTRN	??_Ebad_cast@std@@UEAAPEAXI@Z:PROC		; std::bad_cast::`vector deleting destructor'
EXTRN	?_Xbad_alloc@std@@YAXXZ:PROC			; std::_Xbad_alloc
EXTRN	?_Xlength_error@std@@YAXPEBD@Z:PROC		; std::_Xlength_error
EXTRN	?_Xout_of_range@std@@YAXPEBD@Z:PROC		; std::_Xout_of_range
EXTRN	??_Ebad_any_cast@std@@UEAAPEAXI@Z:PROC		; std::bad_any_cast::`vector deleting destructor'
EXTRN	?instance@PersistenceHandler@Persistence@TechnicalServices@@SAAEAV123@XZ:PROC ; TechnicalServices::Persistence::PersistenceHandler::instance
EXTRN	?UseClientManagement@ClientHandler@Client@Domain@@SA?AV?$unique_ptr@VClientHandler@Client@Domain@@U?$default_delete@VClientHandler@Client@Domain@@@std@@@std@@AEBUUserCredentials@Persistence@TechnicalServices@@@Z:PROC ; Domain::Client::ClientHandler::UseClientManagement
EXTRN	?UseProductManagement@ProductHandler@Product@Domain@@SA?AV?$unique_ptr@VProductHandler@Product@Domain@@U?$default_delete@VProductHandler@Product@Domain@@@std@@@std@@AEBUUserCredentials@Persistence@TechnicalServices@@@Z:PROC ; Domain::Product::ProductHandler::UseProductManagement
EXTRN	?UseSaleManagement@SaleHandler@Sale@Domain@@SA?AV?$unique_ptr@VSaleHandler@Sale@Domain@@U?$default_delete@VSaleHandler@Sale@Domain@@@std@@@std@@AEBUUserCredentials@Persistence@TechnicalServices@@@Z:PROC ; Domain::Sale::SaleHandler::UseSaleManagement
EXTRN	?_Facet_Register@std@@YAXPEAV_Facet_base@1@@Z:PROC ; std::_Facet_Register
EXTRN	_Mbrtowc:PROC
EXTRN	__imp_?_Getcvt@_Locinfo@std@@QEBA?AU_Cvtvec@@XZ:PROC
EXTRN	__imp_?_Getdays@_Locinfo@std@@QEBAPEBDXZ:PROC
EXTRN	__imp_?_Getmonths@_Locinfo@std@@QEBAPEBDXZ:PROC
EXTRN	__imp_?_W_Getdays@_Locinfo@std@@QEBAPEBGXZ:PROC
EXTRN	__imp_?_W_Getmonths@_Locinfo@std@@QEBAPEBGXZ:PROC
EXTRN	__imp_??Bid@locale@std@@QEAA_KXZ:PROC
EXTRN	?_Init@locale@std@@CAPEAV_Locimp@12@_N@Z:PROC	; std::locale::_Init
EXTRN	?_Getgloballocale@locale@std@@CAPEAV_Locimp@12@XZ:PROC ; std::locale::_Getgloballocale
EXTRN	__imp_?is@?$ctype@D@std@@QEBA_NFD@Z:PROC
EXTRN	__imp_?toupper@?$ctype@D@std@@QEBADD@Z:PROC
EXTRN	__imp_?_Getcat@?$ctype@D@std@@SA_KPEAPEBVfacet@locale@2@PEBV42@@Z:PROC
EXTRN	__imp_?good@ios_base@std@@QEBA_NXZ:PROC
EXTRN	__imp_?flags@ios_base@std@@QEBAHXZ:PROC
EXTRN	__imp_?width@ios_base@std@@QEBA_JXZ:PROC
EXTRN	__imp_?width@ios_base@std@@QEAA_J_J@Z:PROC
EXTRN	__imp_?getloc@ios_base@std@@QEBA?AVlocale@2@XZ:PROC
EXTRN	__imp_?sbumpc@?$basic_streambuf@DU?$char_traits@D@std@@@std@@QEAAHXZ:PROC
EXTRN	__imp_?sgetc@?$basic_streambuf@DU?$char_traits@D@std@@@std@@QEAAHXZ:PROC
EXTRN	__imp_?snextc@?$basic_streambuf@DU?$char_traits@D@std@@@std@@QEAAHXZ:PROC
EXTRN	__imp_?sputc@?$basic_streambuf@DU?$char_traits@D@std@@@std@@QEAAHD@Z:PROC
EXTRN	__imp_?sputn@?$basic_streambuf@DU?$char_traits@D@std@@@std@@QEAA_JPEBD_J@Z:PROC
EXTRN	__imp_?setstate@?$basic_ios@DU?$char_traits@D@std@@@std@@QEAAXH_N@Z:PROC
EXTRN	__imp_?tie@?$basic_ios@DU?$char_traits@D@std@@@std@@QEBAPEAV?$basic_ostream@DU?$char_traits@D@std@@@2@XZ:PROC
EXTRN	__imp_?rdbuf@?$basic_ios@DU?$char_traits@D@std@@@std@@QEBAPEAV?$basic_streambuf@DU?$char_traits@D@std@@@2@XZ:PROC
EXTRN	__imp_?fill@?$basic_ios@DU?$char_traits@D@std@@@std@@QEBADXZ:PROC
EXTRN	__imp_?widen@?$basic_ios@DU?$char_traits@D@std@@@std@@QEBADD@Z:PROC
EXTRN	__imp_?_Osfx@?$basic_ostream@DU?$char_traits@D@std@@@std@@QEAAXXZ:PROC
EXTRN	__imp_??6?$basic_ostream@DU?$char_traits@D@std@@@std@@QEAAAEAV01@I@Z:PROC
EXTRN	__imp_??6?$basic_ostream@DU?$char_traits@D@std@@@std@@QEAAAEAV01@_K@Z:PROC
EXTRN	__imp_?flush@?$basic_ostream@DU?$char_traits@D@std@@@std@@QEAAAEAV12@XZ:PROC
EXTRN	__imp_?_Ipfx@?$basic_istream@DU?$char_traits@D@std@@@std@@QEAA_N_N@Z:PROC
EXTRN	__imp_??5?$basic_istream@DU?$char_traits@D@std@@@std@@QEAAAEAV01@P6AAEAV01@AEAV01@@Z@Z:PROC
EXTRN	__imp_??5?$basic_istream@DU?$char_traits@D@std@@@std@@QEAAAEAV01@AEAH@Z:PROC
EXTRN	__imp_??5?$basic_istream@DU?$char_traits@D@std@@@std@@QEAAAEAV01@AEAI@Z:PROC
EXTRN	__imp_?ignore@?$basic_istream@DU?$char_traits@D@std@@@std@@QEAAAEAV12@_JH@Z:PROC
EXTRN	?create@LoggerHandler@Logging@TechnicalServices@@SA?AV?$unique_ptr@VLoggerHandler@Logging@TechnicalServices@@U?$default_delete@VLoggerHandler@Logging@TechnicalServices@@@std@@@std@@AEAV?$basic_ostream@DU?$char_traits@D@std@@@5@@Z:PROC ; TechnicalServices::Logging::LoggerHandler::create
EXTRN	??1UserInterfaceHandler@UI@@UEAA@XZ:PROC	; UI::UserInterfaceHandler::~UserInterfaceHandler
EXTRN	??_ESimpleUI@UI@@UEAAPEAXI@Z:PROC		; UI::SimpleUI::`vector deleting destructor'
EXTRN	?setw@std@@YA?AU?$_Smanip@_J@1@_J@Z:PROC	; std::setw
EXTRN	?createSession@SessionHandler@Session@Domain@@SA?AV?$unique_ptr@VSessionHandler@Session@Domain@@U?$default_delete@VSessionHandler@Session@Domain@@@std@@@std@@AEBUUserCredentials@Persistence@TechnicalServices@@@Z:PROC ; Domain::Session::SessionHandler::createSession
EXTRN	_CxxThrowException:PROC
EXTRN	_RTC_CheckStackVars:PROC
EXTRN	_RTC_InitBase:PROC
EXTRN	_RTC_Shutdown:PROC
EXTRN	__CheckForDebuggerJustMyCode:PROC
EXTRN	__CxxFrameHandler4:PROC
EXTRN	__GSHandlerCheck:PROC
EXTRN	__GSHandlerCheck_EH4:PROC
EXTRN	__chkstk:PROC
EXTRN	__security_check_cookie:PROC
EXTRN	memcmp:PROC
EXTRN	??_7type_info@@6B@:BYTE				; type_info::`vftable'
EXTRN	__imp_?id@?$ctype@D@std@@2V0locale@2@A:QWORD
EXTRN	__imp_?cin@std@@3V?$basic_istream@DU?$char_traits@D@std@@@1@A:BYTE
EXTRN	__imp_?cout@std@@3V?$basic_ostream@DU?$char_traits@D@std@@@1@A:BYTE
EXTRN	__imp_?clog@std@@3V?$basic_ostream@DU?$char_traits@D@std@@@1@A:BYTE
EXTRN	__security_cookie:QWORD
;	COMDAT ?_Psave@?$_Facetptr@V?$ctype@D@std@@@std@@2PEBVfacet@locale@2@EB
_BSS	SEGMENT
?_Psave@?$_Facetptr@V?$ctype@D@std@@@std@@2PEBVfacet@locale@2@EB DQ 01H DUP (?) ; std::_Facetptr<std::ctype<char> >::_Psave
_BSS	ENDS
;	COMDAT pdata
pdata	SEGMENT
$pdata$?__empty_global_delete@@YAXPEAX@Z DD imagerel $LN3
	DD	imagerel $LN3+65
	DD	imagerel $unwind$?__empty_global_delete@@YAXPEAX@Z
pdata	ENDS
;	COMDAT pdata
pdata	SEGMENT
$pdata$?__empty_global_delete@@YAXPEAX_K@Z DD imagerel $LN3
	DD	imagerel $LN3+70
	DD	imagerel $unwind$?__empty_global_delete@@YAXPEAX_K@Z
pdata	ENDS
;	COMDAT pdata
pdata	SEGMENT
$pdata$?__empty_global_delete@@YAXPEAXW4align_val_t@std@@@Z DD imagerel $LN3
	DD	imagerel $LN3+70
	DD	imagerel $unwind$?__empty_global_delete@@YAXPEAXW4align_val_t@std@@@Z
pdata	ENDS
;	COMDAT pdata
pdata	SEGMENT
$pdata$?__empty_global_delete@@YAXPEAX_KW4align_val_t@std@@@Z DD imagerel $LN3
	DD	imagerel $LN3+75
	DD	imagerel $unwind$?__empty_global_delete@@YAXPEAX_KW4align_val_t@std@@@Z
pdata	ENDS
;	COMDAT pdata
pdata	SEGMENT
$pdata$??2@YAPEAX_KPEAX@Z DD imagerel $LN3
	DD	imagerel $LN3+76
	DD	imagerel $unwind$??2@YAPEAX_KPEAX@Z
pdata	ENDS
;	COMDAT pdata
pdata	SEGMENT
$pdata$??0exception@std@@QEAA@QEBDH@Z DD imagerel $LN3
	DD	imagerel $LN3+139
	DD	imagerel $unwind$??0exception@std@@QEAA@QEBDH@Z
pdata	ENDS
;	COMDAT pdata
pdata	SEGMENT
$pdata$??0exception@std@@QEAA@AEBV01@@Z DD imagerel $LN3
	DD	imagerel $LN3+146
	DD	imagerel $unwind$??0exception@std@@QEAA@AEBV01@@Z
pdata	ENDS
;	COMDAT pdata
pdata	SEGMENT
$pdata$??1exception@std@@UEAA@XZ DD imagerel $LN3
	DD	imagerel $LN3+101
	DD	imagerel $unwind$??1exception@std@@UEAA@XZ
pdata	ENDS
;	COMDAT pdata
pdata	SEGMENT
$pdata$?what@exception@std@@UEBAPEBDXZ DD imagerel $LN5
	DD	imagerel $LN5+119
	DD	imagerel $unwind$?what@exception@std@@UEBAPEBDXZ
pdata	ENDS
;	COMDAT pdata
pdata	SEGMENT
$pdata$??_Gexception@std@@UEAAPEAXI@Z DD imagerel $LN4
	DD	imagerel $LN4+105
	DD	imagerel $unwind$??_Gexception@std@@UEAAPEAXI@Z
pdata	ENDS
;	COMDAT pdata
pdata	SEGMENT
$pdata$??0bad_alloc@std@@AEAA@QEBD@Z DD imagerel $LN3
	DD	imagerel $LN3+118
	DD	imagerel $unwind$??0bad_alloc@std@@AEAA@QEBD@Z
pdata	ENDS
;	COMDAT pdata
pdata	SEGMENT
$pdata$??1bad_alloc@std@@UEAA@XZ DD imagerel $LN3
	DD	imagerel $LN3+64
	DD	imagerel $unwind$??1bad_alloc@std@@UEAA@XZ
pdata	ENDS
;	COMDAT pdata
pdata	SEGMENT
$pdata$??0bad_alloc@std@@QEAA@AEBV01@@Z DD imagerel $LN3
	DD	imagerel $LN3+100
	DD	imagerel $unwind$??0bad_alloc@std@@QEAA@AEBV01@@Z
pdata	ENDS
;	COMDAT pdata
pdata	SEGMENT
$pdata$??_Gbad_alloc@std@@UEAAPEAXI@Z DD imagerel $LN4
	DD	imagerel $LN4+105
	DD	imagerel $unwind$??_Gbad_alloc@std@@UEAAPEAXI@Z
pdata	ENDS
;	COMDAT pdata
pdata	SEGMENT
$pdata$??0bad_array_new_length@std@@QEAA@XZ DD imagerel $LN3
	DD	imagerel $LN3+107
	DD	imagerel $unwind$??0bad_array_new_length@std@@QEAA@XZ
pdata	ENDS
;	COMDAT pdata
pdata	SEGMENT
$pdata$??1bad_array_new_length@std@@UEAA@XZ DD imagerel $LN3
	DD	imagerel $LN3+64
	DD	imagerel $unwind$??1bad_array_new_length@std@@UEAA@XZ
pdata	ENDS
;	COMDAT pdata
pdata	SEGMENT
$pdata$??0bad_array_new_length@std@@QEAA@AEBV01@@Z DD imagerel $LN3
	DD	imagerel $LN3+100
	DD	imagerel $unwind$??0bad_array_new_length@std@@QEAA@AEBV01@@Z
pdata	ENDS
;	COMDAT pdata
pdata	SEGMENT
$pdata$??_Gbad_array_new_length@std@@UEAAPEAXI@Z DD imagerel $LN4
	DD	imagerel $LN4+105
	DD	imagerel $unwind$??_Gbad_array_new_length@std@@UEAAPEAXI@Z
pdata	ENDS
;	COMDAT pdata
pdata	SEGMENT
$pdata$?_Throw_bad_array_new_length@std@@YAXXZ DD imagerel $LN3
	DD	imagerel $LN3+83
	DD	imagerel $unwind$?_Throw_bad_array_new_length@std@@YAXXZ
pdata	ENDS
;	COMDAT pdata
pdata	SEGMENT
$pdata$wmemcpy DD imagerel $LN3
	DD	imagerel $LN3+106
	DD	imagerel $unwind$wmemcpy
pdata	ENDS
;	COMDAT pdata
pdata	SEGMENT
$pdata$??9type_info@@QEBA_NAEBV0@@Z DD imagerel $LN5
	DD	imagerel $LN5+132
	DD	imagerel $unwind$??9type_info@@QEBA_NAEBV0@@Z
pdata	ENDS
;	COMDAT pdata
pdata	SEGMENT
$pdata$??0bad_cast@std@@QEAA@XZ DD imagerel $LN3
	DD	imagerel $LN3+113
	DD	imagerel $unwind$??0bad_cast@std@@QEAA@XZ
pdata	ENDS
;	COMDAT pdata
pdata	SEGMENT
$pdata$??1bad_cast@std@@UEAA@XZ DD imagerel $LN3
	DD	imagerel $LN3+64
	DD	imagerel $unwind$??1bad_cast@std@@UEAA@XZ
pdata	ENDS
;	COMDAT pdata
pdata	SEGMENT
$pdata$??0bad_cast@std@@QEAA@AEBV01@@Z DD imagerel $LN3
	DD	imagerel $LN3+100
	DD	imagerel $unwind$??0bad_cast@std@@QEAA@AEBV01@@Z
pdata	ENDS
;	COMDAT pdata
pdata	SEGMENT
$pdata$??_Gbad_cast@std@@UEAAPEAXI@Z DD imagerel $LN4
	DD	imagerel $LN4+105
	DD	imagerel $unwind$??_Gbad_cast@std@@UEAAPEAXI@Z
pdata	ENDS
;	COMDAT pdata
pdata	SEGMENT
$pdata$?_Throw_bad_cast@std@@YAXXZ DD imagerel $LN3
	DD	imagerel $LN3+83
	DD	imagerel $unwind$?_Throw_bad_cast@std@@YAXXZ
pdata	ENDS
;	COMDAT pdata
pdata	SEGMENT
$pdata$?max@?$numeric_limits@_J@std@@SA_JXZ DD imagerel $LN3
	DD	imagerel $LN3+62
	DD	imagerel $unwind$?max@?$numeric_limits@_J@std@@SA_JXZ
pdata	ENDS
;	COMDAT pdata
pdata	SEGMENT
$pdata$?_Allocate@_Default_allocate_traits@std@@SAPEAX_K@Z DD imagerel $LN3
	DD	imagerel $LN3+76
	DD	imagerel $unwind$?_Allocate@_Default_allocate_traits@std@@SAPEAX_K@Z
pdata	ENDS
;	COMDAT pdata
pdata	SEGMENT
$pdata$?_Adjust_manually_vector_aligned@std@@YAXAEAPEAXAEA_K@Z DD imagerel $LN21
	DD	imagerel $LN21+476
	DD	imagerel $unwind$?_Adjust_manually_vector_aligned@std@@YAXAEAPEAXAEA_K@Z
pdata	ENDS
;	COMDAT pdata
pdata	SEGMENT
$pdata$??$_Convert_size@_K@std@@YA_K_K@Z DD imagerel $LN3
	DD	imagerel $LN3+71
	DD	imagerel $unwind$??$_Convert_size@_K@std@@YA_K_K@Z
pdata	ENDS
;	COMDAT pdata
pdata	SEGMENT
$pdata$??0_Container_proxy@std@@QEAA@PEAU_Container_base12@1@@Z DD imagerel $LN3
	DD	imagerel $LN3+108
	DD	imagerel $unwind$??0_Container_proxy@std@@QEAA@PEAU_Container_base12@1@@Z
pdata	ENDS
;	COMDAT pdata
pdata	SEGMENT
$pdata$??0_Container_base12@std@@QEAA@XZ DD imagerel $LN3
	DD	imagerel $LN3+85
	DD	imagerel $unwind$??0_Container_base12@std@@QEAA@XZ
pdata	ENDS
;	COMDAT pdata
pdata	SEGMENT
$pdata$?_Orphan_all@_Container_base12@std@@QEAAXXZ DD imagerel $LN7
	DD	imagerel $LN7+233
	DD	imagerel $unwind$?_Orphan_all@_Container_base12@std@@QEAAXXZ
pdata	ENDS
;	COMDAT pdata
pdata	SEGMENT
$pdata$?_Swap_proxy_and_iterators@_Container_base12@std@@QEAAXAEAU12@@Z DD imagerel $LN5
	DD	imagerel $LN5+257
	DD	imagerel $unwind$?_Swap_proxy_and_iterators@_Container_base12@std@@QEAAXAEAU12@@Z
pdata	ENDS
;	COMDAT pdata
pdata	SEGMENT
$pdata$?_Release@_Basic_container_proxy_ptr12@std@@QEAAXXZ DD imagerel $LN3
	DD	imagerel $LN3+78
	DD	imagerel $unwind$?_Release@_Basic_container_proxy_ptr12@std@@QEAAXXZ
pdata	ENDS
;	COMDAT pdata
pdata	SEGMENT
$pdata$??$addressof@U_Container_base12@std@@@std@@YAPEAU_Container_base12@0@AEAU10@@Z DD imagerel $LN3
	DD	imagerel $LN3+71
	DD	imagerel $unwind$??$addressof@U_Container_base12@std@@@std@@YAPEAU_Container_base12@0@AEAU10@@Z
pdata	ENDS
;	COMDAT pdata
pdata	SEGMENT
$pdata$??$_Construct_in_place@U_Container_proxy@std@@PEAU_Container_base12@2@@std@@YAXAEAU_Container_proxy@0@$$QEAPEAU_Container_base12@0@@Z DD imagerel $LN3
	DD	imagerel $LN3+143
	DD	imagerel $unwind$??$_Construct_in_place@U_Container_proxy@std@@PEAU_Container_base12@2@@std@@YAXAEAU_Container_proxy@0@$$QEAPEAU_Container_base12@0@@Z
pdata	ENDS
;	COMDAT pdata
pdata	SEGMENT
$pdata$?what@bad_any_cast@std@@UEBAPEBDXZ DD imagerel $LN3
	DD	imagerel $LN3+71
	DD	imagerel $unwind$?what@bad_any_cast@std@@UEBAPEBDXZ
pdata	ENDS
;	COMDAT pdata
pdata	SEGMENT
$pdata$??0bad_any_cast@std@@QEAA@XZ DD imagerel $LN3
	DD	imagerel $LN3+88
	DD	imagerel $unwind$??0bad_any_cast@std@@QEAA@XZ
pdata	ENDS
;	COMDAT pdata
pdata	SEGMENT
$pdata$??1bad_any_cast@std@@UEAA@XZ DD imagerel $LN3
	DD	imagerel $LN3+64
	DD	imagerel $unwind$??1bad_any_cast@std@@UEAA@XZ
pdata	ENDS
;	COMDAT pdata
pdata	SEGMENT
$pdata$??0bad_any_cast@std@@QEAA@AEBV01@@Z DD imagerel $LN3
	DD	imagerel $LN3+100
	DD	imagerel $unwind$??0bad_any_cast@std@@QEAA@AEBV01@@Z
pdata	ENDS
;	COMDAT pdata
pdata	SEGMENT
$pdata$??_Gbad_any_cast@std@@UEAAPEAXI@Z DD imagerel $LN4
	DD	imagerel $LN4+105
	DD	imagerel $unwind$??_Gbad_any_cast@std@@UEAAPEAXI@Z
pdata	ENDS
;	COMDAT pdata
pdata	SEGMENT
$pdata$?_Throw_bad_any_cast@std@@YAXXZ DD imagerel $LN3
	DD	imagerel $LN3+102
	DD	imagerel $unwind$?_Throw_bad_any_cast@std@@YAXXZ
pdata	ENDS
;	COMDAT pdata
pdata	SEGMENT
$pdata$??1any@std@@QEAA@XZ DD imagerel $LN3
	DD	imagerel $LN3+77
	DD	imagerel $unwind$??1any@std@@QEAA@XZ
pdata	ENDS
;	COMDAT pdata
pdata	SEGMENT
$pdata$?reset@any@std@@QEAAXXZ DD imagerel $LN8
	DD	imagerel $LN8+197
	DD	imagerel $unwind$?reset@any@std@@QEAAXXZ
pdata	ENDS
;	COMDAT pdata
pdata	SEGMENT
$pdata$?has_value@any@std@@QEBA_NXZ DD imagerel $LN5
	DD	imagerel $LN5+107
	DD	imagerel $unwind$?has_value@any@std@@QEBA_NXZ
pdata	ENDS
;	COMDAT pdata
pdata	SEGMENT
$pdata$?_Rep@any@std@@AEBA?AW4_Any_representation@2@XZ DD imagerel $LN3
	DD	imagerel $LN3+79
	DD	imagerel $unwind$?_Rep@any@std@@AEBA?AW4_Any_representation@2@XZ
pdata	ENDS
;	COMDAT pdata
pdata	SEGMENT
$pdata$?_TypeInfo@any@std@@AEBAPEBVtype_info@@XZ DD imagerel $LN3
	DD	imagerel $LN3+79
	DD	imagerel $unwind$?_TypeInfo@any@std@@AEBAPEBVtype_info@@XZ
pdata	ENDS
;	COMDAT pdata
pdata	SEGMENT
$pdata$??0?$allocator@D@std@@QEAA@XZ DD imagerel $LN3
	DD	imagerel $LN3+71
	DD	imagerel $unwind$??0?$allocator@D@std@@QEAA@XZ
pdata	ENDS
;	COMDAT pdata
pdata	SEGMENT
$pdata$?deallocate@?$allocator@D@std@@QEAAXQEAD_K@Z DD imagerel $LN3
	DD	imagerel $LN3+93
	DD	imagerel $unwind$?deallocate@?$allocator@D@std@@QEAAXQEAD_K@Z
pdata	ENDS
;	COMDAT pdata
pdata	SEGMENT
$pdata$?allocate@?$allocator@D@std@@QEAAPEAD_K@Z DD imagerel $LN3
	DD	imagerel $LN3+89
	DD	imagerel $unwind$?allocate@?$allocator@D@std@@QEAAPEAD_K@Z
pdata	ENDS
;	COMDAT pdata
pdata	SEGMENT
$pdata$?compare@?$_Narrow_char_traits@DH@std@@SAHQEBD0_K@Z DD imagerel $LN3
	DD	imagerel $LN3+101
	DD	imagerel $unwind$?compare@?$_Narrow_char_traits@DH@std@@SAHQEBD0_K@Z
pdata	ENDS
;	COMDAT pdata
pdata	SEGMENT
$pdata$?length@?$_Narrow_char_traits@DH@std@@SA_KQEBD@Z DD imagerel $LN4
	DD	imagerel $LN4+123
	DD	imagerel $unwind$?length@?$_Narrow_char_traits@DH@std@@SA_KQEBD@Z
pdata	ENDS
;	COMDAT pdata
pdata	SEGMENT
$pdata$?copy@?$_Narrow_char_traits@DH@std@@SAPEADQEADQEBD_K@Z DD imagerel $LN3
	DD	imagerel $LN3+101
	DD	imagerel $unwind$?copy@?$_Narrow_char_traits@DH@std@@SAPEADQEADQEBD_K@Z
pdata	ENDS
;	COMDAT pdata
pdata	SEGMENT
$pdata$?move@?$_Narrow_char_traits@DH@std@@SAPEADQEADQEBD_K@Z DD imagerel $LN3
	DD	imagerel $LN3+101
	DD	imagerel $unwind$?move@?$_Narrow_char_traits@DH@std@@SAPEADQEADQEBD_K@Z
pdata	ENDS
;	COMDAT pdata
pdata	SEGMENT
$pdata$?assign@?$_Narrow_char_traits@DH@std@@SAXAEADAEBD@Z DD imagerel $LN3
	DD	imagerel $LN3+88
	DD	imagerel $unwind$?assign@?$_Narrow_char_traits@DH@std@@SAXAEADAEBD@Z
pdata	ENDS
;	COMDAT pdata
pdata	SEGMENT
$pdata$?to_char_type@?$_Narrow_char_traits@DH@std@@SADAEBH@Z DD imagerel $LN3
	DD	imagerel $LN3+74
	DD	imagerel $unwind$?to_char_type@?$_Narrow_char_traits@DH@std@@SADAEBH@Z
pdata	ENDS
;	COMDAT pdata
pdata	SEGMENT
$pdata$?to_int_type@?$_Narrow_char_traits@DH@std@@SAHAEBD@Z DD imagerel $LN3
	DD	imagerel $LN3+74
	DD	imagerel $unwind$?to_int_type@?$_Narrow_char_traits@DH@std@@SAHAEBD@Z
pdata	ENDS
;	COMDAT pdata
pdata	SEGMENT
$pdata$?eq_int_type@?$_Narrow_char_traits@DH@std@@SA_NAEBH0@Z DD imagerel $LN5
	DD	imagerel $LN5+118
	DD	imagerel $unwind$?eq_int_type@?$_Narrow_char_traits@DH@std@@SA_NAEBH0@Z
pdata	ENDS
;	COMDAT pdata
pdata	SEGMENT
$pdata$?eof@?$_Narrow_char_traits@DH@std@@SAHXZ DD imagerel $LN3
	DD	imagerel $LN3+57
	DD	imagerel $unwind$?eof@?$_Narrow_char_traits@DH@std@@SAHXZ
pdata	ENDS
;	COMDAT pdata
pdata	SEGMENT
$pdata$?_Xlen_string@std@@YAXXZ DD imagerel $LN3
	DD	imagerel $LN3+64
	DD	imagerel $unwind$?_Xlen_string@std@@YAXXZ
pdata	ENDS
;	COMDAT pdata
pdata	SEGMENT
$pdata$?max_size@?$_Default_allocator_traits@V?$allocator@D@std@@@std@@SA_KAEBV?$allocator@D@2@@Z DD imagerel $LN3
	DD	imagerel $LN3+71
	DD	imagerel $unwind$?max_size@?$_Default_allocator_traits@V?$allocator@D@std@@@std@@SA_KAEBV?$allocator@D@2@@Z
pdata	ENDS
;	COMDAT pdata
pdata	SEGMENT
$pdata$?select_on_container_copy_construction@?$_Default_allocator_traits@V?$allocator@D@std@@@std@@SA?AV?$allocator@D@2@AEBV32@@Z DD imagerel $LN3
	DD	imagerel $LN3+76
	DD	imagerel $unwind$?select_on_container_copy_construction@?$_Default_allocator_traits@V?$allocator@D@std@@@std@@SA?AV?$allocator@D@2@AEBV32@@Z
pdata	ENDS
;	COMDAT pdata
pdata	SEGMENT
$pdata$??0?$_String_val@U?$_Simple_types@D@std@@@std@@QEAA@XZ DD imagerel $LN4
	DD	imagerel $LN4+132
	DD	imagerel $unwind$??0?$_String_val@U?$_Simple_types@D@std@@@std@@QEAA@XZ
pdata	ENDS
;	COMDAT pdata
pdata	SEGMENT
$pdata$?_Myptr@?$_String_val@U?$_Simple_types@D@std@@@std@@QEAAPEADXZ DD imagerel $LN4
	DD	imagerel $LN4+122
	DD	imagerel $unwind$?_Myptr@?$_String_val@U?$_Simple_types@D@std@@@std@@QEAAPEADXZ
pdata	ENDS
;	COMDAT pdata
pdata	SEGMENT
$pdata$?_Myptr@?$_String_val@U?$_Simple_types@D@std@@@std@@QEBAPEBDXZ DD imagerel $LN4
	DD	imagerel $LN4+122
	DD	imagerel $unwind$?_Myptr@?$_String_val@U?$_Simple_types@D@std@@@std@@QEBAPEBDXZ
pdata	ENDS
;	COMDAT pdata
pdata	SEGMENT
$pdata$?_Large_string_engaged@?$_String_val@U?$_Simple_types@D@std@@@std@@QEBA_NXZ DD imagerel $LN5
	DD	imagerel $LN5+107
	DD	imagerel $unwind$?_Large_string_engaged@?$_String_val@U?$_Simple_types@D@std@@@std@@QEBA_NXZ
pdata	ENDS
;	COMDAT pdata
pdata	SEGMENT
$pdata$?_Check_offset@?$_String_val@U?$_Simple_types@D@std@@@std@@QEBAX_K@Z DD imagerel $LN4
	DD	imagerel $LN4+94
	DD	imagerel $unwind$?_Check_offset@?$_String_val@U?$_Simple_types@D@std@@@std@@QEBAX_K@Z
pdata	ENDS
;	COMDAT pdata
pdata	SEGMENT
$pdata$?_Xran@?$_String_val@U?$_Simple_types@D@std@@@std@@SAXXZ DD imagerel $LN3
	DD	imagerel $LN3+64
	DD	imagerel $unwind$?_Xran@?$_String_val@U?$_Simple_types@D@std@@@std@@SAXXZ
pdata	ENDS
;	COMDAT pdata
pdata	SEGMENT
$pdata$??0_Bxty@?$_String_val@U?$_Simple_types@D@std@@@std@@QEAA@XZ DD imagerel $LN3
	DD	imagerel $LN3+71
	DD	imagerel $unwind$??0_Bxty@?$_String_val@U?$_Simple_types@D@std@@@std@@QEAA@XZ
pdata	ENDS
;	COMDAT pdata
pdata	SEGMENT
$pdata$??1_Bxty@?$_String_val@U?$_Simple_types@D@std@@@std@@QEAA@XZ DD imagerel $LN3
	DD	imagerel $LN3+65
	DD	imagerel $unwind$??1_Bxty@?$_String_val@U?$_Simple_types@D@std@@@std@@QEAA@XZ
pdata	ENDS
;	COMDAT pdata
pdata	SEGMENT
$pdata$??1?$_String_val@U?$_Simple_types@D@std@@@std@@QEAA@XZ DD imagerel $LN3
	DD	imagerel $LN3+71
	DD	imagerel $unwind$??1?$_String_val@U?$_Simple_types@D@std@@@std@@QEAA@XZ
pdata	ENDS
;	COMDAT pdata
pdata	SEGMENT
$pdata$??0?$basic_string@DU?$char_traits@D@std@@V?$allocator@D@2@@std@@QEAA@AEBV01@@Z DD imagerel $LN5
	DD	imagerel $LN5+313
	DD	imagerel $unwind$??0?$basic_string@DU?$char_traits@D@std@@V?$allocator@D@2@@std@@QEAA@AEBV01@@Z
pdata	ENDS
;	COMDAT pdata
pdata	SEGMENT
$pdata$?dtor$0@?0???0?$basic_string@DU?$char_traits@D@std@@V?$allocator@D@2@@std@@QEAA@AEBV01@@Z@4HA DD imagerel ?dtor$0@?0???0?$basic_string@DU?$char_traits@D@std@@V?$allocator@D@2@@std@@QEAA@AEBV01@@Z@4HA
	DD	imagerel ?dtor$0@?0???0?$basic_string@DU?$char_traits@D@std@@V?$allocator@D@2@@std@@QEAA@AEBV01@@Z@4HA+39
	DD	imagerel $unwind$?dtor$0@?0???0?$basic_string@DU?$char_traits@D@std@@V?$allocator@D@2@@std@@QEAA@AEBV01@@Z@4HA
pdata	ENDS
;	COMDAT pdata
pdata	SEGMENT
$pdata$?dtor$1@?0???0?$basic_string@DU?$char_traits@D@std@@V?$allocator@D@2@@std@@QEAA@AEBV01@@Z@4HA DD imagerel ?dtor$1@?0???0?$basic_string@DU?$char_traits@D@std@@V?$allocator@D@2@@std@@QEAA@AEBV01@@Z@4HA
	DD	imagerel ?dtor$1@?0???0?$basic_string@DU?$char_traits@D@std@@V?$allocator@D@2@@std@@QEAA@AEBV01@@Z@4HA+36
	DD	imagerel $unwind$?dtor$1@?0???0?$basic_string@DU?$char_traits@D@std@@V?$allocator@D@2@@std@@QEAA@AEBV01@@Z@4HA
pdata	ENDS
;	COMDAT pdata
pdata	SEGMENT
$pdata$??0?$basic_string@DU?$char_traits@D@std@@V?$allocator@D@2@@std@@QEAA@XZ DD imagerel $LN3
	DD	imagerel $LN3+172
	DD	imagerel $unwind$??0?$basic_string@DU?$char_traits@D@std@@V?$allocator@D@2@@std@@QEAA@XZ
pdata	ENDS
;	COMDAT pdata
pdata	SEGMENT
$pdata$??0?$basic_string@DU?$char_traits@D@std@@V?$allocator@D@2@@std@@QEAA@QEBD@Z DD imagerel $LN5
	DD	imagerel $LN5+271
	DD	imagerel $unwind$??0?$basic_string@DU?$char_traits@D@std@@V?$allocator@D@2@@std@@QEAA@QEBD@Z
pdata	ENDS
;	COMDAT pdata
pdata	SEGMENT
$pdata$?dtor$0@?0???0?$basic_string@DU?$char_traits@D@std@@V?$allocator@D@2@@std@@QEAA@QEBD@Z@4HA DD imagerel ?dtor$0@?0???0?$basic_string@DU?$char_traits@D@std@@V?$allocator@D@2@@std@@QEAA@QEBD@Z@4HA
	DD	imagerel ?dtor$0@?0???0?$basic_string@DU?$char_traits@D@std@@V?$allocator@D@2@@std@@QEAA@QEBD@Z@4HA+39
	DD	imagerel $unwind$?dtor$0@?0???0?$basic_string@DU?$char_traits@D@std@@V?$allocator@D@2@@std@@QEAA@QEBD@Z@4HA
pdata	ENDS
;	COMDAT pdata
pdata	SEGMENT
$pdata$?dtor$1@?0???0?$basic_string@DU?$char_traits@D@std@@V?$allocator@D@2@@std@@QEAA@QEBD@Z@4HA DD imagerel ?dtor$1@?0???0?$basic_string@DU?$char_traits@D@std@@V?$allocator@D@2@@std@@QEAA@QEBD@Z@4HA
	DD	imagerel ?dtor$1@?0???0?$basic_string@DU?$char_traits@D@std@@V?$allocator@D@2@@std@@QEAA@QEBD@Z@4HA+36
	DD	imagerel $unwind$?dtor$1@?0???0?$basic_string@DU?$char_traits@D@std@@V?$allocator@D@2@@std@@QEAA@QEBD@Z@4HA
pdata	ENDS
;	COMDAT pdata
pdata	SEGMENT
$pdata$?_Construct@?$basic_string@DU?$char_traits@D@std@@V?$allocator@D@2@@std@@QEAAXQEAD0Urandom_access_iterator_tag@2@@Z DD imagerel $LN4
	DD	imagerel $LN4+145
	DD	imagerel $unwind$?_Construct@?$basic_string@DU?$char_traits@D@std@@V?$allocator@D@2@@std@@QEAAXQEAD0Urandom_access_iterator_tag@2@@Z
pdata	ENDS
;	COMDAT pdata
pdata	SEGMENT
$pdata$??0?$basic_string@DU?$char_traits@D@std@@V?$allocator@D@2@@std@@QEAA@$$QEAV01@@Z DD imagerel $LN3
	DD	imagerel $LN3+258
	DD	imagerel $unwind$??0?$basic_string@DU?$char_traits@D@std@@V?$allocator@D@2@@std@@QEAA@$$QEAV01@@Z
pdata	ENDS
;	COMDAT pdata
pdata	SEGMENT
$pdata$??0?$basic_string@DU?$char_traits@D@std@@V?$allocator@D@2@@std@@QEAA@U_String_constructor_concat_tag@1@AEBV01@QEBD_K23@Z DD imagerel $LN6
	DD	imagerel $LN6+641
	DD	imagerel $unwind$??0?$basic_string@DU?$char_traits@D@std@@V?$allocator@D@2@@std@@QEAA@U_String_constructor_concat_tag@1@AEBV01@QEBD_K23@Z
pdata	ENDS
;	COMDAT pdata
pdata	SEGMENT
$pdata$?dtor$0@?0???0?$basic_string@DU?$char_traits@D@std@@V?$allocator@D@2@@std@@QEAA@U_String_constructor_concat_tag@1@AEBV01@QEBD_K23@Z@4HA DD imagerel ?dtor$0@?0???0?$basic_string@DU?$char_traits@D@std@@V?$allocator@D@2@@std@@QEAA@U_String_constructor_concat_tag@1@AEBV01@QEBD_K23@Z@4HA
	DD	imagerel ?dtor$0@?0???0?$basic_string@DU?$char_traits@D@std@@V?$allocator@D@2@@std@@QEAA@U_String_constructor_concat_tag@1@AEBV01@QEBD_K23@Z@4HA+39
	DD	imagerel $unwind$?dtor$0@?0???0?$basic_string@DU?$char_traits@D@std@@V?$allocator@D@2@@std@@QEAA@U_String_constructor_concat_tag@1@AEBV01@QEBD_K23@Z@4HA
pdata	ENDS
;	COMDAT pdata
pdata	SEGMENT
$pdata$?dtor$1@?0???0?$basic_string@DU?$char_traits@D@std@@V?$allocator@D@2@@std@@QEAA@U_String_constructor_concat_tag@1@AEBV01@QEBD_K23@Z@4HA DD imagerel ?dtor$1@?0???0?$basic_string@DU?$char_traits@D@std@@V?$allocator@D@2@@std@@QEAA@U_String_constructor_concat_tag@1@AEBV01@QEBD_K23@Z@4HA
	DD	imagerel ?dtor$1@?0???0?$basic_string@DU?$char_traits@D@std@@V?$allocator@D@2@@std@@QEAA@U_String_constructor_concat_tag@1@AEBV01@QEBD_K23@Z@4HA+39
	DD	imagerel $unwind$?dtor$1@?0???0?$basic_string@DU?$char_traits@D@std@@V?$allocator@D@2@@std@@QEAA@U_String_constructor_concat_tag@1@AEBV01@QEBD_K23@Z@4HA
pdata	ENDS
;	COMDAT pdata
pdata	SEGMENT
$pdata$?_Move_assign@?$basic_string@DU?$char_traits@D@std@@V?$allocator@D@2@@std@@AEAAXAEAV12@U_Equal_allocators@2@@Z DD imagerel $LN3
	DD	imagerel $LN3+190
	DD	imagerel $unwind$?_Move_assign@?$basic_string@DU?$char_traits@D@std@@V?$allocator@D@2@@std@@AEAAXAEAV12@U_Equal_allocators@2@@Z
pdata	ENDS
;	COMDAT pdata
pdata	SEGMENT
$pdata$??4?$basic_string@DU?$char_traits@D@std@@V?$allocator@D@2@@std@@QEAAAEAV01@$$QEAV01@@Z DD imagerel $LN4
	DD	imagerel $LN4+143
	DD	imagerel $unwind$??4?$basic_string@DU?$char_traits@D@std@@V?$allocator@D@2@@std@@QEAAAEAV01@$$QEAV01@@Z
pdata	ENDS
;	COMDAT pdata
pdata	SEGMENT
$pdata$?_Memcpy_val_from@?$basic_string@DU?$char_traits@D@std@@V?$allocator@D@2@@std@@AEAAXAEBV12@@Z DD imagerel $LN3
	DD	imagerel $LN3+135
	DD	imagerel $unwind$?_Memcpy_val_from@?$basic_string@DU?$char_traits@D@std@@V?$allocator@D@2@@std@@AEAAXAEBV12@@Z
pdata	ENDS
;	COMDAT pdata
pdata	SEGMENT
$pdata$?_Take_contents@?$basic_string@DU?$char_traits@D@std@@V?$allocator@D@2@@std@@AEAAXAEAV12@U?$integral_constant@_N$00@2@@Z DD imagerel $LN5
	DD	imagerel $LN5+164
	DD	imagerel $unwind$?_Take_contents@?$basic_string@DU?$char_traits@D@std@@V?$allocator@D@2@@std@@AEAAXAEAV12@U?$integral_constant@_N$00@2@@Z
pdata	ENDS
;	COMDAT pdata
pdata	SEGMENT
$pdata$?_Construct_lv_contents@?$basic_string@DU?$char_traits@D@std@@V?$allocator@D@2@@std@@AEAAXAEBV12@@Z DD imagerel $LN4
	DD	imagerel $LN4+438
	DD	imagerel $unwind$?_Construct_lv_contents@?$basic_string@DU?$char_traits@D@std@@V?$allocator@D@2@@std@@AEAAXAEBV12@@Z
pdata	ENDS
;	COMDAT pdata
pdata	SEGMENT
$pdata$??1?$basic_string@DU?$char_traits@D@std@@V?$allocator@D@2@@std@@QEAA@XZ DD imagerel $LN3
	DD	imagerel $LN3+213
	DD	imagerel $unwind$??1?$basic_string@DU?$char_traits@D@std@@V?$allocator@D@2@@std@@QEAA@XZ
pdata	ENDS
;	COMDAT pdata
pdata	SEGMENT
$pdata$?_Copy_assign@?$basic_string@DU?$char_traits@D@std@@V?$allocator@D@2@@std@@AEAAXAEBV12@U?$integral_constant@_N$0A@@2@@Z DD imagerel $LN3
	DD	imagerel $LN3+197
	DD	imagerel $unwind$?_Copy_assign@?$basic_string@DU?$char_traits@D@std@@V?$allocator@D@2@@std@@AEAAXAEBV12@U?$integral_constant@_N$0A@@2@@Z
pdata	ENDS
;	COMDAT pdata
pdata	SEGMENT
$pdata$??4?$basic_string@DU?$char_traits@D@std@@V?$allocator@D@2@@std@@QEAAAEAV01@AEBV01@@Z DD imagerel $LN4
	DD	imagerel $LN4+143
	DD	imagerel $unwind$??4?$basic_string@DU?$char_traits@D@std@@V?$allocator@D@2@@std@@QEAAAEAV01@AEBV01@@Z
pdata	ENDS
;	COMDAT pdata
pdata	SEGMENT
$pdata$??Y?$basic_string@DU?$char_traits@D@std@@V?$allocator@D@2@@std@@QEAAAEAV01@D@Z DD imagerel $LN3
	DD	imagerel $LN3+94
	DD	imagerel $unwind$??Y?$basic_string@DU?$char_traits@D@std@@V?$allocator@D@2@@std@@QEAAAEAV01@D@Z
pdata	ENDS
;	COMDAT pdata
pdata	SEGMENT
$pdata$?append@?$basic_string@DU?$char_traits@D@std@@V?$allocator@D@2@@std@@QEAAAEAV12@QEBD_K@Z DD imagerel $LN4
	DD	imagerel $LN4+326
	DD	imagerel $unwind$?append@?$basic_string@DU?$char_traits@D@std@@V?$allocator@D@2@@std@@QEAAAEAV12@QEBD_K@Z
pdata	ENDS
;	COMDAT pdata
pdata	SEGMENT
$pdata$?append@?$basic_string@DU?$char_traits@D@std@@V?$allocator@D@2@@std@@QEAAAEAV12@QEBD@Z DD imagerel $LN3
	DD	imagerel $LN3+111
	DD	imagerel $unwind$?append@?$basic_string@DU?$char_traits@D@std@@V?$allocator@D@2@@std@@QEAAAEAV12@QEBD@Z
pdata	ENDS
;	COMDAT pdata
pdata	SEGMENT
$pdata$?assign@?$basic_string@DU?$char_traits@D@std@@V?$allocator@D@2@@std@@QEAAAEAV12@QEBD_K@Z DD imagerel $LN4
	DD	imagerel $LN4+255
	DD	imagerel $unwind$?assign@?$basic_string@DU?$char_traits@D@std@@V?$allocator@D@2@@std@@QEAAAEAV12@QEBD_K@Z
pdata	ENDS
;	COMDAT pdata
pdata	SEGMENT
$pdata$?assign@?$basic_string@DU?$char_traits@D@std@@V?$allocator@D@2@@std@@QEAAAEAV12@QEBD@Z DD imagerel $LN3
	DD	imagerel $LN3+111
	DD	imagerel $unwind$?assign@?$basic_string@DU?$char_traits@D@std@@V?$allocator@D@2@@std@@QEAAAEAV12@QEBD@Z
pdata	ENDS
;	COMDAT pdata
pdata	SEGMENT
$pdata$?insert@?$basic_string@DU?$char_traits@D@std@@V?$allocator@D@2@@std@@QEAAAEAV12@_KQEBD0@Z DD imagerel $LN9
	DD	imagerel $LN9+570
	DD	imagerel $unwind$?insert@?$basic_string@DU?$char_traits@D@std@@V?$allocator@D@2@@std@@QEAAAEAV12@_KQEBD0@Z
pdata	ENDS
;	COMDAT pdata
pdata	SEGMENT
$pdata$?insert@?$basic_string@DU?$char_traits@D@std@@V?$allocator@D@2@@std@@QEAAAEAV12@_KQEBD@Z DD imagerel $LN3
	DD	imagerel $LN3+123
	DD	imagerel $unwind$?insert@?$basic_string@DU?$char_traits@D@std@@V?$allocator@D@2@@std@@QEAAAEAV12@_KQEBD@Z
pdata	ENDS
;	COMDAT pdata
pdata	SEGMENT
$pdata$?erase@?$basic_string@DU?$char_traits@D@std@@V?$allocator@D@2@@std@@QEAAAEAV12@_K@Z DD imagerel $LN3
	DD	imagerel $LN3+128
	DD	imagerel $unwind$?erase@?$basic_string@DU?$char_traits@D@std@@V?$allocator@D@2@@std@@QEAAAEAV12@_K@Z
pdata	ENDS
;	COMDAT pdata
pdata	SEGMENT
$pdata$?push_back@?$basic_string@DU?$char_traits@D@std@@V?$allocator@D@2@@std@@QEAAXD@Z DD imagerel $LN4
	DD	imagerel $LN4+255
	DD	imagerel $unwind$?push_back@?$basic_string@DU?$char_traits@D@std@@V?$allocator@D@2@@std@@QEAAXD@Z
pdata	ENDS
;	COMDAT pdata
pdata	SEGMENT
$pdata$?c_str@?$basic_string@DU?$char_traits@D@std@@V?$allocator@D@2@@std@@QEBAPEBDXZ DD imagerel $LN3
	DD	imagerel $LN3+80
	DD	imagerel $unwind$?c_str@?$basic_string@DU?$char_traits@D@std@@V?$allocator@D@2@@std@@QEBAPEBDXZ
pdata	ENDS
;	COMDAT pdata
pdata	SEGMENT
$pdata$?data@?$basic_string@DU?$char_traits@D@std@@V?$allocator@D@2@@std@@QEBAPEBDXZ DD imagerel $LN3
	DD	imagerel $LN3+80
	DD	imagerel $unwind$?data@?$basic_string@DU?$char_traits@D@std@@V?$allocator@D@2@@std@@QEBAPEBDXZ
pdata	ENDS
;	COMDAT pdata
pdata	SEGMENT
$pdata$?size@?$basic_string@DU?$char_traits@D@std@@V?$allocator@D@2@@std@@QEBA_KXZ DD imagerel $LN3
	DD	imagerel $LN3+75
	DD	imagerel $unwind$?size@?$basic_string@DU?$char_traits@D@std@@V?$allocator@D@2@@std@@QEBA_KXZ
pdata	ENDS
;	COMDAT pdata
pdata	SEGMENT
$pdata$?max_size@?$basic_string@DU?$char_traits@D@std@@V?$allocator@D@2@@std@@QEBA_KXZ DD imagerel $LN3
	DD	imagerel $LN3+224
	DD	imagerel $unwind$?max_size@?$basic_string@DU?$char_traits@D@std@@V?$allocator@D@2@@std@@QEBA_KXZ
pdata	ENDS
;	COMDAT pdata
pdata	SEGMENT
$pdata$?_Equal@?$basic_string@DU?$char_traits@D@std@@V?$allocator@D@2@@std@@QEBA_NQEBD@Z DD imagerel $LN3
	DD	imagerel $LN3+162
	DD	imagerel $unwind$?_Equal@?$basic_string@DU?$char_traits@D@std@@V?$allocator@D@2@@std@@QEBA_NQEBD@Z
pdata	ENDS
;	COMDAT pdata
pdata	SEGMENT
$pdata$?_Calculate_growth@?$basic_string@DU?$char_traits@D@std@@V?$allocator@D@2@@std@@CA_K_K00@Z DD imagerel $LN5
	DD	imagerel $LN5+269
	DD	imagerel $unwind$?_Calculate_growth@?$basic_string@DU?$char_traits@D@std@@V?$allocator@D@2@@std@@CA_K_K00@Z
pdata	ENDS
;	COMDAT pdata
pdata	SEGMENT
$pdata$?_Calculate_growth@?$basic_string@DU?$char_traits@D@std@@V?$allocator@D@2@@std@@AEBA_K_K@Z DD imagerel $LN3
	DD	imagerel $LN3+133
	DD	imagerel $unwind$?_Calculate_growth@?$basic_string@DU?$char_traits@D@std@@V?$allocator@D@2@@std@@AEBA_K_K@Z
pdata	ENDS
;	COMDAT pdata
pdata	SEGMENT
$pdata$?_Eos@?$basic_string@DU?$char_traits@D@std@@V?$allocator@D@2@@std@@AEAAX_K@Z DD imagerel $LN3
	DD	imagerel $LN3+165
	DD	imagerel $unwind$?_Eos@?$basic_string@DU?$char_traits@D@std@@V?$allocator@D@2@@std@@AEAAX_K@Z
pdata	ENDS
;	COMDAT pdata
pdata	SEGMENT
$pdata$?_Tidy_init@?$basic_string@DU?$char_traits@D@std@@V?$allocator@D@2@@std@@AEAAXXZ DD imagerel $LN3
	DD	imagerel $LN3+138
	DD	imagerel $unwind$?_Tidy_init@?$basic_string@DU?$char_traits@D@std@@V?$allocator@D@2@@std@@AEAAXXZ
pdata	ENDS
;	COMDAT pdata
pdata	SEGMENT
$pdata$?_Tidy_deallocate@?$basic_string@DU?$char_traits@D@std@@V?$allocator@D@2@@std@@AEAAXXZ DD imagerel $LN4
	DD	imagerel $LN4+255
	DD	imagerel $unwind$?_Tidy_deallocate@?$basic_string@DU?$char_traits@D@std@@V?$allocator@D@2@@std@@AEAAXXZ
pdata	ENDS
;	COMDAT pdata
pdata	SEGMENT
$pdata$?_Swap_proxy_and_iterators@?$basic_string@DU?$char_traits@D@std@@V?$allocator@D@2@@std@@AEAAXAEAV12@@Z DD imagerel $LN3
	DD	imagerel $LN3+105
	DD	imagerel $unwind$?_Swap_proxy_and_iterators@?$basic_string@DU?$char_traits@D@std@@V?$allocator@D@2@@std@@AEAAXAEAV12@@Z
pdata	ENDS
;	COMDAT pdata
pdata	SEGMENT
$pdata$?_Getal@?$basic_string@DU?$char_traits@D@std@@V?$allocator@D@2@@std@@AEAAAEAV?$allocator@D@2@XZ DD imagerel $LN3
	DD	imagerel $LN3+80
	DD	imagerel $unwind$?_Getal@?$basic_string@DU?$char_traits@D@std@@V?$allocator@D@2@@std@@AEAAAEAV?$allocator@D@2@XZ
pdata	ENDS
;	COMDAT pdata
pdata	SEGMENT
$pdata$?_Getal@?$basic_string@DU?$char_traits@D@std@@V?$allocator@D@2@@std@@AEBAAEBV?$allocator@D@2@XZ DD imagerel $LN3
	DD	imagerel $LN3+80
	DD	imagerel $unwind$?_Getal@?$basic_string@DU?$char_traits@D@std@@V?$allocator@D@2@@std@@AEBAAEBV?$allocator@D@2@XZ
pdata	ENDS
;	COMDAT pdata
pdata	SEGMENT
$pdata$?_Get_first@?$_Compressed_pair@V?$allocator@D@std@@V?$_String_val@U?$_Simple_types@D@std@@@2@$00@std@@QEAAAEAV?$allocator@D@2@XZ DD imagerel $LN3
	DD	imagerel $LN3+71
	DD	imagerel $unwind$?_Get_first@?$_Compressed_pair@V?$allocator@D@std@@V?$_String_val@U?$_Simple_types@D@std@@@2@$00@std@@QEAAAEAV?$allocator@D@2@XZ
pdata	ENDS
;	COMDAT pdata
pdata	SEGMENT
$pdata$?_Get_first@?$_Compressed_pair@V?$allocator@D@std@@V?$_String_val@U?$_Simple_types@D@std@@@2@$00@std@@QEBAAEBV?$allocator@D@2@XZ DD imagerel $LN3
	DD	imagerel $LN3+71
	DD	imagerel $unwind$?_Get_first@?$_Compressed_pair@V?$allocator@D@std@@V?$_String_val@U?$_Simple_types@D@std@@@2@$00@std@@QEBAAEBV?$allocator@D@2@XZ
pdata	ENDS
;	COMDAT pdata
pdata	SEGMENT
$pdata$??1?$_Compressed_pair@V?$allocator@D@std@@V?$_String_val@U?$_Simple_types@D@std@@@2@$00@std@@QEAA@XZ DD imagerel $LN3
	DD	imagerel $LN3+67
	DD	imagerel $unwind$??1?$_Compressed_pair@V?$allocator@D@std@@V?$_String_val@U?$_Simple_types@D@std@@@2@$00@std@@QEAA@XZ
pdata	ENDS
;	COMDAT pdata
pdata	SEGMENT
$pdata$??_G?$basic_string@DU?$char_traits@D@std@@V?$allocator@D@2@@std@@QEAAPEAXI@Z DD imagerel $LN4
	DD	imagerel $LN4+105
	DD	imagerel $unwind$??_G?$basic_string@DU?$char_traits@D@std@@V?$allocator@D@2@@std@@QEAAPEAXI@Z
pdata	ENDS
;	COMDAT pdata
pdata	SEGMENT
$pdata$?to_string@std@@YA?AV?$basic_string@DU?$char_traits@D@std@@V?$allocator@D@2@@1@H@Z DD imagerel $LN5
	DD	imagerel $LN5+118
	DD	imagerel $unwind$?to_string@std@@YA?AV?$basic_string@DU?$char_traits@D@std@@V?$allocator@D@2@@1@H@Z
pdata	ENDS
;	COMDAT pdata
pdata	SEGMENT
$pdata$??$_Integral_to_string@DH@std@@YA?AV?$basic_string@DU?$char_traits@D@std@@V?$allocator@D@2@@0@H@Z DD imagerel $LN7
	DD	imagerel $LN7+284
	DD	imagerel $unwind$??$_Integral_to_string@DH@std@@YA?AV?$basic_string@DU?$char_traits@D@std@@V?$allocator@D@2@@0@H@Z
pdata	ENDS
;	COMDAT pdata
pdata	SEGMENT
$pdata$?to_string@std@@YA?AV?$basic_string@DU?$char_traits@D@std@@V?$allocator@D@2@@1@_K@Z DD imagerel $LN5
	DD	imagerel $LN5+120
	DD	imagerel $unwind$?to_string@std@@YA?AV?$basic_string@DU?$char_traits@D@std@@V?$allocator@D@2@@1@_K@Z
pdata	ENDS
;	COMDAT pdata
pdata	SEGMENT
$pdata$??$_UIntegral_to_string@D_K@std@@YA?AV?$basic_string@DU?$char_traits@D@std@@V?$allocator@D@2@@0@_K@Z DD imagerel $LN5
	DD	imagerel $LN5+223
	DD	imagerel $unwind$??$_UIntegral_to_string@D_K@std@@YA?AV?$basic_string@DU?$char_traits@D@std@@V?$allocator@D@2@@0@_K@Z
pdata	ENDS
;	COMDAT pdata
pdata	SEGMENT
$pdata$??0?$allocator@V?$basic_string@DU?$char_traits@D@std@@V?$allocator@D@2@@std@@@std@@QEAA@XZ DD imagerel $LN3
	DD	imagerel $LN3+71
	DD	imagerel $unwind$??0?$allocator@V?$basic_string@DU?$char_traits@D@std@@V?$allocator@D@2@@std@@@std@@QEAA@XZ
pdata	ENDS
;	COMDAT pdata
pdata	SEGMENT
$pdata$?deallocate@?$allocator@V?$basic_string@DU?$char_traits@D@std@@V?$allocator@D@2@@std@@@std@@QEAAXQEAV?$basic_string@DU?$char_traits@D@std@@V?$allocator@D@2@@2@_K@Z DD imagerel $LN3
	DD	imagerel $LN3+97
	DD	imagerel $unwind$?deallocate@?$allocator@V?$basic_string@DU?$char_traits@D@std@@V?$allocator@D@2@@std@@@std@@QEAAXQEAV?$basic_string@DU?$char_traits@D@std@@V?$allocator@D@2@@2@_K@Z
pdata	ENDS
;	COMDAT pdata
pdata	SEGMENT
$pdata$?allocate@?$allocator@V?$basic_string@DU?$char_traits@D@std@@V?$allocator@D@2@@std@@@std@@QEAAPEAV?$basic_string@DU?$char_traits@D@std@@V?$allocator@D@2@@2@_K@Z DD imagerel $LN3
	DD	imagerel $LN3+89
	DD	imagerel $unwind$?allocate@?$allocator@V?$basic_string@DU?$char_traits@D@std@@V?$allocator@D@2@@std@@@std@@QEAAPEAV?$basic_string@DU?$char_traits@D@std@@V?$allocator@D@2@@2@_K@Z
pdata	ENDS
;	COMDAT pdata
pdata	SEGMENT
$pdata$?max_size@?$_Default_allocator_traits@V?$allocator@V?$basic_string@DU?$char_traits@D@std@@V?$allocator@D@2@@std@@@std@@@std@@SA_KAEBV?$allocator@V?$basic_string@DU?$char_traits@D@std@@V?$allocator@D@2@@std@@@2@@Z DD imagerel $LN3
	DD	imagerel $LN3+74
	DD	imagerel $unwind$?max_size@?$_Default_allocator_traits@V?$allocator@V?$basic_string@DU?$char_traits@D@std@@V?$allocator@D@2@@std@@@std@@@std@@SA_KAEBV?$allocator@V?$basic_string@DU?$char_traits@D@std@@V?$allocator@D@2@@std@@@2@@Z
pdata	ENDS
;	COMDAT pdata
pdata	SEGMENT
$pdata$??0?$vector@V?$basic_string@DU?$char_traits@D@std@@V?$allocator@D@2@@std@@V?$allocator@V?$basic_string@DU?$char_traits@D@std@@V?$allocator@D@2@@std@@@2@@std@@QEAA@XZ DD imagerel $LN3
	DD	imagerel $LN3+160
	DD	imagerel $unwind$??0?$vector@V?$basic_string@DU?$char_traits@D@std@@V?$allocator@D@2@@std@@V?$allocator@V?$basic_string@DU?$char_traits@D@std@@V?$allocator@D@2@@std@@@2@@std@@QEAA@XZ
pdata	ENDS
;	COMDAT pdata
pdata	SEGMENT
$pdata$??0?$vector@V?$basic_string@DU?$char_traits@D@std@@V?$allocator@D@2@@std@@V?$allocator@V?$basic_string@DU?$char_traits@D@std@@V?$allocator@D@2@@std@@@2@@std@@QEAA@_KAEBV?$allocator@V?$basic_string@DU?$char_traits@D@std@@V?$allocator@D@2@@std@@@1@@Z DD imagerel $LN3
	DD	imagerel $LN3+147
	DD	imagerel $unwind$??0?$vector@V?$basic_string@DU?$char_traits@D@std@@V?$allocator@D@2@@std@@V?$allocator@V?$basic_string@DU?$char_traits@D@std@@V?$allocator@D@2@@std@@@2@@std@@QEAA@_KAEBV?$allocator@V?$basic_string@DU?$char_traits@D@std@@V?$allocator@D@2@@std@@@1@@Z
pdata	ENDS
;	COMDAT pdata
pdata	SEGMENT
$pdata$??0?$vector@V?$basic_string@DU?$char_traits@D@std@@V?$allocator@D@2@@std@@V?$allocator@V?$basic_string@DU?$char_traits@D@std@@V?$allocator@D@2@@std@@@2@@std@@QEAA@V?$initializer_list@V?$basic_string@DU?$char_traits@D@std@@V?$allocator@D@2@@std@@@1@AEBV?$allocator@V?$basic_string@DU?$char_traits@D@std@@V?$allocator@D@2@@std@@@1@@Z DD imagerel $LN4
	DD	imagerel $LN4+367
	DD	imagerel $unwind$??0?$vector@V?$basic_string@DU?$char_traits@D@std@@V?$allocator@D@2@@std@@V?$allocator@V?$basic_string@DU?$char_traits@D@std@@V?$allocator@D@2@@std@@@2@@std@@QEAA@V?$initializer_list@V?$basic_string@DU?$char_traits@D@std@@V?$allocator@D@2@@std@@@1@AEBV?$allocator@V?$basic_string@DU?$char_traits@D@std@@V?$allocator@D@2@@std@@@1@@Z
pdata	ENDS
;	COMDAT pdata
pdata	SEGMENT
$pdata$?dtor$0@?0???0?$vector@V?$basic_string@DU?$char_traits@D@std@@V?$allocator@D@2@@std@@V?$allocator@V?$basic_string@DU?$char_traits@D@std@@V?$allocator@D@2@@std@@@2@@std@@QEAA@V?$initializer_list@V?$basic_string@DU?$char_traits@D@std@@V?$allocator@D@2@@std@@@1@AEBV?$allocator@V?$basic_string@DU?$char_traits@D@std@@V?$allocator@D@2@@std@@@1@@Z@4HA DD imagerel ?dtor$0@?0???0?$vector@V?$basic_string@DU?$char_traits@D@std@@V?$allocator@D@2@@std@@V?$allocator@V?$basic_string@DU?$char_traits@D@std@@V?$allocator@D@2@@std@@@2@@std@@QEAA@V?$initializer_list@V?$basic_string@DU?$char_traits@D@std@@V?$allocator@D@2@@std@@@1@AEBV?$allocator@V?$basic_string@DU?$char_traits@D@std@@V?$allocator@D@2@@std@@@1@@Z@4HA
	DD	imagerel ?dtor$0@?0???0?$vector@V?$basic_string@DU?$char_traits@D@std@@V?$allocator@D@2@@std@@V?$allocator@V?$basic_string@DU?$char_traits@D@std@@V?$allocator@D@2@@std@@@2@@std@@QEAA@V?$initializer_list@V?$basic_string@DU?$char_traits@D@std@@V?$allocator@D@2@@std@@@1@AEBV?$allocator@V?$basic_string@DU?$char_traits@D@std@@V?$allocator@D@2@@std@@@1@@Z@4HA+36
	DD	imagerel $unwind$?dtor$0@?0???0?$vector@V?$basic_string@DU?$char_traits@D@std@@V?$allocator@D@2@@std@@V?$allocator@V?$basic_string@DU?$char_traits@D@std@@V?$allocator@D@2@@std@@@2@@std@@QEAA@V?$initializer_list@V?$basic_string@DU?$char_traits@D@std@@V?$allocator@D@2@@std@@@1@AEBV?$allocator@V?$basic_string@DU?$char_traits@D@std@@V?$allocator@D@2@@std@@@1@@Z@4HA
pdata	ENDS
;	COMDAT pdata
pdata	SEGMENT
$pdata$??1?$vector@V?$basic_string@DU?$char_traits@D@std@@V?$allocator@D@2@@std@@V?$allocator@V?$basic_string@DU?$char_traits@D@std@@V?$allocator@D@2@@std@@@2@@std@@QEAA@XZ DD imagerel $LN3
	DD	imagerel $LN3+202
	DD	imagerel $unwind$??1?$vector@V?$basic_string@DU?$char_traits@D@std@@V?$allocator@D@2@@std@@V?$allocator@V?$basic_string@DU?$char_traits@D@std@@V?$allocator@D@2@@std@@@2@@std@@QEAA@XZ
pdata	ENDS
;	COMDAT pdata
pdata	SEGMENT
$pdata$?size@?$vector@V?$basic_string@DU?$char_traits@D@std@@V?$allocator@D@2@@std@@V?$allocator@V?$basic_string@DU?$char_traits@D@std@@V?$allocator@D@2@@std@@@2@@std@@QEBA_KXZ DD imagerel $LN3
	DD	imagerel $LN3+104
	DD	imagerel $unwind$?size@?$vector@V?$basic_string@DU?$char_traits@D@std@@V?$allocator@D@2@@std@@V?$allocator@V?$basic_string@DU?$char_traits@D@std@@V?$allocator@D@2@@std@@@2@@std@@QEBA_KXZ
pdata	ENDS
;	COMDAT pdata
pdata	SEGMENT
$pdata$?max_size@?$vector@V?$basic_string@DU?$char_traits@D@std@@V?$allocator@D@2@@std@@V?$allocator@V?$basic_string@DU?$char_traits@D@std@@V?$allocator@D@2@@std@@@2@@std@@QEBA_KXZ DD imagerel $LN3
	DD	imagerel $LN3+125
	DD	imagerel $unwind$?max_size@?$vector@V?$basic_string@DU?$char_traits@D@std@@V?$allocator@D@2@@std@@V?$allocator@V?$basic_string@DU?$char_traits@D@std@@V?$allocator@D@2@@std@@@2@@std@@QEBA_KXZ
pdata	ENDS
;	COMDAT pdata
pdata	SEGMENT
$pdata$??A?$vector@V?$basic_string@DU?$char_traits@D@std@@V?$allocator@D@2@@std@@V?$allocator@V?$basic_string@DU?$char_traits@D@std@@V?$allocator@D@2@@std@@@2@@std@@QEAAAEAV?$basic_string@DU?$char_traits@D@std@@V?$allocator@D@2@@1@_K@Z DD imagerel $LN12
	DD	imagerel $LN12+253
	DD	imagerel $unwind$??A?$vector@V?$basic_string@DU?$char_traits@D@std@@V?$allocator@D@2@@std@@V?$allocator@V?$basic_string@DU?$char_traits@D@std@@V?$allocator@D@2@@std@@@2@@std@@QEAAAEAV?$basic_string@DU?$char_traits@D@std@@V?$allocator@D@2@@1@_K@Z
pdata	ENDS
;	COMDAT pdata
pdata	SEGMENT
$pdata$?_Ufill@?$vector@V?$basic_string@DU?$char_traits@D@std@@V?$allocator@D@2@@std@@V?$allocator@V?$basic_string@DU?$char_traits@D@std@@V?$allocator@D@2@@std@@@2@@std@@AEAAPEAV?$basic_string@DU?$char_traits@D@std@@V?$allocator@D@2@@2@PEAV32@_KU_Value_init_tag@2@@Z DD imagerel $LN3
	DD	imagerel $LN3+113
	DD	imagerel $unwind$?_Ufill@?$vector@V?$basic_string@DU?$char_traits@D@std@@V?$allocator@D@2@@std@@V?$allocator@V?$basic_string@DU?$char_traits@D@std@@V?$allocator@D@2@@std@@@2@@std@@AEAAPEAV?$basic_string@DU?$char_traits@D@std@@V?$allocator@D@2@@2@PEAV32@_KU_Value_init_tag@2@@Z
pdata	ENDS
;	COMDAT pdata
pdata	SEGMENT
$pdata$?_Destroy@?$vector@V?$basic_string@DU?$char_traits@D@std@@V?$allocator@D@2@@std@@V?$allocator@V?$basic_string@DU?$char_traits@D@std@@V?$allocator@D@2@@std@@@2@@std@@AEAAXPEAV?$basic_string@DU?$char_traits@D@std@@V?$allocator@D@2@@2@0@Z DD imagerel $LN3
	DD	imagerel $LN3+108
	DD	imagerel $unwind$?_Destroy@?$vector@V?$basic_string@DU?$char_traits@D@std@@V?$allocator@D@2@@std@@V?$allocator@V?$basic_string@DU?$char_traits@D@std@@V?$allocator@D@2@@std@@@2@@std@@AEAAXPEAV?$basic_string@DU?$char_traits@D@std@@V?$allocator@D@2@@2@0@Z
pdata	ENDS
;	COMDAT pdata
pdata	SEGMENT
$pdata$?_Buy_raw@?$vector@V?$basic_string@DU?$char_traits@D@std@@V?$allocator@D@2@@std@@V?$allocator@V?$basic_string@DU?$char_traits@D@std@@V?$allocator@D@2@@std@@@2@@std@@AEAAX_K@Z DD imagerel $LN3
	DD	imagerel $LN3+217
	DD	imagerel $unwind$?_Buy_raw@?$vector@V?$basic_string@DU?$char_traits@D@std@@V?$allocator@D@2@@std@@V?$allocator@V?$basic_string@DU?$char_traits@D@std@@V?$allocator@D@2@@std@@@2@@std@@AEAAX_K@Z
pdata	ENDS
;	COMDAT pdata
pdata	SEGMENT
$pdata$?_Buy_nonzero@?$vector@V?$basic_string@DU?$char_traits@D@std@@V?$allocator@D@2@@std@@V?$allocator@V?$basic_string@DU?$char_traits@D@std@@V?$allocator@D@2@@std@@@2@@std@@AEAAX_K@Z DD imagerel $LN4
	DD	imagerel $LN4+114
	DD	imagerel $unwind$?_Buy_nonzero@?$vector@V?$basic_string@DU?$char_traits@D@std@@V?$allocator@D@2@@std@@V?$allocator@V?$basic_string@DU?$char_traits@D@std@@V?$allocator@D@2@@std@@@2@@std@@AEAAX_K@Z
pdata	ENDS
;	COMDAT pdata
pdata	SEGMENT
$pdata$?_Tidy@?$vector@V?$basic_string@DU?$char_traits@D@std@@V?$allocator@D@2@@std@@V?$allocator@V?$basic_string@DU?$char_traits@D@std@@V?$allocator@D@2@@std@@@2@@std@@AEAAXXZ DD imagerel $LN4
	DD	imagerel $LN4+286
	DD	imagerel $unwind$?_Tidy@?$vector@V?$basic_string@DU?$char_traits@D@std@@V?$allocator@D@2@@std@@V?$allocator@V?$basic_string@DU?$char_traits@D@std@@V?$allocator@D@2@@std@@@2@@std@@AEAAXXZ
pdata	ENDS
;	COMDAT pdata
pdata	SEGMENT
$pdata$?_Xlength@?$vector@V?$basic_string@DU?$char_traits@D@std@@V?$allocator@D@2@@std@@V?$allocator@V?$basic_string@DU?$char_traits@D@std@@V?$allocator@D@2@@std@@@2@@std@@CAXXZ DD imagerel $LN3
	DD	imagerel $LN3+64
	DD	imagerel $unwind$?_Xlength@?$vector@V?$basic_string@DU?$char_traits@D@std@@V?$allocator@D@2@@std@@V?$allocator@V?$basic_string@DU?$char_traits@D@std@@V?$allocator@D@2@@std@@@2@@std@@CAXXZ
pdata	ENDS
;	COMDAT pdata
pdata	SEGMENT
$pdata$?_Getal@?$vector@V?$basic_string@DU?$char_traits@D@std@@V?$allocator@D@2@@std@@V?$allocator@V?$basic_string@DU?$char_traits@D@std@@V?$allocator@D@2@@std@@@2@@std@@AEAAAEAV?$allocator@V?$basic_string@DU?$char_traits@D@std@@V?$allocator@D@2@@std@@@2@XZ DD imagerel $LN3
	DD	imagerel $LN3+80
	DD	imagerel $unwind$?_Getal@?$vector@V?$basic_string@DU?$char_traits@D@std@@V?$allocator@D@2@@std@@V?$allocator@V?$basic_string@DU?$char_traits@D@std@@V?$allocator@D@2@@std@@@2@@std@@AEAAAEAV?$allocator@V?$basic_string@DU?$char_traits@D@std@@V?$allocator@D@2@@std@@@2@XZ
pdata	ENDS
;	COMDAT pdata
pdata	SEGMENT
$pdata$?_Getal@?$vector@V?$basic_string@DU?$char_traits@D@std@@V?$allocator@D@2@@std@@V?$allocator@V?$basic_string@DU?$char_traits@D@std@@V?$allocator@D@2@@std@@@2@@std@@AEBAAEBV?$allocator@V?$basic_string@DU?$char_traits@D@std@@V?$allocator@D@2@@std@@@2@XZ DD imagerel $LN3
	DD	imagerel $LN3+80
	DD	imagerel $unwind$?_Getal@?$vector@V?$basic_string@DU?$char_traits@D@std@@V?$allocator@D@2@@std@@V?$allocator@V?$basic_string@DU?$char_traits@D@std@@V?$allocator@D@2@@std@@@2@@std@@AEBAAEBV?$allocator@V?$basic_string@DU?$char_traits@D@std@@V?$allocator@D@2@@std@@@2@XZ
pdata	ENDS
;	COMDAT pdata
pdata	SEGMENT
$pdata$??0?$_Vector_val@U?$_Simple_types@V?$basic_string@DU?$char_traits@D@std@@V?$allocator@D@2@@std@@@std@@@std@@QEAA@XZ DD imagerel $LN3
	DD	imagerel $LN3+128
	DD	imagerel $unwind$??0?$_Vector_val@U?$_Simple_types@V?$basic_string@DU?$char_traits@D@std@@V?$allocator@D@2@@std@@@std@@@std@@QEAA@XZ
pdata	ENDS
;	COMDAT pdata
pdata	SEGMENT
$pdata$?_Get_first@?$_Compressed_pair@V?$allocator@V?$basic_string@DU?$char_traits@D@std@@V?$allocator@D@2@@std@@@std@@V?$_Vector_val@U?$_Simple_types@V?$basic_string@DU?$char_traits@D@std@@V?$allocator@D@2@@std@@@std@@@2@$00@std@@QEAAAEAV?$allocator@V?$basic_string@DU?$char_traits@D@std@@V?$allocator@D@2@@std@@@2@XZ DD imagerel $LN3
	DD	imagerel $LN3+71
	DD	imagerel $unwind$?_Get_first@?$_Compressed_pair@V?$allocator@V?$basic_string@DU?$char_traits@D@std@@V?$allocator@D@2@@std@@@std@@V?$_Vector_val@U?$_Simple_types@V?$basic_string@DU?$char_traits@D@std@@V?$allocator@D@2@@std@@@std@@@2@$00@std@@QEAAAEAV?$allocator@V?$basic_string@DU?$char_traits@D@std@@V?$allocator@D@2@@std@@@2@XZ
pdata	ENDS
;	COMDAT pdata
pdata	SEGMENT
$pdata$?_Get_first@?$_Compressed_pair@V?$allocator@V?$basic_string@DU?$char_traits@D@std@@V?$allocator@D@2@@std@@@std@@V?$_Vector_val@U?$_Simple_types@V?$basic_string@DU?$char_traits@D@std@@V?$allocator@D@2@@std@@@std@@@2@$00@std@@QEBAAEBV?$allocator@V?$basic_string@DU?$char_traits@D@std@@V?$allocator@D@2@@std@@@2@XZ DD imagerel $LN3
	DD	imagerel $LN3+71
	DD	imagerel $unwind$?_Get_first@?$_Compressed_pair@V?$allocator@V?$basic_string@DU?$char_traits@D@std@@V?$allocator@D@2@@std@@@std@@V?$_Vector_val@U?$_Simple_types@V?$basic_string@DU?$char_traits@D@std@@V?$allocator@D@2@@std@@@std@@@2@$00@std@@QEBAAEBV?$allocator@V?$basic_string@DU?$char_traits@D@std@@V?$allocator@D@2@@std@@@2@XZ
pdata	ENDS
;	COMDAT pdata
pdata	SEGMENT
$pdata$?__autoclassinit2@?$vector@V?$basic_string@DU?$char_traits@D@std@@V?$allocator@D@2@@std@@V?$allocator@V?$basic_string@DU?$char_traits@D@std@@V?$allocator@D@2@@std@@@2@@std@@QEAAX_K@Z DD imagerel $LN3
	DD	imagerel $LN3+73
	DD	imagerel $unwind$?__autoclassinit2@?$vector@V?$basic_string@DU?$char_traits@D@std@@V?$allocator@D@2@@std@@V?$allocator@V?$basic_string@DU?$char_traits@D@std@@V?$allocator@D@2@@std@@@2@@std@@QEAAX_K@Z
pdata	ENDS
;	COMDAT pdata
pdata	SEGMENT
$pdata$??1UserCredentials@Persistence@TechnicalServices@@QEAA@XZ DD imagerel $LN3
	DD	imagerel $LN3+105
	DD	imagerel $unwind$??1UserCredentials@Persistence@TechnicalServices@@QEAA@XZ
pdata	ENDS
;	COMDAT pdata
pdata	SEGMENT
$pdata$??1Client@Persistence@TechnicalServices@@QEAA@XZ DD imagerel $LN3
	DD	imagerel $LN3+86
	DD	imagerel $unwind$??1Client@Persistence@TechnicalServices@@QEAA@XZ
pdata	ENDS
;	COMDAT pdata
pdata	SEGMENT
$pdata$??0Client@Persistence@TechnicalServices@@QEAA@AEBU012@@Z DD imagerel $LN5
	DD	imagerel $LN5+185
	DD	imagerel $unwind$??0Client@Persistence@TechnicalServices@@QEAA@AEBU012@@Z
pdata	ENDS
;	COMDAT pdata
pdata	SEGMENT
$pdata$?dtor$0@?0???0Client@Persistence@TechnicalServices@@QEAA@AEBU012@@Z@4HA DD imagerel ?dtor$0@?0???0Client@Persistence@TechnicalServices@@QEAA@AEBU012@@Z@4HA
	DD	imagerel ?dtor$0@?0???0Client@Persistence@TechnicalServices@@QEAA@AEBU012@@Z@4HA+39
	DD	imagerel $unwind$?dtor$0@?0???0Client@Persistence@TechnicalServices@@QEAA@AEBU012@@Z@4HA
pdata	ENDS
;	COMDAT pdata
pdata	SEGMENT
$pdata$??4Client@Persistence@TechnicalServices@@QEAAAEAU012@AEBU012@@Z DD imagerel $LN3
	DD	imagerel $LN3+156
	DD	imagerel $unwind$??4Client@Persistence@TechnicalServices@@QEAAAEAU012@AEBU012@@Z
pdata	ENDS
;	COMDAT pdata
pdata	SEGMENT
$pdata$??_GClient@Persistence@TechnicalServices@@QEAAPEAXI@Z DD imagerel $LN4
	DD	imagerel $LN4+105
	DD	imagerel $unwind$??_GClient@Persistence@TechnicalServices@@QEAAPEAXI@Z
pdata	ENDS
;	COMDAT pdata
pdata	SEGMENT
$pdata$??1Clientprofile@Persistence@TechnicalServices@@QEAA@XZ DD imagerel $LN3
	DD	imagerel $LN3+71
	DD	imagerel $unwind$??1Clientprofile@Persistence@TechnicalServices@@QEAA@XZ
pdata	ENDS
;	COMDAT pdata
pdata	SEGMENT
$pdata$??0Clientprofile@Persistence@TechnicalServices@@QEAA@AEBU012@@Z DD imagerel $LN4
	DD	imagerel $LN4+146
	DD	imagerel $unwind$??0Clientprofile@Persistence@TechnicalServices@@QEAA@AEBU012@@Z
pdata	ENDS
;	COMDAT pdata
pdata	SEGMENT
$pdata$??0Clientprofile@Persistence@TechnicalServices@@QEAA@$$QEAU012@@Z DD imagerel $LN3
	DD	imagerel $LN3+146
	DD	imagerel $unwind$??0Clientprofile@Persistence@TechnicalServices@@QEAA@$$QEAU012@@Z
pdata	ENDS
;	COMDAT pdata
pdata	SEGMENT
$pdata$??4Clientprofile@Persistence@TechnicalServices@@QEAAAEAU012@AEBU012@@Z DD imagerel $LN3
	DD	imagerel $LN3+132
	DD	imagerel $unwind$??4Clientprofile@Persistence@TechnicalServices@@QEAAAEAU012@AEBU012@@Z
pdata	ENDS
;	COMDAT pdata
pdata	SEGMENT
$pdata$??_GClientprofile@Persistence@TechnicalServices@@QEAAPEAXI@Z DD imagerel $LN4
	DD	imagerel $LN4+105
	DD	imagerel $unwind$??_GClientprofile@Persistence@TechnicalServices@@QEAAPEAXI@Z
pdata	ENDS
;	COMDAT pdata
pdata	SEGMENT
$pdata$??0locale@std@@QEAA@XZ DD imagerel $LN3
	DD	imagerel $LN3+89
	DD	imagerel $unwind$??0locale@std@@QEAA@XZ
pdata	ENDS
;	COMDAT pdata
pdata	SEGMENT
$pdata$??1locale@std@@QEAA@XZ DD imagerel $LN6
	DD	imagerel $LN6+181
	DD	imagerel $unwind$??1locale@std@@QEAA@XZ
pdata	ENDS
;	COMDAT pdata
pdata	SEGMENT
$pdata$?_Getfacet@locale@std@@QEBAPEBVfacet@12@_K@Z DD imagerel $LN8
	DD	imagerel $LN8+231
	DD	imagerel $unwind$?_Getfacet@locale@std@@QEBAPEBVfacet@12@_K@Z
pdata	ENDS
;	COMDAT pdata
pdata	SEGMENT
$pdata$??$_Maklocstr@_W@std@@YAPEA_WPEBDPEA_WAEBU_Cvtvec@@@Z DD imagerel $LN12
	DD	imagerel $LN12+584
	DD	imagerel $unwind$??$_Maklocstr@_W@std@@YAPEA_WPEBDPEA_WAEBU_Cvtvec@@@Z
pdata	ENDS
;	COMDAT pdata
pdata	SEGMENT
$pdata$??$_Adl_verify_range@PEADPEAD@std@@YAXAEBQEAD0@Z DD imagerel $LN3
	DD	imagerel $LN3+94
	DD	imagerel $unwind$??$_Adl_verify_range@PEADPEAD@std@@YAXAEBQEAD0@Z
pdata	ENDS
;	COMDAT pdata
pdata	SEGMENT
$pdata$??$use_facet@V?$ctype@D@std@@@std@@YAAEBV?$ctype@D@0@AEBVlocale@0@@Z DD imagerel $LN11
	DD	imagerel $LN11+393
	DD	imagerel $unwind$??$use_facet@V?$ctype@D@std@@@std@@YAAEBV?$ctype@D@0@AEBVlocale@0@@Z
pdata	ENDS
;	COMDAT pdata
pdata	SEGMENT
$pdata$?dtor$0@?0???$use_facet@V?$ctype@D@std@@@std@@YAAEBV?$ctype@D@0@AEBVlocale@0@@Z@4HA DD imagerel ?dtor$0@?0???$use_facet@V?$ctype@D@std@@@std@@YAAEBV?$ctype@D@0@AEBVlocale@0@@Z@4HA
	DD	imagerel ?dtor$0@?0???$use_facet@V?$ctype@D@std@@@std@@YAAEBV?$ctype@D@0@AEBVlocale@0@@Z@4HA+37
	DD	imagerel $unwind$?dtor$0@?0???$use_facet@V?$ctype@D@std@@@std@@YAAEBV?$ctype@D@0@AEBVlocale@0@@Z@4HA
pdata	ENDS
;	COMDAT pdata
pdata	SEGMENT
$pdata$?dtor$1@?0???$use_facet@V?$ctype@D@std@@@std@@YAAEBV?$ctype@D@0@AEBVlocale@0@@Z@4HA DD imagerel ?dtor$1@?0???$use_facet@V?$ctype@D@std@@@std@@YAAEBV?$ctype@D@0@AEBVlocale@0@@Z@4HA
	DD	imagerel ?dtor$1@?0???$use_facet@V?$ctype@D@std@@@std@@YAAEBV?$ctype@D@0@AEBVlocale@0@@Z@4HA+39
	DD	imagerel $unwind$?dtor$1@?0???$use_facet@V?$ctype@D@std@@@std@@YAAEBV?$ctype@D@0@AEBVlocale@0@@Z@4HA
pdata	ENDS
;	COMDAT pdata
pdata	SEGMENT
$pdata$?_Maklocwcs@std@@YAPEA_WPEB_W@Z DD imagerel $LN4
	DD	imagerel $LN4+165
	DD	imagerel $unwind$?_Maklocwcs@std@@YAPEA_WPEB_W@Z
pdata	ENDS
;	COMDAT pdata
pdata	SEGMENT
$pdata$??$_Maklocstr@D@std@@YAPEADPEBDPEADAEBU_Cvtvec@@@Z DD imagerel $LN7
	DD	imagerel $LN7+223
	DD	imagerel $unwind$??$_Maklocstr@D@std@@YAPEADPEBDPEADAEBU_Cvtvec@@@Z
pdata	ENDS
;	COMDAT pdata
pdata	SEGMENT
$pdata$??0UserInterfaceHandler@UI@@QEAA@XZ DD imagerel $LN3
	DD	imagerel $LN3+74
	DD	imagerel $unwind$??0UserInterfaceHandler@UI@@QEAA@XZ
pdata	ENDS
;	COMDAT pdata
pdata	SEGMENT
$pdata$??0SimpleUI@UI@@QEAA@XZ DD imagerel $LN8
	DD	imagerel $LN8+310
	DD	imagerel $unwind$??0SimpleUI@UI@@QEAA@XZ
pdata	ENDS
;	COMDAT pdata
pdata	SEGMENT
$pdata$?dtor$0@?0???0SimpleUI@UI@@QEAA@XZ@4HA DD imagerel ?dtor$0@?0???0SimpleUI@UI@@QEAA@XZ@4HA
	DD	imagerel ?dtor$0@?0???0SimpleUI@UI@@QEAA@XZ@4HA+39
	DD	imagerel $unwind$?dtor$0@?0???0SimpleUI@UI@@QEAA@XZ@4HA
pdata	ENDS
;	COMDAT pdata
pdata	SEGMENT
$pdata$?dtor$1@?0???0SimpleUI@UI@@QEAA@XZ@4HA DD imagerel ?dtor$1@?0???0SimpleUI@UI@@QEAA@XZ@4HA
	DD	imagerel ?dtor$1@?0???0SimpleUI@UI@@QEAA@XZ@4HA+43
	DD	imagerel $unwind$?dtor$1@?0???0SimpleUI@UI@@QEAA@XZ@4HA
pdata	ENDS
;	COMDAT pdata
pdata	SEGMENT
$pdata$?dtor$2@?0???0SimpleUI@UI@@QEAA@XZ@4HA DD imagerel ?dtor$2@?0???0SimpleUI@UI@@QEAA@XZ@4HA
	DD	imagerel ?dtor$2@?0???0SimpleUI@UI@@QEAA@XZ@4HA+43
	DD	imagerel $unwind$?dtor$2@?0???0SimpleUI@UI@@QEAA@XZ@4HA
pdata	ENDS
;	COMDAT pdata
pdata	SEGMENT
$pdata$?dtor$3@?0???0SimpleUI@UI@@QEAA@XZ@4HA DD imagerel ?dtor$3@?0???0SimpleUI@UI@@QEAA@XZ@4HA
	DD	imagerel ?dtor$3@?0???0SimpleUI@UI@@QEAA@XZ@4HA+43
	DD	imagerel $unwind$?dtor$3@?0???0SimpleUI@UI@@QEAA@XZ@4HA
pdata	ENDS
;	COMDAT pdata
pdata	SEGMENT
$pdata$?dtor$4@?0???0SimpleUI@UI@@QEAA@XZ@4HA DD imagerel ?dtor$4@?0???0SimpleUI@UI@@QEAA@XZ@4HA
	DD	imagerel ?dtor$4@?0???0SimpleUI@UI@@QEAA@XZ@4HA+39
	DD	imagerel $unwind$?dtor$4@?0???0SimpleUI@UI@@QEAA@XZ@4HA
pdata	ENDS
;	COMDAT pdata
pdata	SEGMENT
$pdata$?launch@SimpleUI@UI@@UEAAXXZ DD imagerel $LN156
	DD	imagerel $LN156+10557
	DD	imagerel $unwind$?launch@SimpleUI@UI@@UEAAXXZ
pdata	ENDS
;	COMDAT pdata
pdata	SEGMENT
$pdata$?dtor$0@?0??launch@SimpleUI@UI@@UEAAXXZ@4HA DD imagerel ?dtor$0@?0??launch@SimpleUI@UI@@UEAAXXZ@4HA
	DD	imagerel ?dtor$0@?0??launch@SimpleUI@UI@@UEAAXXZ@4HA+36
	DD	imagerel $unwind$?dtor$0@?0??launch@SimpleUI@UI@@UEAAXXZ@4HA
pdata	ENDS
;	COMDAT pdata
pdata	SEGMENT
$pdata$?dtor$1@?0??launch@SimpleUI@UI@@UEAAXXZ@4HA DD imagerel ?dtor$1@?0??launch@SimpleUI@UI@@UEAAXXZ@4HA
	DD	imagerel ?dtor$1@?0??launch@SimpleUI@UI@@UEAAXXZ@4HA+36
	DD	imagerel $unwind$?dtor$1@?0??launch@SimpleUI@UI@@UEAAXXZ@4HA
pdata	ENDS
;	COMDAT pdata
pdata	SEGMENT
$pdata$?dtor$2@?0??launch@SimpleUI@UI@@UEAAXXZ@4HA DD imagerel ?dtor$2@?0??launch@SimpleUI@UI@@UEAAXXZ@4HA
	DD	imagerel ?dtor$2@?0??launch@SimpleUI@UI@@UEAAXXZ@4HA+39
	DD	imagerel $unwind$?dtor$2@?0??launch@SimpleUI@UI@@UEAAXXZ@4HA
pdata	ENDS
;	COMDAT pdata
pdata	SEGMENT
$pdata$?dtor$3@?0??launch@SimpleUI@UI@@UEAAXXZ@4HA DD imagerel ?dtor$3@?0??launch@SimpleUI@UI@@UEAAXXZ@4HA
	DD	imagerel ?dtor$3@?0??launch@SimpleUI@UI@@UEAAXXZ@4HA+39
	DD	imagerel $unwind$?dtor$3@?0??launch@SimpleUI@UI@@UEAAXXZ@4HA
pdata	ENDS
;	COMDAT pdata
pdata	SEGMENT
$pdata$?dtor$4@?0??launch@SimpleUI@UI@@UEAAXXZ@4HA DD imagerel ?dtor$4@?0??launch@SimpleUI@UI@@UEAAXXZ@4HA
	DD	imagerel ?dtor$4@?0??launch@SimpleUI@UI@@UEAAXXZ@4HA+39
	DD	imagerel $unwind$?dtor$4@?0??launch@SimpleUI@UI@@UEAAXXZ@4HA
pdata	ENDS
;	COMDAT pdata
pdata	SEGMENT
$pdata$?dtor$6@?0??launch@SimpleUI@UI@@UEAAXXZ@4HA DD imagerel ?dtor$6@?0??launch@SimpleUI@UI@@UEAAXXZ@4HA
	DD	imagerel ?dtor$6@?0??launch@SimpleUI@UI@@UEAAXXZ@4HA+57
	DD	imagerel $unwind$?dtor$6@?0??launch@SimpleUI@UI@@UEAAXXZ@4HA
pdata	ENDS
;	COMDAT pdata
pdata	SEGMENT
$pdata$?dtor$7@?0??launch@SimpleUI@UI@@UEAAXXZ@4HA DD imagerel ?dtor$7@?0??launch@SimpleUI@UI@@UEAAXXZ@4HA
	DD	imagerel ?dtor$7@?0??launch@SimpleUI@UI@@UEAAXXZ@4HA+39
	DD	imagerel $unwind$?dtor$7@?0??launch@SimpleUI@UI@@UEAAXXZ@4HA
pdata	ENDS
;	COMDAT pdata
pdata	SEGMENT
$pdata$?dtor$8@?0??launch@SimpleUI@UI@@UEAAXXZ@4HA DD imagerel ?dtor$8@?0??launch@SimpleUI@UI@@UEAAXXZ@4HA
	DD	imagerel ?dtor$8@?0??launch@SimpleUI@UI@@UEAAXXZ@4HA+39
	DD	imagerel $unwind$?dtor$8@?0??launch@SimpleUI@UI@@UEAAXXZ@4HA
pdata	ENDS
;	COMDAT pdata
pdata	SEGMENT
$pdata$?dtor$9@?0??launch@SimpleUI@UI@@UEAAXXZ@4HA DD imagerel ?dtor$9@?0??launch@SimpleUI@UI@@UEAAXXZ@4HA
	DD	imagerel ?dtor$9@?0??launch@SimpleUI@UI@@UEAAXXZ@4HA+39
	DD	imagerel $unwind$?dtor$9@?0??launch@SimpleUI@UI@@UEAAXXZ@4HA
pdata	ENDS
;	COMDAT pdata
pdata	SEGMENT
$pdata$?dtor$11@?0??launch@SimpleUI@UI@@UEAAXXZ@4HA DD imagerel ?dtor$11@?0??launch@SimpleUI@UI@@UEAAXXZ@4HA
	DD	imagerel ?dtor$11@?0??launch@SimpleUI@UI@@UEAAXXZ@4HA+39
	DD	imagerel $unwind$?dtor$11@?0??launch@SimpleUI@UI@@UEAAXXZ@4HA
pdata	ENDS
;	COMDAT pdata
pdata	SEGMENT
$pdata$?dtor$12@?0??launch@SimpleUI@UI@@UEAAXXZ@4HA DD imagerel ?dtor$12@?0??launch@SimpleUI@UI@@UEAAXXZ@4HA
	DD	imagerel ?dtor$12@?0??launch@SimpleUI@UI@@UEAAXXZ@4HA+39
	DD	imagerel $unwind$?dtor$12@?0??launch@SimpleUI@UI@@UEAAXXZ@4HA
pdata	ENDS
;	COMDAT pdata
pdata	SEGMENT
$pdata$?dtor$13@?0??launch@SimpleUI@UI@@UEAAXXZ@4HA DD imagerel ?dtor$13@?0??launch@SimpleUI@UI@@UEAAXXZ@4HA
	DD	imagerel ?dtor$13@?0??launch@SimpleUI@UI@@UEAAXXZ@4HA+39
	DD	imagerel $unwind$?dtor$13@?0??launch@SimpleUI@UI@@UEAAXXZ@4HA
pdata	ENDS
;	COMDAT pdata
pdata	SEGMENT
$pdata$?dtor$14@?0??launch@SimpleUI@UI@@UEAAXXZ@4HA DD imagerel ?dtor$14@?0??launch@SimpleUI@UI@@UEAAXXZ@4HA
	DD	imagerel ?dtor$14@?0??launch@SimpleUI@UI@@UEAAXXZ@4HA+39
	DD	imagerel $unwind$?dtor$14@?0??launch@SimpleUI@UI@@UEAAXXZ@4HA
pdata	ENDS
;	COMDAT pdata
pdata	SEGMENT
$pdata$?dtor$15@?0??launch@SimpleUI@UI@@UEAAXXZ@4HA DD imagerel ?dtor$15@?0??launch@SimpleUI@UI@@UEAAXXZ@4HA
	DD	imagerel ?dtor$15@?0??launch@SimpleUI@UI@@UEAAXXZ@4HA+39
	DD	imagerel $unwind$?dtor$15@?0??launch@SimpleUI@UI@@UEAAXXZ@4HA
pdata	ENDS
;	COMDAT pdata
pdata	SEGMENT
$pdata$?dtor$18@?0??launch@SimpleUI@UI@@UEAAXXZ@4HA DD imagerel ?dtor$18@?0??launch@SimpleUI@UI@@UEAAXXZ@4HA
	DD	imagerel ?dtor$18@?0??launch@SimpleUI@UI@@UEAAXXZ@4HA+39
	DD	imagerel $unwind$?dtor$18@?0??launch@SimpleUI@UI@@UEAAXXZ@4HA
pdata	ENDS
;	COMDAT pdata
pdata	SEGMENT
$pdata$?dtor$19@?0??launch@SimpleUI@UI@@UEAAXXZ@4HA DD imagerel ?dtor$19@?0??launch@SimpleUI@UI@@UEAAXXZ@4HA
	DD	imagerel ?dtor$19@?0??launch@SimpleUI@UI@@UEAAXXZ@4HA+39
	DD	imagerel $unwind$?dtor$19@?0??launch@SimpleUI@UI@@UEAAXXZ@4HA
pdata	ENDS
;	COMDAT pdata
pdata	SEGMENT
$pdata$?dtor$20@?0??launch@SimpleUI@UI@@UEAAXXZ@4HA DD imagerel ?dtor$20@?0??launch@SimpleUI@UI@@UEAAXXZ@4HA
	DD	imagerel ?dtor$20@?0??launch@SimpleUI@UI@@UEAAXXZ@4HA+39
	DD	imagerel $unwind$?dtor$20@?0??launch@SimpleUI@UI@@UEAAXXZ@4HA
pdata	ENDS
;	COMDAT pdata
pdata	SEGMENT
$pdata$?dtor$21@?0??launch@SimpleUI@UI@@UEAAXXZ@4HA DD imagerel ?dtor$21@?0??launch@SimpleUI@UI@@UEAAXXZ@4HA
	DD	imagerel ?dtor$21@?0??launch@SimpleUI@UI@@UEAAXXZ@4HA+39
	DD	imagerel $unwind$?dtor$21@?0??launch@SimpleUI@UI@@UEAAXXZ@4HA
pdata	ENDS
;	COMDAT pdata
pdata	SEGMENT
$pdata$?dtor$22@?0??launch@SimpleUI@UI@@UEAAXXZ@4HA DD imagerel ?dtor$22@?0??launch@SimpleUI@UI@@UEAAXXZ@4HA
	DD	imagerel ?dtor$22@?0??launch@SimpleUI@UI@@UEAAXXZ@4HA+39
	DD	imagerel $unwind$?dtor$22@?0??launch@SimpleUI@UI@@UEAAXXZ@4HA
pdata	ENDS
;	COMDAT pdata
pdata	SEGMENT
$pdata$?dtor$24@?0??launch@SimpleUI@UI@@UEAAXXZ@4HA DD imagerel ?dtor$24@?0??launch@SimpleUI@UI@@UEAAXXZ@4HA
	DD	imagerel ?dtor$24@?0??launch@SimpleUI@UI@@UEAAXXZ@4HA+39
	DD	imagerel $unwind$?dtor$24@?0??launch@SimpleUI@UI@@UEAAXXZ@4HA
pdata	ENDS
;	COMDAT pdata
pdata	SEGMENT
$pdata$?dtor$25@?0??launch@SimpleUI@UI@@UEAAXXZ@4HA DD imagerel ?dtor$25@?0??launch@SimpleUI@UI@@UEAAXXZ@4HA
	DD	imagerel ?dtor$25@?0??launch@SimpleUI@UI@@UEAAXXZ@4HA+39
	DD	imagerel $unwind$?dtor$25@?0??launch@SimpleUI@UI@@UEAAXXZ@4HA
pdata	ENDS
;	COMDAT pdata
pdata	SEGMENT
$pdata$?dtor$27@?0??launch@SimpleUI@UI@@UEAAXXZ@4HA DD imagerel ?dtor$27@?0??launch@SimpleUI@UI@@UEAAXXZ@4HA
	DD	imagerel ?dtor$27@?0??launch@SimpleUI@UI@@UEAAXXZ@4HA+39
	DD	imagerel $unwind$?dtor$27@?0??launch@SimpleUI@UI@@UEAAXXZ@4HA
pdata	ENDS
;	COMDAT pdata
pdata	SEGMENT
$pdata$?dtor$29@?0??launch@SimpleUI@UI@@UEAAXXZ@4HA DD imagerel ?dtor$29@?0??launch@SimpleUI@UI@@UEAAXXZ@4HA
	DD	imagerel ?dtor$29@?0??launch@SimpleUI@UI@@UEAAXXZ@4HA+39
	DD	imagerel $unwind$?dtor$29@?0??launch@SimpleUI@UI@@UEAAXXZ@4HA
pdata	ENDS
;	COMDAT pdata
pdata	SEGMENT
$pdata$?dtor$30@?0??launch@SimpleUI@UI@@UEAAXXZ@4HA DD imagerel ?dtor$30@?0??launch@SimpleUI@UI@@UEAAXXZ@4HA
	DD	imagerel ?dtor$30@?0??launch@SimpleUI@UI@@UEAAXXZ@4HA+39
	DD	imagerel $unwind$?dtor$30@?0??launch@SimpleUI@UI@@UEAAXXZ@4HA
pdata	ENDS
;	COMDAT pdata
pdata	SEGMENT
$pdata$?dtor$31@?0??launch@SimpleUI@UI@@UEAAXXZ@4HA DD imagerel ?dtor$31@?0??launch@SimpleUI@UI@@UEAAXXZ@4HA
	DD	imagerel ?dtor$31@?0??launch@SimpleUI@UI@@UEAAXXZ@4HA+39
	DD	imagerel $unwind$?dtor$31@?0??launch@SimpleUI@UI@@UEAAXXZ@4HA
pdata	ENDS
;	COMDAT pdata
pdata	SEGMENT
$pdata$?dtor$32@?0??launch@SimpleUI@UI@@UEAAXXZ@4HA DD imagerel ?dtor$32@?0??launch@SimpleUI@UI@@UEAAXXZ@4HA
	DD	imagerel ?dtor$32@?0??launch@SimpleUI@UI@@UEAAXXZ@4HA+39
	DD	imagerel $unwind$?dtor$32@?0??launch@SimpleUI@UI@@UEAAXXZ@4HA
pdata	ENDS
;	COMDAT pdata
pdata	SEGMENT
$pdata$?dtor$33@?0??launch@SimpleUI@UI@@UEAAXXZ@4HA DD imagerel ?dtor$33@?0??launch@SimpleUI@UI@@UEAAXXZ@4HA
	DD	imagerel ?dtor$33@?0??launch@SimpleUI@UI@@UEAAXXZ@4HA+39
	DD	imagerel $unwind$?dtor$33@?0??launch@SimpleUI@UI@@UEAAXXZ@4HA
pdata	ENDS
;	COMDAT pdata
pdata	SEGMENT
$pdata$?dtor$35@?0??launch@SimpleUI@UI@@UEAAXXZ@4HA DD imagerel ?dtor$35@?0??launch@SimpleUI@UI@@UEAAXXZ@4HA
	DD	imagerel ?dtor$35@?0??launch@SimpleUI@UI@@UEAAXXZ@4HA+39
	DD	imagerel $unwind$?dtor$35@?0??launch@SimpleUI@UI@@UEAAXXZ@4HA
pdata	ENDS
;	COMDAT pdata
pdata	SEGMENT
$pdata$?dtor$36@?0??launch@SimpleUI@UI@@UEAAXXZ@4HA DD imagerel ?dtor$36@?0??launch@SimpleUI@UI@@UEAAXXZ@4HA
	DD	imagerel ?dtor$36@?0??launch@SimpleUI@UI@@UEAAXXZ@4HA+39
	DD	imagerel $unwind$?dtor$36@?0??launch@SimpleUI@UI@@UEAAXXZ@4HA
pdata	ENDS
;	COMDAT pdata
pdata	SEGMENT
$pdata$?dtor$38@?0??launch@SimpleUI@UI@@UEAAXXZ@4HA DD imagerel ?dtor$38@?0??launch@SimpleUI@UI@@UEAAXXZ@4HA
	DD	imagerel ?dtor$38@?0??launch@SimpleUI@UI@@UEAAXXZ@4HA+39
	DD	imagerel $unwind$?dtor$38@?0??launch@SimpleUI@UI@@UEAAXXZ@4HA
pdata	ENDS
;	COMDAT pdata
pdata	SEGMENT
$pdata$?dtor$40@?0??launch@SimpleUI@UI@@UEAAXXZ@4HA DD imagerel ?dtor$40@?0??launch@SimpleUI@UI@@UEAAXXZ@4HA
	DD	imagerel ?dtor$40@?0??launch@SimpleUI@UI@@UEAAXXZ@4HA+39
	DD	imagerel $unwind$?dtor$40@?0??launch@SimpleUI@UI@@UEAAXXZ@4HA
pdata	ENDS
;	COMDAT pdata
pdata	SEGMENT
$pdata$?dtor$41@?0??launch@SimpleUI@UI@@UEAAXXZ@4HA DD imagerel ?dtor$41@?0??launch@SimpleUI@UI@@UEAAXXZ@4HA
	DD	imagerel ?dtor$41@?0??launch@SimpleUI@UI@@UEAAXXZ@4HA+39
	DD	imagerel $unwind$?dtor$41@?0??launch@SimpleUI@UI@@UEAAXXZ@4HA
pdata	ENDS
;	COMDAT pdata
pdata	SEGMENT
$pdata$?dtor$42@?0??launch@SimpleUI@UI@@UEAAXXZ@4HA DD imagerel ?dtor$42@?0??launch@SimpleUI@UI@@UEAAXXZ@4HA
	DD	imagerel ?dtor$42@?0??launch@SimpleUI@UI@@UEAAXXZ@4HA+39
	DD	imagerel $unwind$?dtor$42@?0??launch@SimpleUI@UI@@UEAAXXZ@4HA
pdata	ENDS
;	COMDAT pdata
pdata	SEGMENT
$pdata$?dtor$43@?0??launch@SimpleUI@UI@@UEAAXXZ@4HA DD imagerel ?dtor$43@?0??launch@SimpleUI@UI@@UEAAXXZ@4HA
	DD	imagerel ?dtor$43@?0??launch@SimpleUI@UI@@UEAAXXZ@4HA+39
	DD	imagerel $unwind$?dtor$43@?0??launch@SimpleUI@UI@@UEAAXXZ@4HA
pdata	ENDS
;	COMDAT pdata
pdata	SEGMENT
$pdata$?dtor$44@?0??launch@SimpleUI@UI@@UEAAXXZ@4HA DD imagerel ?dtor$44@?0??launch@SimpleUI@UI@@UEAAXXZ@4HA
	DD	imagerel ?dtor$44@?0??launch@SimpleUI@UI@@UEAAXXZ@4HA+39
	DD	imagerel $unwind$?dtor$44@?0??launch@SimpleUI@UI@@UEAAXXZ@4HA
pdata	ENDS
;	COMDAT pdata
pdata	SEGMENT
$pdata$?dtor$45@?0??launch@SimpleUI@UI@@UEAAXXZ@4HA DD imagerel ?dtor$45@?0??launch@SimpleUI@UI@@UEAAXXZ@4HA
	DD	imagerel ?dtor$45@?0??launch@SimpleUI@UI@@UEAAXXZ@4HA+39
	DD	imagerel $unwind$?dtor$45@?0??launch@SimpleUI@UI@@UEAAXXZ@4HA
pdata	ENDS
;	COMDAT pdata
pdata	SEGMENT
$pdata$?dtor$48@?0??launch@SimpleUI@UI@@UEAAXXZ@4HA DD imagerel ?dtor$48@?0??launch@SimpleUI@UI@@UEAAXXZ@4HA
	DD	imagerel ?dtor$48@?0??launch@SimpleUI@UI@@UEAAXXZ@4HA+39
	DD	imagerel $unwind$?dtor$48@?0??launch@SimpleUI@UI@@UEAAXXZ@4HA
pdata	ENDS
;	COMDAT pdata
pdata	SEGMENT
$pdata$?dtor$49@?0??launch@SimpleUI@UI@@UEAAXXZ@4HA DD imagerel ?dtor$49@?0??launch@SimpleUI@UI@@UEAAXXZ@4HA
	DD	imagerel ?dtor$49@?0??launch@SimpleUI@UI@@UEAAXXZ@4HA+39
	DD	imagerel $unwind$?dtor$49@?0??launch@SimpleUI@UI@@UEAAXXZ@4HA
pdata	ENDS
;	COMDAT pdata
pdata	SEGMENT
$pdata$?dtor$50@?0??launch@SimpleUI@UI@@UEAAXXZ@4HA DD imagerel ?dtor$50@?0??launch@SimpleUI@UI@@UEAAXXZ@4HA
	DD	imagerel ?dtor$50@?0??launch@SimpleUI@UI@@UEAAXXZ@4HA+39
	DD	imagerel $unwind$?dtor$50@?0??launch@SimpleUI@UI@@UEAAXXZ@4HA
pdata	ENDS
;	COMDAT pdata
pdata	SEGMENT
$pdata$?dtor$51@?0??launch@SimpleUI@UI@@UEAAXXZ@4HA DD imagerel ?dtor$51@?0??launch@SimpleUI@UI@@UEAAXXZ@4HA
	DD	imagerel ?dtor$51@?0??launch@SimpleUI@UI@@UEAAXXZ@4HA+39
	DD	imagerel $unwind$?dtor$51@?0??launch@SimpleUI@UI@@UEAAXXZ@4HA
pdata	ENDS
;	COMDAT pdata
pdata	SEGMENT
$pdata$?dtor$52@?0??launch@SimpleUI@UI@@UEAAXXZ@4HA DD imagerel ?dtor$52@?0??launch@SimpleUI@UI@@UEAAXXZ@4HA
	DD	imagerel ?dtor$52@?0??launch@SimpleUI@UI@@UEAAXXZ@4HA+39
	DD	imagerel $unwind$?dtor$52@?0??launch@SimpleUI@UI@@UEAAXXZ@4HA
pdata	ENDS
;	COMDAT pdata
pdata	SEGMENT
$pdata$?dtor$54@?0??launch@SimpleUI@UI@@UEAAXXZ@4HA DD imagerel ?dtor$54@?0??launch@SimpleUI@UI@@UEAAXXZ@4HA
	DD	imagerel ?dtor$54@?0??launch@SimpleUI@UI@@UEAAXXZ@4HA+39
	DD	imagerel $unwind$?dtor$54@?0??launch@SimpleUI@UI@@UEAAXXZ@4HA
pdata	ENDS
;	COMDAT pdata
pdata	SEGMENT
$pdata$?dtor$55@?0??launch@SimpleUI@UI@@UEAAXXZ@4HA DD imagerel ?dtor$55@?0??launch@SimpleUI@UI@@UEAAXXZ@4HA
	DD	imagerel ?dtor$55@?0??launch@SimpleUI@UI@@UEAAXXZ@4HA+39
	DD	imagerel $unwind$?dtor$55@?0??launch@SimpleUI@UI@@UEAAXXZ@4HA
pdata	ENDS
;	COMDAT pdata
pdata	SEGMENT
$pdata$?dtor$56@?0??launch@SimpleUI@UI@@UEAAXXZ@4HA DD imagerel ?dtor$56@?0??launch@SimpleUI@UI@@UEAAXXZ@4HA
	DD	imagerel ?dtor$56@?0??launch@SimpleUI@UI@@UEAAXXZ@4HA+39
	DD	imagerel $unwind$?dtor$56@?0??launch@SimpleUI@UI@@UEAAXXZ@4HA
pdata	ENDS
;	COMDAT pdata
pdata	SEGMENT
$pdata$?dtor$57@?0??launch@SimpleUI@UI@@UEAAXXZ@4HA DD imagerel ?dtor$57@?0??launch@SimpleUI@UI@@UEAAXXZ@4HA
	DD	imagerel ?dtor$57@?0??launch@SimpleUI@UI@@UEAAXXZ@4HA+39
	DD	imagerel $unwind$?dtor$57@?0??launch@SimpleUI@UI@@UEAAXXZ@4HA
pdata	ENDS
;	COMDAT pdata
pdata	SEGMENT
$pdata$?dtor$59@?0??launch@SimpleUI@UI@@UEAAXXZ@4HA DD imagerel ?dtor$59@?0??launch@SimpleUI@UI@@UEAAXXZ@4HA
	DD	imagerel ?dtor$59@?0??launch@SimpleUI@UI@@UEAAXXZ@4HA+39
	DD	imagerel $unwind$?dtor$59@?0??launch@SimpleUI@UI@@UEAAXXZ@4HA
pdata	ENDS
;	COMDAT pdata
pdata	SEGMENT
$pdata$?dtor$60@?0??launch@SimpleUI@UI@@UEAAXXZ@4HA DD imagerel ?dtor$60@?0??launch@SimpleUI@UI@@UEAAXXZ@4HA
	DD	imagerel ?dtor$60@?0??launch@SimpleUI@UI@@UEAAXXZ@4HA+39
	DD	imagerel $unwind$?dtor$60@?0??launch@SimpleUI@UI@@UEAAXXZ@4HA
pdata	ENDS
;	COMDAT pdata
pdata	SEGMENT
$pdata$?dtor$61@?0??launch@SimpleUI@UI@@UEAAXXZ@4HA DD imagerel ?dtor$61@?0??launch@SimpleUI@UI@@UEAAXXZ@4HA
	DD	imagerel ?dtor$61@?0??launch@SimpleUI@UI@@UEAAXXZ@4HA+39
	DD	imagerel $unwind$?dtor$61@?0??launch@SimpleUI@UI@@UEAAXXZ@4HA
pdata	ENDS
;	COMDAT pdata
pdata	SEGMENT
$pdata$?dtor$63@?0??launch@SimpleUI@UI@@UEAAXXZ@4HA DD imagerel ?dtor$63@?0??launch@SimpleUI@UI@@UEAAXXZ@4HA
	DD	imagerel ?dtor$63@?0??launch@SimpleUI@UI@@UEAAXXZ@4HA+39
	DD	imagerel $unwind$?dtor$63@?0??launch@SimpleUI@UI@@UEAAXXZ@4HA
pdata	ENDS
;	COMDAT pdata
pdata	SEGMENT
$pdata$?dtor$64@?0??launch@SimpleUI@UI@@UEAAXXZ@4HA DD imagerel ?dtor$64@?0??launch@SimpleUI@UI@@UEAAXXZ@4HA
	DD	imagerel ?dtor$64@?0??launch@SimpleUI@UI@@UEAAXXZ@4HA+39
	DD	imagerel $unwind$?dtor$64@?0??launch@SimpleUI@UI@@UEAAXXZ@4HA
pdata	ENDS
;	COMDAT pdata
pdata	SEGMENT
$pdata$?dtor$66@?0??launch@SimpleUI@UI@@UEAAXXZ@4HA DD imagerel ?dtor$66@?0??launch@SimpleUI@UI@@UEAAXXZ@4HA
	DD	imagerel ?dtor$66@?0??launch@SimpleUI@UI@@UEAAXXZ@4HA+39
	DD	imagerel $unwind$?dtor$66@?0??launch@SimpleUI@UI@@UEAAXXZ@4HA
pdata	ENDS
;	COMDAT pdata
pdata	SEGMENT
$pdata$?dtor$67@?0??launch@SimpleUI@UI@@UEAAXXZ@4HA DD imagerel ?dtor$67@?0??launch@SimpleUI@UI@@UEAAXXZ@4HA
	DD	imagerel ?dtor$67@?0??launch@SimpleUI@UI@@UEAAXXZ@4HA+39
	DD	imagerel $unwind$?dtor$67@?0??launch@SimpleUI@UI@@UEAAXXZ@4HA
pdata	ENDS
;	COMDAT pdata
pdata	SEGMENT
$pdata$?dtor$68@?0??launch@SimpleUI@UI@@UEAAXXZ@4HA DD imagerel ?dtor$68@?0??launch@SimpleUI@UI@@UEAAXXZ@4HA
	DD	imagerel ?dtor$68@?0??launch@SimpleUI@UI@@UEAAXXZ@4HA+39
	DD	imagerel $unwind$?dtor$68@?0??launch@SimpleUI@UI@@UEAAXXZ@4HA
pdata	ENDS
;	COMDAT pdata
pdata	SEGMENT
$pdata$?dtor$69@?0??launch@SimpleUI@UI@@UEAAXXZ@4HA DD imagerel ?dtor$69@?0??launch@SimpleUI@UI@@UEAAXXZ@4HA
	DD	imagerel ?dtor$69@?0??launch@SimpleUI@UI@@UEAAXXZ@4HA+39
	DD	imagerel $unwind$?dtor$69@?0??launch@SimpleUI@UI@@UEAAXXZ@4HA
pdata	ENDS
;	COMDAT pdata
pdata	SEGMENT
$pdata$?dtor$70@?0??launch@SimpleUI@UI@@UEAAXXZ@4HA DD imagerel ?dtor$70@?0??launch@SimpleUI@UI@@UEAAXXZ@4HA
	DD	imagerel ?dtor$70@?0??launch@SimpleUI@UI@@UEAAXXZ@4HA+39
	DD	imagerel $unwind$?dtor$70@?0??launch@SimpleUI@UI@@UEAAXXZ@4HA
pdata	ENDS
;	COMDAT pdata
pdata	SEGMENT
$pdata$?dtor$71@?0??launch@SimpleUI@UI@@UEAAXXZ@4HA DD imagerel ?dtor$71@?0??launch@SimpleUI@UI@@UEAAXXZ@4HA
	DD	imagerel ?dtor$71@?0??launch@SimpleUI@UI@@UEAAXXZ@4HA+39
	DD	imagerel $unwind$?dtor$71@?0??launch@SimpleUI@UI@@UEAAXXZ@4HA
pdata	ENDS
;	COMDAT pdata
pdata	SEGMENT
$pdata$??1SimpleUI@UI@@UEAA@XZ DD imagerel $LN3
	DD	imagerel $LN3+244
	DD	imagerel $unwind$??1SimpleUI@UI@@UEAA@XZ
pdata	ENDS
;	COMDAT pdata
pdata	SEGMENT
$pdata$??R?$default_delete@VProductHandler@Product@Domain@@@std@@QEBAXPEAVProductHandler@Product@Domain@@@Z DD imagerel $LN5
	DD	imagerel $LN5+152
	DD	imagerel $unwind$??R?$default_delete@VProductHandler@Product@Domain@@@std@@QEBAXPEAVProductHandler@Product@Domain@@@Z
pdata	ENDS
;	COMDAT pdata
pdata	SEGMENT
$pdata$??1?$unique_ptr@VProductHandler@Product@Domain@@U?$default_delete@VProductHandler@Product@Domain@@@std@@@std@@QEAA@XZ DD imagerel $LN4
	DD	imagerel $LN4+136
	DD	imagerel $unwind$??1?$unique_ptr@VProductHandler@Product@Domain@@U?$default_delete@VProductHandler@Product@Domain@@@std@@@std@@QEAA@XZ
pdata	ENDS
;	COMDAT pdata
pdata	SEGMENT
$pdata$??C?$unique_ptr@VProductHandler@Product@Domain@@U?$default_delete@VProductHandler@Product@Domain@@@std@@@std@@QEBAPEAVProductHandler@Product@Domain@@XZ DD imagerel $LN3
	DD	imagerel $LN3+74
	DD	imagerel $unwind$??C?$unique_ptr@VProductHandler@Product@Domain@@U?$default_delete@VProductHandler@Product@Domain@@@std@@@std@@QEBAPEAVProductHandler@Product@Domain@@XZ
pdata	ENDS
;	COMDAT pdata
pdata	SEGMENT
$pdata$??B?$unique_ptr@VProductHandler@Product@Domain@@U?$default_delete@VProductHandler@Product@Domain@@@std@@@std@@QEBA_NXZ DD imagerel $LN5
	DD	imagerel $LN5+100
	DD	imagerel $unwind$??B?$unique_ptr@VProductHandler@Product@Domain@@U?$default_delete@VProductHandler@Product@Domain@@@std@@@std@@QEBA_NXZ
pdata	ENDS
;	COMDAT pdata
pdata	SEGMENT
$pdata$?release@?$unique_ptr@VProductHandler@Product@Domain@@U?$default_delete@VProductHandler@Product@Domain@@@std@@@std@@QEAAPEAVProductHandler@Product@Domain@@XZ DD imagerel $LN3
	DD	imagerel $LN3+98
	DD	imagerel $unwind$?release@?$unique_ptr@VProductHandler@Product@Domain@@U?$default_delete@VProductHandler@Product@Domain@@@std@@@std@@QEAAPEAVProductHandler@Product@Domain@@XZ
pdata	ENDS
;	COMDAT pdata
pdata	SEGMENT
$pdata$?reset@?$unique_ptr@VProductHandler@Product@Domain@@U?$default_delete@VProductHandler@Product@Domain@@@std@@@std@@QEAAXPEAVProductHandler@Product@Domain@@@Z DD imagerel $LN4
	DD	imagerel $LN4+141
	DD	imagerel $unwind$?reset@?$unique_ptr@VProductHandler@Product@Domain@@U?$default_delete@VProductHandler@Product@Domain@@@std@@@std@@QEAAXPEAVProductHandler@Product@Domain@@@Z
pdata	ENDS
;	COMDAT pdata
pdata	SEGMENT
$pdata$?_Get_first@?$_Compressed_pair@U?$default_delete@VProductHandler@Product@Domain@@@std@@PEAVProductHandler@Product@Domain@@$00@std@@QEAAAEAU?$default_delete@VProductHandler@Product@Domain@@@2@XZ DD imagerel $LN3
	DD	imagerel $LN3+71
	DD	imagerel $unwind$?_Get_first@?$_Compressed_pair@U?$default_delete@VProductHandler@Product@Domain@@@std@@PEAVProductHandler@Product@Domain@@$00@std@@QEAAAEAU?$default_delete@VProductHandler@Product@Domain@@@2@XZ
pdata	ENDS
;	COMDAT pdata
pdata	SEGMENT
$pdata$??R?$default_delete@VSaleHandler@Sale@Domain@@@std@@QEBAXPEAVSaleHandler@Sale@Domain@@@Z DD imagerel $LN5
	DD	imagerel $LN5+152
	DD	imagerel $unwind$??R?$default_delete@VSaleHandler@Sale@Domain@@@std@@QEBAXPEAVSaleHandler@Sale@Domain@@@Z
pdata	ENDS
;	COMDAT pdata
pdata	SEGMENT
$pdata$??1?$unique_ptr@VSaleHandler@Sale@Domain@@U?$default_delete@VSaleHandler@Sale@Domain@@@std@@@std@@QEAA@XZ DD imagerel $LN4
	DD	imagerel $LN4+136
	DD	imagerel $unwind$??1?$unique_ptr@VSaleHandler@Sale@Domain@@U?$default_delete@VSaleHandler@Sale@Domain@@@std@@@std@@QEAA@XZ
pdata	ENDS
;	COMDAT pdata
pdata	SEGMENT
$pdata$??C?$unique_ptr@VSaleHandler@Sale@Domain@@U?$default_delete@VSaleHandler@Sale@Domain@@@std@@@std@@QEBAPEAVSaleHandler@Sale@Domain@@XZ DD imagerel $LN3
	DD	imagerel $LN3+74
	DD	imagerel $unwind$??C?$unique_ptr@VSaleHandler@Sale@Domain@@U?$default_delete@VSaleHandler@Sale@Domain@@@std@@@std@@QEBAPEAVSaleHandler@Sale@Domain@@XZ
pdata	ENDS
;	COMDAT pdata
pdata	SEGMENT
$pdata$??B?$unique_ptr@VSaleHandler@Sale@Domain@@U?$default_delete@VSaleHandler@Sale@Domain@@@std@@@std@@QEBA_NXZ DD imagerel $LN5
	DD	imagerel $LN5+100
	DD	imagerel $unwind$??B?$unique_ptr@VSaleHandler@Sale@Domain@@U?$default_delete@VSaleHandler@Sale@Domain@@@std@@@std@@QEBA_NXZ
pdata	ENDS
;	COMDAT pdata
pdata	SEGMENT
$pdata$?release@?$unique_ptr@VSaleHandler@Sale@Domain@@U?$default_delete@VSaleHandler@Sale@Domain@@@std@@@std@@QEAAPEAVSaleHandler@Sale@Domain@@XZ DD imagerel $LN3
	DD	imagerel $LN3+98
	DD	imagerel $unwind$?release@?$unique_ptr@VSaleHandler@Sale@Domain@@U?$default_delete@VSaleHandler@Sale@Domain@@@std@@@std@@QEAAPEAVSaleHandler@Sale@Domain@@XZ
pdata	ENDS
;	COMDAT pdata
pdata	SEGMENT
$pdata$?reset@?$unique_ptr@VSaleHandler@Sale@Domain@@U?$default_delete@VSaleHandler@Sale@Domain@@@std@@@std@@QEAAXPEAVSaleHandler@Sale@Domain@@@Z DD imagerel $LN4
	DD	imagerel $LN4+141
	DD	imagerel $unwind$?reset@?$unique_ptr@VSaleHandler@Sale@Domain@@U?$default_delete@VSaleHandler@Sale@Domain@@@std@@@std@@QEAAXPEAVSaleHandler@Sale@Domain@@@Z
pdata	ENDS
;	COMDAT pdata
pdata	SEGMENT
$pdata$?_Get_first@?$_Compressed_pair@U?$default_delete@VSaleHandler@Sale@Domain@@@std@@PEAVSaleHandler@Sale@Domain@@$00@std@@QEAAAEAU?$default_delete@VSaleHandler@Sale@Domain@@@2@XZ DD imagerel $LN3
	DD	imagerel $LN3+71
	DD	imagerel $unwind$?_Get_first@?$_Compressed_pair@U?$default_delete@VSaleHandler@Sale@Domain@@@std@@PEAVSaleHandler@Sale@Domain@@$00@std@@QEAAAEAU?$default_delete@VSaleHandler@Sale@Domain@@@2@XZ
pdata	ENDS
;	COMDAT pdata
pdata	SEGMENT
$pdata$??R?$default_delete@VLoggerHandler@Logging@TechnicalServices@@@std@@QEBAXPEAVLoggerHandler@Logging@TechnicalServices@@@Z DD imagerel $LN5
	DD	imagerel $LN5+152
	DD	imagerel $unwind$??R?$default_delete@VLoggerHandler@Logging@TechnicalServices@@@std@@QEBAXPEAVLoggerHandler@Logging@TechnicalServices@@@Z
pdata	ENDS
;	COMDAT pdata
pdata	SEGMENT
$pdata$??1?$unique_ptr@VLoggerHandler@Logging@TechnicalServices@@U?$default_delete@VLoggerHandler@Logging@TechnicalServices@@@std@@@std@@QEAA@XZ DD imagerel $LN4
	DD	imagerel $LN4+136
	DD	imagerel $unwind$??1?$unique_ptr@VLoggerHandler@Logging@TechnicalServices@@U?$default_delete@VLoggerHandler@Logging@TechnicalServices@@@std@@@std@@QEAA@XZ
pdata	ENDS
;	COMDAT pdata
pdata	SEGMENT
$pdata$??D?$unique_ptr@VLoggerHandler@Logging@TechnicalServices@@U?$default_delete@VLoggerHandler@Logging@TechnicalServices@@@std@@@std@@QEBAAEAVLoggerHandler@Logging@TechnicalServices@@XZ DD imagerel $LN3
	DD	imagerel $LN3+74
	DD	imagerel $unwind$??D?$unique_ptr@VLoggerHandler@Logging@TechnicalServices@@U?$default_delete@VLoggerHandler@Logging@TechnicalServices@@@std@@@std@@QEBAAEAVLoggerHandler@Logging@TechnicalServices@@XZ
pdata	ENDS
;	COMDAT pdata
pdata	SEGMENT
$pdata$?_Get_first@?$_Compressed_pair@U?$default_delete@VLoggerHandler@Logging@TechnicalServices@@@std@@PEAVLoggerHandler@Logging@TechnicalServices@@$00@std@@QEAAAEAU?$default_delete@VLoggerHandler@Logging@TechnicalServices@@@2@XZ DD imagerel $LN3
	DD	imagerel $LN3+71
	DD	imagerel $unwind$?_Get_first@?$_Compressed_pair@U?$default_delete@VLoggerHandler@Logging@TechnicalServices@@@std@@PEAVLoggerHandler@Logging@TechnicalServices@@$00@std@@QEAAAEAU?$default_delete@VLoggerHandler@Logging@TechnicalServices@@@2@XZ
pdata	ENDS
;	COMDAT pdata
pdata	SEGMENT
$pdata$??_GSimpleUI@UI@@UEAAPEAXI@Z DD imagerel $LN4
	DD	imagerel $LN4+105
	DD	imagerel $unwind$??_GSimpleUI@UI@@UEAAPEAXI@Z
pdata	ENDS
;	COMDAT pdata
pdata	SEGMENT
$pdata$??$_Getvals@_W@?$time_get@DV?$istreambuf_iterator@DU?$char_traits@D@std@@@std@@@std@@IEAAX_WAEBV_Locinfo@1@@Z DD imagerel $LN5
	DD	imagerel $LN5+379
	DD	imagerel $unwind$??$_Getvals@_W@?$time_get@DV?$istreambuf_iterator@DU?$char_traits@D@std@@@std@@@std@@IEAAX_WAEBV_Locinfo@1@@Z
pdata	ENDS
;	COMDAT pdata
pdata	SEGMENT
$pdata$??$_Getvals@_W@?$time_get@_WV?$istreambuf_iterator@_WU?$char_traits@_W@std@@@std@@@std@@IEAAX_WAEBV_Locinfo@1@@Z DD imagerel $LN5
	DD	imagerel $LN5+379
	DD	imagerel $unwind$??$_Getvals@_W@?$time_get@_WV?$istreambuf_iterator@_WU?$char_traits@_W@std@@@std@@@std@@IEAAX_WAEBV_Locinfo@1@@Z
pdata	ENDS
;	COMDAT pdata
pdata	SEGMENT
$pdata$?deallocate@?$allocator@UClient@Persistence@TechnicalServices@@@std@@QEAAXQEAUClient@Persistence@TechnicalServices@@_K@Z DD imagerel $LN3
	DD	imagerel $LN3+97
	DD	imagerel $unwind$?deallocate@?$allocator@UClient@Persistence@TechnicalServices@@@std@@QEAAXQEAUClient@Persistence@TechnicalServices@@_K@Z
pdata	ENDS
;	COMDAT pdata
pdata	SEGMENT
$pdata$?allocate@?$allocator@UClient@Persistence@TechnicalServices@@@std@@QEAAPEAUClient@Persistence@TechnicalServices@@_K@Z DD imagerel $LN3
	DD	imagerel $LN3+89
	DD	imagerel $unwind$?allocate@?$allocator@UClient@Persistence@TechnicalServices@@@std@@QEAAPEAUClient@Persistence@TechnicalServices@@_K@Z
pdata	ENDS
;	COMDAT pdata
pdata	SEGMENT
$pdata$?max_size@?$_Default_allocator_traits@V?$allocator@UClient@Persistence@TechnicalServices@@@std@@@std@@SA_KAEBV?$allocator@UClient@Persistence@TechnicalServices@@@2@@Z DD imagerel $LN3
	DD	imagerel $LN3+74
	DD	imagerel $unwind$?max_size@?$_Default_allocator_traits@V?$allocator@UClient@Persistence@TechnicalServices@@@std@@@std@@SA_KAEBV?$allocator@UClient@Persistence@TechnicalServices@@@2@@Z
pdata	ENDS
;	COMDAT pdata
pdata	SEGMENT
$pdata$?_Move_assign@?$vector@UClient@Persistence@TechnicalServices@@V?$allocator@UClient@Persistence@TechnicalServices@@@std@@@std@@AEAAXAEAV12@U_Equal_allocators@2@@Z DD imagerel $LN3
	DD	imagerel $LN3+180
	DD	imagerel $unwind$?_Move_assign@?$vector@UClient@Persistence@TechnicalServices@@V?$allocator@UClient@Persistence@TechnicalServices@@@std@@@std@@AEAAXAEAV12@U_Equal_allocators@2@@Z
pdata	ENDS
;	COMDAT pdata
pdata	SEGMENT
$pdata$??4?$vector@UClient@Persistence@TechnicalServices@@V?$allocator@UClient@Persistence@TechnicalServices@@@std@@@std@@QEAAAEAV01@$$QEAV01@@Z DD imagerel $LN4
	DD	imagerel $LN4+143
	DD	imagerel $unwind$??4?$vector@UClient@Persistence@TechnicalServices@@V?$allocator@UClient@Persistence@TechnicalServices@@@std@@@std@@QEAAAEAV01@$$QEAV01@@Z
pdata	ENDS
;	COMDAT pdata
pdata	SEGMENT
$pdata$??1?$vector@UClient@Persistence@TechnicalServices@@V?$allocator@UClient@Persistence@TechnicalServices@@@std@@@std@@QEAA@XZ DD imagerel $LN3
	DD	imagerel $LN3+202
	DD	imagerel $unwind$??1?$vector@UClient@Persistence@TechnicalServices@@V?$allocator@UClient@Persistence@TechnicalServices@@@std@@@std@@QEAA@XZ
pdata	ENDS
;	COMDAT pdata
pdata	SEGMENT
$pdata$?_Copy_assign@?$vector@UClient@Persistence@TechnicalServices@@V?$allocator@UClient@Persistence@TechnicalServices@@@std@@@std@@AEAAXAEBV12@U?$integral_constant@_N$0A@@2@@Z DD imagerel $LN3
	DD	imagerel $LN3+170
	DD	imagerel $unwind$?_Copy_assign@?$vector@UClient@Persistence@TechnicalServices@@V?$allocator@UClient@Persistence@TechnicalServices@@@std@@@std@@AEAAXAEBV12@U?$integral_constant@_N$0A@@2@@Z
pdata	ENDS
;	COMDAT pdata
pdata	SEGMENT
$pdata$??4?$vector@UClient@Persistence@TechnicalServices@@V?$allocator@UClient@Persistence@TechnicalServices@@@std@@@std@@QEAAAEAV01@AEBV01@@Z DD imagerel $LN4
	DD	imagerel $LN4+143
	DD	imagerel $unwind$??4?$vector@UClient@Persistence@TechnicalServices@@V?$allocator@UClient@Persistence@TechnicalServices@@@std@@@std@@QEAAAEAV01@AEBV01@@Z
pdata	ENDS
;	COMDAT pdata
pdata	SEGMENT
$pdata$?_Clear_and_reserve_geometric@?$vector@UClient@Persistence@TechnicalServices@@V?$allocator@UClient@Persistence@TechnicalServices@@@std@@@std@@AEAAX_K@Z DD imagerel $LN5
	DD	imagerel $LN5+353
	DD	imagerel $unwind$?_Clear_and_reserve_geometric@?$vector@UClient@Persistence@TechnicalServices@@V?$allocator@UClient@Persistence@TechnicalServices@@@std@@@std@@AEAAX_K@Z
pdata	ENDS
;	COMDAT pdata
pdata	SEGMENT
$pdata$?size@?$vector@UClient@Persistence@TechnicalServices@@V?$allocator@UClient@Persistence@TechnicalServices@@@std@@@std@@QEBA_KXZ DD imagerel $LN3
	DD	imagerel $LN3+104
	DD	imagerel $unwind$?size@?$vector@UClient@Persistence@TechnicalServices@@V?$allocator@UClient@Persistence@TechnicalServices@@@std@@@std@@QEBA_KXZ
pdata	ENDS
;	COMDAT pdata
pdata	SEGMENT
$pdata$?max_size@?$vector@UClient@Persistence@TechnicalServices@@V?$allocator@UClient@Persistence@TechnicalServices@@@std@@@std@@QEBA_KXZ DD imagerel $LN3
	DD	imagerel $LN3+125
	DD	imagerel $unwind$?max_size@?$vector@UClient@Persistence@TechnicalServices@@V?$allocator@UClient@Persistence@TechnicalServices@@@std@@@std@@QEBA_KXZ
pdata	ENDS
;	COMDAT pdata
pdata	SEGMENT
$pdata$?capacity@?$vector@UClient@Persistence@TechnicalServices@@V?$allocator@UClient@Persistence@TechnicalServices@@@std@@@std@@QEBA_KXZ DD imagerel $LN3
	DD	imagerel $LN3+104
	DD	imagerel $unwind$?capacity@?$vector@UClient@Persistence@TechnicalServices@@V?$allocator@UClient@Persistence@TechnicalServices@@@std@@@std@@QEBA_KXZ
pdata	ENDS
;	COMDAT pdata
pdata	SEGMENT
$pdata$?_Destroy@?$vector@UClient@Persistence@TechnicalServices@@V?$allocator@UClient@Persistence@TechnicalServices@@@std@@@std@@AEAAXPEAUClient@Persistence@TechnicalServices@@0@Z DD imagerel $LN3
	DD	imagerel $LN3+108
	DD	imagerel $unwind$?_Destroy@?$vector@UClient@Persistence@TechnicalServices@@V?$allocator@UClient@Persistence@TechnicalServices@@@std@@@std@@AEAAXPEAUClient@Persistence@TechnicalServices@@0@Z
pdata	ENDS
;	COMDAT pdata
pdata	SEGMENT
$pdata$?_Calculate_growth@?$vector@UClient@Persistence@TechnicalServices@@V?$allocator@UClient@Persistence@TechnicalServices@@@std@@@std@@AEBA_K_K@Z DD imagerel $LN5
	DD	imagerel $LN5+200
	DD	imagerel $unwind$?_Calculate_growth@?$vector@UClient@Persistence@TechnicalServices@@V?$allocator@UClient@Persistence@TechnicalServices@@@std@@@std@@AEBA_K_K@Z
pdata	ENDS
;	COMDAT pdata
pdata	SEGMENT
$pdata$?_Buy_raw@?$vector@UClient@Persistence@TechnicalServices@@V?$allocator@UClient@Persistence@TechnicalServices@@@std@@@std@@AEAAX_K@Z DD imagerel $LN3
	DD	imagerel $LN3+217
	DD	imagerel $unwind$?_Buy_raw@?$vector@UClient@Persistence@TechnicalServices@@V?$allocator@UClient@Persistence@TechnicalServices@@@std@@@std@@AEAAX_K@Z
pdata	ENDS
;	COMDAT pdata
pdata	SEGMENT
$pdata$?_Tidy@?$vector@UClient@Persistence@TechnicalServices@@V?$allocator@UClient@Persistence@TechnicalServices@@@std@@@std@@AEAAXXZ DD imagerel $LN4
	DD	imagerel $LN4+286
	DD	imagerel $unwind$?_Tidy@?$vector@UClient@Persistence@TechnicalServices@@V?$allocator@UClient@Persistence@TechnicalServices@@@std@@@std@@AEAAXXZ
pdata	ENDS
;	COMDAT pdata
pdata	SEGMENT
$pdata$?_Xlength@?$vector@UClient@Persistence@TechnicalServices@@V?$allocator@UClient@Persistence@TechnicalServices@@@std@@@std@@CAXXZ DD imagerel $LN3
	DD	imagerel $LN3+64
	DD	imagerel $unwind$?_Xlength@?$vector@UClient@Persistence@TechnicalServices@@V?$allocator@UClient@Persistence@TechnicalServices@@@std@@@std@@CAXXZ
pdata	ENDS
;	COMDAT pdata
pdata	SEGMENT
$pdata$?_Getal@?$vector@UClient@Persistence@TechnicalServices@@V?$allocator@UClient@Persistence@TechnicalServices@@@std@@@std@@AEAAAEAV?$allocator@UClient@Persistence@TechnicalServices@@@2@XZ DD imagerel $LN3
	DD	imagerel $LN3+80
	DD	imagerel $unwind$?_Getal@?$vector@UClient@Persistence@TechnicalServices@@V?$allocator@UClient@Persistence@TechnicalServices@@@std@@@std@@AEAAAEAV?$allocator@UClient@Persistence@TechnicalServices@@@2@XZ
pdata	ENDS
;	COMDAT pdata
pdata	SEGMENT
$pdata$?_Getal@?$vector@UClient@Persistence@TechnicalServices@@V?$allocator@UClient@Persistence@TechnicalServices@@@std@@@std@@AEBAAEBV?$allocator@UClient@Persistence@TechnicalServices@@@2@XZ DD imagerel $LN3
	DD	imagerel $LN3+80
	DD	imagerel $unwind$?_Getal@?$vector@UClient@Persistence@TechnicalServices@@V?$allocator@UClient@Persistence@TechnicalServices@@@std@@@std@@AEBAAEBV?$allocator@UClient@Persistence@TechnicalServices@@@2@XZ
pdata	ENDS
;	COMDAT pdata
pdata	SEGMENT
$pdata$?_Take_contents@?$_Vector_val@U?$_Simple_types@UClient@Persistence@TechnicalServices@@@std@@@std@@QEAAXAEAV12@@Z DD imagerel $LN3
	DD	imagerel $LN3+199
	DD	imagerel $unwind$?_Take_contents@?$_Vector_val@U?$_Simple_types@UClient@Persistence@TechnicalServices@@@std@@@std@@QEAAXAEAV12@@Z
pdata	ENDS
;	COMDAT pdata
pdata	SEGMENT
$pdata$?_Get_first@?$_Compressed_pair@V?$allocator@UClient@Persistence@TechnicalServices@@@std@@V?$_Vector_val@U?$_Simple_types@UClient@Persistence@TechnicalServices@@@std@@@2@$00@std@@QEAAAEAV?$allocator@UClient@Persistence@TechnicalServices@@@2@XZ DD imagerel $LN3
	DD	imagerel $LN3+71
	DD	imagerel $unwind$?_Get_first@?$_Compressed_pair@V?$allocator@UClient@Persistence@TechnicalServices@@@std@@V?$_Vector_val@U?$_Simple_types@UClient@Persistence@TechnicalServices@@@std@@@2@$00@std@@QEAAAEAV?$allocator@UClient@Persistence@TechnicalServices@@@2@XZ
pdata	ENDS
;	COMDAT pdata
pdata	SEGMENT
$pdata$?_Get_first@?$_Compressed_pair@V?$allocator@UClient@Persistence@TechnicalServices@@@std@@V?$_Vector_val@U?$_Simple_types@UClient@Persistence@TechnicalServices@@@std@@@2@$00@std@@QEBAAEBV?$allocator@UClient@Persistence@TechnicalServices@@@2@XZ DD imagerel $LN3
	DD	imagerel $LN3+71
	DD	imagerel $unwind$?_Get_first@?$_Compressed_pair@V?$allocator@UClient@Persistence@TechnicalServices@@@std@@V?$_Vector_val@U?$_Simple_types@UClient@Persistence@TechnicalServices@@@std@@@2@$00@std@@QEBAAEBV?$allocator@UClient@Persistence@TechnicalServices@@@2@XZ
pdata	ENDS
;	COMDAT pdata
pdata	SEGMENT
$pdata$?__autoclassinit2@?$vector@UClient@Persistence@TechnicalServices@@V?$allocator@UClient@Persistence@TechnicalServices@@@std@@@std@@QEAAX_K@Z DD imagerel $LN3
	DD	imagerel $LN3+73
	DD	imagerel $unwind$?__autoclassinit2@?$vector@UClient@Persistence@TechnicalServices@@V?$allocator@UClient@Persistence@TechnicalServices@@@std@@@std@@QEAAX_K@Z
pdata	ENDS
;	COMDAT pdata
pdata	SEGMENT
$pdata$?deallocate@?$allocator@UClientprofile@Persistence@TechnicalServices@@@std@@QEAAXQEAUClientprofile@Persistence@TechnicalServices@@_K@Z DD imagerel $LN3
	DD	imagerel $LN3+97
	DD	imagerel $unwind$?deallocate@?$allocator@UClientprofile@Persistence@TechnicalServices@@@std@@QEAAXQEAUClientprofile@Persistence@TechnicalServices@@_K@Z
pdata	ENDS
;	COMDAT pdata
pdata	SEGMENT
$pdata$?allocate@?$allocator@UClientprofile@Persistence@TechnicalServices@@@std@@QEAAPEAUClientprofile@Persistence@TechnicalServices@@_K@Z DD imagerel $LN3
	DD	imagerel $LN3+89
	DD	imagerel $unwind$?allocate@?$allocator@UClientprofile@Persistence@TechnicalServices@@@std@@QEAAPEAUClientprofile@Persistence@TechnicalServices@@_K@Z
pdata	ENDS
;	COMDAT pdata
pdata	SEGMENT
$pdata$?max_size@?$_Default_allocator_traits@V?$allocator@UClientprofile@Persistence@TechnicalServices@@@std@@@std@@SA_KAEBV?$allocator@UClientprofile@Persistence@TechnicalServices@@@2@@Z DD imagerel $LN3
	DD	imagerel $LN3+74
	DD	imagerel $unwind$?max_size@?$_Default_allocator_traits@V?$allocator@UClientprofile@Persistence@TechnicalServices@@@std@@@std@@SA_KAEBV?$allocator@UClientprofile@Persistence@TechnicalServices@@@2@@Z
pdata	ENDS
;	COMDAT pdata
pdata	SEGMENT
$pdata$??1?$vector@UClientprofile@Persistence@TechnicalServices@@V?$allocator@UClientprofile@Persistence@TechnicalServices@@@std@@@std@@QEAA@XZ DD imagerel $LN3
	DD	imagerel $LN3+202
	DD	imagerel $unwind$??1?$vector@UClientprofile@Persistence@TechnicalServices@@V?$allocator@UClientprofile@Persistence@TechnicalServices@@@std@@@std@@QEAA@XZ
pdata	ENDS
;	COMDAT pdata
pdata	SEGMENT
$pdata$?push_back@?$vector@UClientprofile@Persistence@TechnicalServices@@V?$allocator@UClientprofile@Persistence@TechnicalServices@@@std@@@std@@QEAAX$$QEAUClientprofile@Persistence@TechnicalServices@@@Z DD imagerel $LN3
	DD	imagerel $LN3+96
	DD	imagerel $unwind$?push_back@?$vector@UClientprofile@Persistence@TechnicalServices@@V?$allocator@UClientprofile@Persistence@TechnicalServices@@@std@@@std@@QEAAX$$QEAUClientprofile@Persistence@TechnicalServices@@@Z
pdata	ENDS
;	COMDAT pdata
pdata	SEGMENT
$pdata$?_Copy_assign@?$vector@UClientprofile@Persistence@TechnicalServices@@V?$allocator@UClientprofile@Persistence@TechnicalServices@@@std@@@std@@AEAAXAEBV12@U?$integral_constant@_N$0A@@2@@Z DD imagerel $LN3
	DD	imagerel $LN3+170
	DD	imagerel $unwind$?_Copy_assign@?$vector@UClientprofile@Persistence@TechnicalServices@@V?$allocator@UClientprofile@Persistence@TechnicalServices@@@std@@@std@@AEAAXAEBV12@U?$integral_constant@_N$0A@@2@@Z
pdata	ENDS
;	COMDAT pdata
pdata	SEGMENT
$pdata$??4?$vector@UClientprofile@Persistence@TechnicalServices@@V?$allocator@UClientprofile@Persistence@TechnicalServices@@@std@@@std@@QEAAAEAV01@AEBV01@@Z DD imagerel $LN4
	DD	imagerel $LN4+143
	DD	imagerel $unwind$??4?$vector@UClientprofile@Persistence@TechnicalServices@@V?$allocator@UClientprofile@Persistence@TechnicalServices@@@std@@@std@@QEAAAEAV01@AEBV01@@Z
pdata	ENDS
;	COMDAT pdata
pdata	SEGMENT
$pdata$?_Clear_and_reserve_geometric@?$vector@UClientprofile@Persistence@TechnicalServices@@V?$allocator@UClientprofile@Persistence@TechnicalServices@@@std@@@std@@AEAAX_K@Z DD imagerel $LN5
	DD	imagerel $LN5+353
	DD	imagerel $unwind$?_Clear_and_reserve_geometric@?$vector@UClientprofile@Persistence@TechnicalServices@@V?$allocator@UClientprofile@Persistence@TechnicalServices@@@std@@@std@@AEAAX_K@Z
pdata	ENDS
;	COMDAT pdata
pdata	SEGMENT
$pdata$?max_size@?$vector@UClientprofile@Persistence@TechnicalServices@@V?$allocator@UClientprofile@Persistence@TechnicalServices@@@std@@@std@@QEBA_KXZ DD imagerel $LN3
	DD	imagerel $LN3+125
	DD	imagerel $unwind$?max_size@?$vector@UClientprofile@Persistence@TechnicalServices@@V?$allocator@UClientprofile@Persistence@TechnicalServices@@@std@@@std@@QEBA_KXZ
pdata	ENDS
;	COMDAT pdata
pdata	SEGMENT
$pdata$?capacity@?$vector@UClientprofile@Persistence@TechnicalServices@@V?$allocator@UClientprofile@Persistence@TechnicalServices@@@std@@@std@@QEBA_KXZ DD imagerel $LN3
	DD	imagerel $LN3+104
	DD	imagerel $unwind$?capacity@?$vector@UClientprofile@Persistence@TechnicalServices@@V?$allocator@UClientprofile@Persistence@TechnicalServices@@@std@@@std@@QEBA_KXZ
pdata	ENDS
;	COMDAT pdata
pdata	SEGMENT
$pdata$?_Umove@?$vector@UClientprofile@Persistence@TechnicalServices@@V?$allocator@UClientprofile@Persistence@TechnicalServices@@@std@@@std@@AEAAPEAUClientprofile@Persistence@TechnicalServices@@PEAU345@00@Z DD imagerel $LN3
	DD	imagerel $LN3+120
	DD	imagerel $unwind$?_Umove@?$vector@UClientprofile@Persistence@TechnicalServices@@V?$allocator@UClientprofile@Persistence@TechnicalServices@@@std@@@std@@AEAAPEAUClientprofile@Persistence@TechnicalServices@@PEAU345@00@Z
pdata	ENDS
;	COMDAT pdata
pdata	SEGMENT
$pdata$?_Umove_if_noexcept1@?$vector@UClientprofile@Persistence@TechnicalServices@@V?$allocator@UClientprofile@Persistence@TechnicalServices@@@std@@@std@@AEAAXPEAUClientprofile@Persistence@TechnicalServices@@00U?$integral_constant@_N$00@2@@Z DD imagerel $LN3
	DD	imagerel $LN3+120
	DD	imagerel $unwind$?_Umove_if_noexcept1@?$vector@UClientprofile@Persistence@TechnicalServices@@V?$allocator@UClientprofile@Persistence@TechnicalServices@@@std@@@std@@AEAAXPEAUClientprofile@Persistence@TechnicalServices@@00U?$integral_constant@_N$00@2@@Z
pdata	ENDS
;	COMDAT pdata
pdata	SEGMENT
$pdata$?_Umove_if_noexcept@?$vector@UClientprofile@Persistence@TechnicalServices@@V?$allocator@UClientprofile@Persistence@TechnicalServices@@@std@@@std@@AEAAXPEAUClientprofile@Persistence@TechnicalServices@@00@Z DD imagerel $LN3
	DD	imagerel $LN3+142
	DD	imagerel $unwind$?_Umove_if_noexcept@?$vector@UClientprofile@Persistence@TechnicalServices@@V?$allocator@UClientprofile@Persistence@TechnicalServices@@@std@@@std@@AEAAXPEAUClientprofile@Persistence@TechnicalServices@@00@Z
pdata	ENDS
;	COMDAT pdata
pdata	SEGMENT
$pdata$?_Destroy@?$vector@UClientprofile@Persistence@TechnicalServices@@V?$allocator@UClientprofile@Persistence@TechnicalServices@@@std@@@std@@AEAAXPEAUClientprofile@Persistence@TechnicalServices@@0@Z DD imagerel $LN3
	DD	imagerel $LN3+108
	DD	imagerel $unwind$?_Destroy@?$vector@UClientprofile@Persistence@TechnicalServices@@V?$allocator@UClientprofile@Persistence@TechnicalServices@@@std@@@std@@AEAAXPEAUClientprofile@Persistence@TechnicalServices@@0@Z
pdata	ENDS
;	COMDAT pdata
pdata	SEGMENT
$pdata$?_Calculate_growth@?$vector@UClientprofile@Persistence@TechnicalServices@@V?$allocator@UClientprofile@Persistence@TechnicalServices@@@std@@@std@@AEBA_K_K@Z DD imagerel $LN5
	DD	imagerel $LN5+200
	DD	imagerel $unwind$?_Calculate_growth@?$vector@UClientprofile@Persistence@TechnicalServices@@V?$allocator@UClientprofile@Persistence@TechnicalServices@@@std@@@std@@AEBA_K_K@Z
pdata	ENDS
;	COMDAT pdata
pdata	SEGMENT
$pdata$?_Buy_raw@?$vector@UClientprofile@Persistence@TechnicalServices@@V?$allocator@UClientprofile@Persistence@TechnicalServices@@@std@@@std@@AEAAX_K@Z DD imagerel $LN3
	DD	imagerel $LN3+217
	DD	imagerel $unwind$?_Buy_raw@?$vector@UClientprofile@Persistence@TechnicalServices@@V?$allocator@UClientprofile@Persistence@TechnicalServices@@@std@@@std@@AEAAX_K@Z
pdata	ENDS
;	COMDAT pdata
pdata	SEGMENT
$pdata$?_Change_array@?$vector@UClientprofile@Persistence@TechnicalServices@@V?$allocator@UClientprofile@Persistence@TechnicalServices@@@std@@@std@@AEAAXQEAUClientprofile@Persistence@TechnicalServices@@_K1@Z DD imagerel $LN4
	DD	imagerel $LN4+334
	DD	imagerel $unwind$?_Change_array@?$vector@UClientprofile@Persistence@TechnicalServices@@V?$allocator@UClientprofile@Persistence@TechnicalServices@@@std@@@std@@AEAAXQEAUClientprofile@Persistence@TechnicalServices@@_K1@Z
pdata	ENDS
;	COMDAT pdata
pdata	SEGMENT
$pdata$?_Tidy@?$vector@UClientprofile@Persistence@TechnicalServices@@V?$allocator@UClientprofile@Persistence@TechnicalServices@@@std@@@std@@AEAAXXZ DD imagerel $LN4
	DD	imagerel $LN4+286
	DD	imagerel $unwind$?_Tidy@?$vector@UClientprofile@Persistence@TechnicalServices@@V?$allocator@UClientprofile@Persistence@TechnicalServices@@@std@@@std@@AEAAXXZ
pdata	ENDS
;	COMDAT pdata
pdata	SEGMENT
$pdata$?_Xlength@?$vector@UClientprofile@Persistence@TechnicalServices@@V?$allocator@UClientprofile@Persistence@TechnicalServices@@@std@@@std@@CAXXZ DD imagerel $LN3
	DD	imagerel $LN3+64
	DD	imagerel $unwind$?_Xlength@?$vector@UClientprofile@Persistence@TechnicalServices@@V?$allocator@UClientprofile@Persistence@TechnicalServices@@@std@@@std@@CAXXZ
pdata	ENDS
;	COMDAT pdata
pdata	SEGMENT
$pdata$?_Orphan_range@?$vector@UClientprofile@Persistence@TechnicalServices@@V?$allocator@UClientprofile@Persistence@TechnicalServices@@@std@@@std@@AEBAXPEAUClientprofile@Persistence@TechnicalServices@@0@Z DD imagerel $LN9
	DD	imagerel $LN9+267
	DD	imagerel $unwind$?_Orphan_range@?$vector@UClientprofile@Persistence@TechnicalServices@@V?$allocator@UClientprofile@Persistence@TechnicalServices@@@std@@@std@@AEBAXPEAUClientprofile@Persistence@TechnicalServices@@0@Z
pdata	ENDS
;	COMDAT pdata
pdata	SEGMENT
$pdata$?_Getal@?$vector@UClientprofile@Persistence@TechnicalServices@@V?$allocator@UClientprofile@Persistence@TechnicalServices@@@std@@@std@@AEAAAEAV?$allocator@UClientprofile@Persistence@TechnicalServices@@@2@XZ DD imagerel $LN3
	DD	imagerel $LN3+80
	DD	imagerel $unwind$?_Getal@?$vector@UClientprofile@Persistence@TechnicalServices@@V?$allocator@UClientprofile@Persistence@TechnicalServices@@@std@@@std@@AEAAAEAV?$allocator@UClientprofile@Persistence@TechnicalServices@@@2@XZ
pdata	ENDS
;	COMDAT pdata
pdata	SEGMENT
$pdata$?_Getal@?$vector@UClientprofile@Persistence@TechnicalServices@@V?$allocator@UClientprofile@Persistence@TechnicalServices@@@std@@@std@@AEBAAEBV?$allocator@UClientprofile@Persistence@TechnicalServices@@@2@XZ DD imagerel $LN3
	DD	imagerel $LN3+80
	DD	imagerel $unwind$?_Getal@?$vector@UClientprofile@Persistence@TechnicalServices@@V?$allocator@UClientprofile@Persistence@TechnicalServices@@@std@@@std@@AEBAAEBV?$allocator@UClientprofile@Persistence@TechnicalServices@@@2@XZ
pdata	ENDS
;	COMDAT pdata
pdata	SEGMENT
$pdata$?_Get_first@?$_Compressed_pair@V?$allocator@UClientprofile@Persistence@TechnicalServices@@@std@@V?$_Vector_val@U?$_Simple_types@UClientprofile@Persistence@TechnicalServices@@@std@@@2@$00@std@@QEAAAEAV?$allocator@UClientprofile@Persistence@TechnicalServices@@@2@XZ DD imagerel $LN3
	DD	imagerel $LN3+71
	DD	imagerel $unwind$?_Get_first@?$_Compressed_pair@V?$allocator@UClientprofile@Persistence@TechnicalServices@@@std@@V?$_Vector_val@U?$_Simple_types@UClientprofile@Persistence@TechnicalServices@@@std@@@2@$00@std@@QEAAAEAV?$allocator@UClientprofile@Persistence@TechnicalServices@@@2@XZ
pdata	ENDS
;	COMDAT pdata
pdata	SEGMENT
$pdata$?_Get_first@?$_Compressed_pair@V?$allocator@UClientprofile@Persistence@TechnicalServices@@@std@@V?$_Vector_val@U?$_Simple_types@UClientprofile@Persistence@TechnicalServices@@@std@@@2@$00@std@@QEBAAEBV?$allocator@UClientprofile@Persistence@TechnicalServices@@@2@XZ DD imagerel $LN3
	DD	imagerel $LN3+71
	DD	imagerel $unwind$?_Get_first@?$_Compressed_pair@V?$allocator@UClientprofile@Persistence@TechnicalServices@@@std@@V?$_Vector_val@U?$_Simple_types@UClientprofile@Persistence@TechnicalServices@@@std@@@2@$00@std@@QEBAAEBV?$allocator@UClientprofile@Persistence@TechnicalServices@@@2@XZ
pdata	ENDS
;	COMDAT pdata
pdata	SEGMENT
$pdata$?__autoclassinit2@?$vector@UClientprofile@Persistence@TechnicalServices@@V?$allocator@UClientprofile@Persistence@TechnicalServices@@@std@@@std@@QEAAX_K@Z DD imagerel $LN3
	DD	imagerel $LN3+73
	DD	imagerel $unwind$?__autoclassinit2@?$vector@UClientprofile@Persistence@TechnicalServices@@V?$allocator@UClientprofile@Persistence@TechnicalServices@@@std@@@std@@QEAAX_K@Z
pdata	ENDS
;	COMDAT pdata
pdata	SEGMENT
$pdata$??$?HDU?$char_traits@D@std@@V?$allocator@D@1@@std@@YA?AV?$basic_string@DU?$char_traits@D@std@@V?$allocator@D@2@@0@QEBDAEBV10@@Z DD imagerel $LN6
	DD	imagerel $LN6+268
	DD	imagerel $unwind$??$?HDU?$char_traits@D@std@@V?$allocator@D@1@@std@@YA?AV?$basic_string@DU?$char_traits@D@std@@V?$allocator@D@2@@0@QEBDAEBV10@@Z
pdata	ENDS
;	COMDAT pdata
pdata	SEGMENT
$pdata$??$?HDU?$char_traits@D@std@@V?$allocator@D@1@@std@@YA?AV?$basic_string@DU?$char_traits@D@std@@V?$allocator@D@2@@0@QEBD$$QEAV10@@Z DD imagerel $LN5
	DD	imagerel $LN5+150
	DD	imagerel $unwind$??$?HDU?$char_traits@D@std@@V?$allocator@D@1@@std@@YA?AV?$basic_string@DU?$char_traits@D@std@@V?$allocator@D@2@@0@QEBD$$QEAV10@@Z
pdata	ENDS
;	COMDAT pdata
pdata	SEGMENT
$pdata$??$?HDU?$char_traits@D@std@@V?$allocator@D@1@@std@@YA?AV?$basic_string@DU?$char_traits@D@std@@V?$allocator@D@2@@0@$$QEAV10@QEBD@Z DD imagerel $LN5
	DD	imagerel $LN5+148
	DD	imagerel $unwind$??$?HDU?$char_traits@D@std@@V?$allocator@D@1@@std@@YA?AV?$basic_string@DU?$char_traits@D@std@@V?$allocator@D@2@@0@$$QEAV10@QEBD@Z
pdata	ENDS
;	COMDAT pdata
pdata	SEGMENT
$pdata$??$?0U?$default_delete@VProductHandler@Product@Domain@@@std@@$0A@@?$unique_ptr@VProductHandler@Product@Domain@@U?$default_delete@VProductHandler@Product@Domain@@@std@@@std@@QEAA@XZ DD imagerel $LN3
	DD	imagerel $LN3+104
	DD	imagerel $unwind$??$?0U?$default_delete@VProductHandler@Product@Domain@@@std@@$0A@@?$unique_ptr@VProductHandler@Product@Domain@@U?$default_delete@VProductHandler@Product@Domain@@@std@@@std@@QEAA@XZ
pdata	ENDS
;	COMDAT pdata
pdata	SEGMENT
$pdata$??$?0U?$default_delete@VSaleHandler@Sale@Domain@@@std@@$0A@@?$unique_ptr@VSaleHandler@Sale@Domain@@U?$default_delete@VSaleHandler@Sale@Domain@@@std@@@std@@QEAA@XZ DD imagerel $LN3
	DD	imagerel $LN3+104
	DD	imagerel $unwind$??$?0U?$default_delete@VSaleHandler@Sale@Domain@@@std@@$0A@@?$unique_ptr@VSaleHandler@Sale@Domain@@U?$default_delete@VSaleHandler@Sale@Domain@@@std@@@std@@QEAA@XZ
pdata	ENDS
;	COMDAT pdata
pdata	SEGMENT
$pdata$?line@UI@@YAXXZ DD imagerel $LN6
	DD	imagerel $LN6+115
	DD	imagerel $unwind$?line@UI@@YAXXZ
pdata	ENDS
;	COMDAT pdata
pdata	SEGMENT
$pdata$??$?6U?$char_traits@D@std@@@std@@YAAEAV?$basic_ostream@DU?$char_traits@D@std@@@0@AEAV10@PEBD@Z DD imagerel $LN25
	DD	imagerel $LN25+1124
	DD	imagerel $unwind$??$?6U?$char_traits@D@std@@@std@@YAAEAV?$basic_ostream@DU?$char_traits@D@std@@@0@AEAV10@PEBD@Z
pdata	ENDS
;	COMDAT pdata
pdata	SEGMENT
$pdata$?dtor$0@?0???$?6U?$char_traits@D@std@@@std@@YAAEAV?$basic_ostream@DU?$char_traits@D@std@@@0@AEAV10@PEBD@Z@4HA DD imagerel ?dtor$0@?0???$?6U?$char_traits@D@std@@@std@@YAAEAV?$basic_ostream@DU?$char_traits@D@std@@@0@AEAV10@PEBD@Z@4HA
	DD	imagerel ?dtor$0@?0???$?6U?$char_traits@D@std@@@std@@YAAEAV?$basic_ostream@DU?$char_traits@D@std@@@0@AEAV10@PEBD@Z@4HA+36
	DD	imagerel $unwind$?dtor$0@?0???$?6U?$char_traits@D@std@@@std@@YAAEAV?$basic_ostream@DU?$char_traits@D@std@@@0@AEAV10@PEBD@Z@4HA
pdata	ENDS
;	COMDAT pdata
pdata	SEGMENT
$pdata$?catch$1@?0???$?6U?$char_traits@D@std@@@std@@YAAEAV?$basic_ostream@DU?$char_traits@D@std@@@0@AEAV10@PEBD@Z@4HA DD imagerel ?catch$1@?0???$?6U?$char_traits@D@std@@@std@@YAAEAV?$basic_ostream@DU?$char_traits@D@std@@@0@AEAV10@PEBD@Z@4HA
	DD	imagerel ?catch$1@?0???$?6U?$char_traits@D@std@@@std@@YAAEAV?$basic_ostream@DU?$char_traits@D@std@@@0@AEAV10@PEBD@Z@4HA+91
	DD	imagerel $unwind$?catch$1@?0???$?6U?$char_traits@D@std@@@std@@YAAEAV?$basic_ostream@DU?$char_traits@D@std@@@0@AEAV10@PEBD@Z@4HA
pdata	ENDS
;	COMDAT pdata
pdata	SEGMENT
$pdata$??$?6U?$char_traits@D@std@@@std@@YAAEAV?$basic_ostream@DU?$char_traits@D@std@@@0@AEAV10@D@Z DD imagerel $LN23
	DD	imagerel $LN23+1095
	DD	imagerel $unwind$??$?6U?$char_traits@D@std@@@std@@YAAEAV?$basic_ostream@DU?$char_traits@D@std@@@0@AEAV10@D@Z
pdata	ENDS
;	COMDAT pdata
pdata	SEGMENT
$pdata$?dtor$0@?0???$?6U?$char_traits@D@std@@@std@@YAAEAV?$basic_ostream@DU?$char_traits@D@std@@@0@AEAV10@D@Z@4HA DD imagerel ?dtor$0@?0???$?6U?$char_traits@D@std@@@std@@YAAEAV?$basic_ostream@DU?$char_traits@D@std@@@0@AEAV10@D@Z@4HA
	DD	imagerel ?dtor$0@?0???$?6U?$char_traits@D@std@@@std@@YAAEAV?$basic_ostream@DU?$char_traits@D@std@@@0@AEAV10@D@Z@4HA+36
	DD	imagerel $unwind$?dtor$0@?0???$?6U?$char_traits@D@std@@@std@@YAAEAV?$basic_ostream@DU?$char_traits@D@std@@@0@AEAV10@D@Z@4HA
pdata	ENDS
;	COMDAT pdata
pdata	SEGMENT
$pdata$?catch$1@?0???$?6U?$char_traits@D@std@@@std@@YAAEAV?$basic_ostream@DU?$char_traits@D@std@@@0@AEAV10@D@Z@4HA DD imagerel ?catch$1@?0???$?6U?$char_traits@D@std@@@std@@YAAEAV?$basic_ostream@DU?$char_traits@D@std@@@0@AEAV10@D@Z@4HA
	DD	imagerel ?catch$1@?0???$?6U?$char_traits@D@std@@@std@@YAAEAV?$basic_ostream@DU?$char_traits@D@std@@@0@AEAV10@D@Z@4HA+91
	DD	imagerel $unwind$?catch$1@?0???$?6U?$char_traits@D@std@@@std@@YAAEAV?$basic_ostream@DU?$char_traits@D@std@@@0@AEAV10@D@Z@4HA
pdata	ENDS
;	COMDAT pdata
pdata	SEGMENT
$pdata$??0?$initializer_list@V?$basic_string@DU?$char_traits@D@std@@V?$allocator@D@2@@std@@@std@@QEAA@PEBV?$basic_string@DU?$char_traits@D@std@@V?$allocator@D@2@@1@0@Z DD imagerel $LN3
	DD	imagerel $LN3+116
	DD	imagerel $unwind$??0?$initializer_list@V?$basic_string@DU?$char_traits@D@std@@V?$allocator@D@2@@std@@@std@@QEAA@PEBV?$basic_string@DU?$char_traits@D@std@@V?$allocator@D@2@@1@0@Z
pdata	ENDS
;	COMDAT pdata
pdata	SEGMENT
$pdata$?begin@?$initializer_list@V?$basic_string@DU?$char_traits@D@std@@V?$allocator@D@2@@std@@@std@@QEBAPEBV?$basic_string@DU?$char_traits@D@std@@V?$allocator@D@2@@2@XZ DD imagerel $LN3
	DD	imagerel $LN3+74
	DD	imagerel $unwind$?begin@?$initializer_list@V?$basic_string@DU?$char_traits@D@std@@V?$allocator@D@2@@std@@@std@@QEBAPEBV?$basic_string@DU?$char_traits@D@std@@V?$allocator@D@2@@2@XZ
pdata	ENDS
;	COMDAT pdata
pdata	SEGMENT
$pdata$?end@?$initializer_list@V?$basic_string@DU?$char_traits@D@std@@V?$allocator@D@2@@std@@@std@@QEBAPEBV?$basic_string@DU?$char_traits@D@std@@V?$allocator@D@2@@2@XZ DD imagerel $LN3
	DD	imagerel $LN3+75
	DD	imagerel $unwind$?end@?$initializer_list@V?$basic_string@DU?$char_traits@D@std@@V?$allocator@D@2@@std@@@std@@QEBAPEBV?$basic_string@DU?$char_traits@D@std@@V?$allocator@D@2@@2@XZ
pdata	ENDS
;	COMDAT pdata
pdata	SEGMENT
$pdata$??R?$default_delete@VSessionHandler@Session@Domain@@@std@@QEBAXPEAVSessionHandler@Session@Domain@@@Z DD imagerel $LN5
	DD	imagerel $LN5+152
	DD	imagerel $unwind$??R?$default_delete@VSessionHandler@Session@Domain@@@std@@QEBAXPEAVSessionHandler@Session@Domain@@@Z
pdata	ENDS
;	COMDAT pdata
pdata	SEGMENT
$pdata$??1?$unique_ptr@VSessionHandler@Session@Domain@@U?$default_delete@VSessionHandler@Session@Domain@@@std@@@std@@QEAA@XZ DD imagerel $LN4
	DD	imagerel $LN4+136
	DD	imagerel $unwind$??1?$unique_ptr@VSessionHandler@Session@Domain@@U?$default_delete@VSessionHandler@Session@Domain@@@std@@@std@@QEAA@XZ
pdata	ENDS
;	COMDAT pdata
pdata	SEGMENT
$pdata$??C?$unique_ptr@VSessionHandler@Session@Domain@@U?$default_delete@VSessionHandler@Session@Domain@@@std@@@std@@QEBAPEAVSessionHandler@Session@Domain@@XZ DD imagerel $LN3
	DD	imagerel $LN3+74
	DD	imagerel $unwind$??C?$unique_ptr@VSessionHandler@Session@Domain@@U?$default_delete@VSessionHandler@Session@Domain@@@std@@@std@@QEBAPEAVSessionHandler@Session@Domain@@XZ
pdata	ENDS
;	COMDAT pdata
pdata	SEGMENT
$pdata$??B?$unique_ptr@VSessionHandler@Session@Domain@@U?$default_delete@VSessionHandler@Session@Domain@@@std@@@std@@QEBA_NXZ DD imagerel $LN5
	DD	imagerel $LN5+100
	DD	imagerel $unwind$??B?$unique_ptr@VSessionHandler@Session@Domain@@U?$default_delete@VSessionHandler@Session@Domain@@@std@@@std@@QEBA_NXZ
pdata	ENDS
;	COMDAT pdata
pdata	SEGMENT
$pdata$?release@?$unique_ptr@VSessionHandler@Session@Domain@@U?$default_delete@VSessionHandler@Session@Domain@@@std@@@std@@QEAAPEAVSessionHandler@Session@Domain@@XZ DD imagerel $LN3
	DD	imagerel $LN3+98
	DD	imagerel $unwind$?release@?$unique_ptr@VSessionHandler@Session@Domain@@U?$default_delete@VSessionHandler@Session@Domain@@@std@@@std@@QEAAPEAVSessionHandler@Session@Domain@@XZ
pdata	ENDS
;	COMDAT pdata
pdata	SEGMENT
$pdata$?reset@?$unique_ptr@VSessionHandler@Session@Domain@@U?$default_delete@VSessionHandler@Session@Domain@@@std@@@std@@QEAAXPEAVSessionHandler@Session@Domain@@@Z DD imagerel $LN4
	DD	imagerel $LN4+141
	DD	imagerel $unwind$?reset@?$unique_ptr@VSessionHandler@Session@Domain@@U?$default_delete@VSessionHandler@Session@Domain@@@std@@@std@@QEAAXPEAVSessionHandler@Session@Domain@@@Z
pdata	ENDS
;	COMDAT pdata
pdata	SEGMENT
$pdata$?_Get_first@?$_Compressed_pair@U?$default_delete@VSessionHandler@Session@Domain@@@std@@PEAVSessionHandler@Session@Domain@@$00@std@@QEAAAEAU?$default_delete@VSessionHandler@Session@Domain@@@2@XZ DD imagerel $LN3
	DD	imagerel $LN3+71
	DD	imagerel $unwind$?_Get_first@?$_Compressed_pair@U?$default_delete@VSessionHandler@Session@Domain@@@std@@PEAVSessionHandler@Session@Domain@@$00@std@@QEAAAEAU?$default_delete@VSessionHandler@Session@Domain@@@2@XZ
pdata	ENDS
;	COMDAT pdata
pdata	SEGMENT
$pdata$?__autoclassinit2@?$unique_ptr@VSessionHandler@Session@Domain@@U?$default_delete@VSessionHandler@Session@Domain@@@std@@@std@@QEAAX_K@Z DD imagerel $LN3
	DD	imagerel $LN3+73
	DD	imagerel $unwind$?__autoclassinit2@?$unique_ptr@VSessionHandler@Session@Domain@@U?$default_delete@VSessionHandler@Session@Domain@@@std@@@std@@QEAAX_K@Z
pdata	ENDS
;	COMDAT pdata
pdata	SEGMENT
$pdata$??$?0U?$default_delete@VSessionHandler@Session@Domain@@@std@@$0A@@?$unique_ptr@VSessionHandler@Session@Domain@@U?$default_delete@VSessionHandler@Session@Domain@@@std@@@std@@QEAA@XZ DD imagerel $LN3
	DD	imagerel $LN3+104
	DD	imagerel $unwind$??$?0U?$default_delete@VSessionHandler@Session@Domain@@@std@@$0A@@?$unique_ptr@VSessionHandler@Session@Domain@@U?$default_delete@VSessionHandler@Session@Domain@@@std@@@std@@QEAA@XZ
pdata	ENDS
;	COMDAT pdata
pdata	SEGMENT
$pdata$??$getline@DU?$char_traits@D@std@@V?$allocator@D@2@@std@@YAAEAV?$basic_istream@DU?$char_traits@D@std@@@0@AEAV10@AEAV?$basic_string@DU?$char_traits@D@std@@V?$allocator@D@2@@0@@Z DD imagerel $LN3
	DD	imagerel $LN3+170
	DD	imagerel $unwind$??$getline@DU?$char_traits@D@std@@V?$allocator@D@2@@std@@YAAEAV?$basic_istream@DU?$char_traits@D@std@@@0@AEAV10@AEAV?$basic_string@DU?$char_traits@D@std@@V?$allocator@D@2@@0@@Z
pdata	ENDS
;	COMDAT pdata
pdata	SEGMENT
$pdata$??$?4U?$default_delete@VSessionHandler@Session@Domain@@@std@@$0A@@?$unique_ptr@VSessionHandler@Session@Domain@@U?$default_delete@VSessionHandler@Session@Domain@@@std@@@std@@QEAAAEAV01@$$QEAV01@@Z DD imagerel $LN4
	DD	imagerel $LN4+162
	DD	imagerel $unwind$??$?4U?$default_delete@VSessionHandler@Session@Domain@@@std@@$0A@@?$unique_ptr@VSessionHandler@Session@Domain@@U?$default_delete@VSessionHandler@Session@Domain@@@std@@@std@@QEAAAEAV01@$$QEAV01@@Z
pdata	ENDS
;	COMDAT pdata
pdata	SEGMENT
$pdata$??$?9VSessionHandler@Session@Domain@@U?$default_delete@VSessionHandler@Session@Domain@@@std@@@std@@YA_NAEBV?$unique_ptr@VSessionHandler@Session@Domain@@U?$default_delete@VSessionHandler@Session@Domain@@@std@@@0@$$T@Z DD imagerel $LN5
	DD	imagerel $LN5+124
	DD	imagerel $unwind$??$?9VSessionHandler@Session@Domain@@U?$default_delete@VSessionHandler@Session@Domain@@@std@@@std@@YA_NAEBV?$unique_ptr@VSessionHandler@Session@Domain@@U?$default_delete@VSessionHandler@Session@Domain@@@std@@@0@$$T@Z
pdata	ENDS
;	COMDAT pdata
pdata	SEGMENT
$pdata$??$?6DU?$char_traits@D@std@@_J@std@@YAAEAV?$basic_ostream@DU?$char_traits@D@std@@@0@AEAV10@AEBU?$_Smanip@_J@0@@Z DD imagerel $LN3
	DD	imagerel $LN3+140
	DD	imagerel $unwind$??$?6DU?$char_traits@D@std@@_J@std@@YAAEAV?$basic_ostream@DU?$char_traits@D@std@@@0@AEAV10@AEBU?$_Smanip@_J@0@@Z
pdata	ENDS
;	COMDAT pdata
pdata	SEGMENT
$pdata$??$?6DU?$char_traits@D@std@@V?$allocator@D@1@@std@@YAAEAV?$basic_ostream@DU?$char_traits@D@std@@@0@AEAV10@AEBV?$basic_string@DU?$char_traits@D@std@@V?$allocator@D@2@@0@@Z DD imagerel $LN3
	DD	imagerel $LN3+133
	DD	imagerel $unwind$??$?6DU?$char_traits@D@std@@V?$allocator@D@1@@std@@YAAEAV?$basic_ostream@DU?$char_traits@D@std@@@0@AEAV10@AEBV?$basic_string@DU?$char_traits@D@std@@V?$allocator@D@2@@0@@Z
pdata	ENDS
;	COMDAT pdata
pdata	SEGMENT
$pdata$??$?HDU?$char_traits@D@std@@V?$allocator@D@1@@std@@YA?AV?$basic_string@DU?$char_traits@D@std@@V?$allocator@D@2@@0@$$QEAV10@D@Z DD imagerel $LN5
	DD	imagerel $LN5+152
	DD	imagerel $unwind$??$?HDU?$char_traits@D@std@@V?$allocator@D@1@@std@@YA?AV?$basic_string@DU?$char_traits@D@std@@V?$allocator@D@2@@0@$$QEAV10@D@Z
pdata	ENDS
;	COMDAT pdata
pdata	SEGMENT
$pdata$??$?8DU?$char_traits@D@std@@V?$allocator@D@1@@std@@YA_NAEBV?$basic_string@DU?$char_traits@D@std@@V?$allocator@D@2@@0@QEBD@Z DD imagerel $LN3
	DD	imagerel $LN3+88
	DD	imagerel $unwind$??$?8DU?$char_traits@D@std@@V?$allocator@D@1@@std@@YA_NAEBV?$basic_string@DU?$char_traits@D@std@@V?$allocator@D@2@@0@QEBD@Z
pdata	ENDS
;	COMDAT pdata
pdata	SEGMENT
$pdata$??R?$default_delete@VClientHandler@Client@Domain@@@std@@QEBAXPEAVClientHandler@Client@Domain@@@Z DD imagerel $LN5
	DD	imagerel $LN5+152
	DD	imagerel $unwind$??R?$default_delete@VClientHandler@Client@Domain@@@std@@QEBAXPEAVClientHandler@Client@Domain@@@Z
pdata	ENDS
;	COMDAT pdata
pdata	SEGMENT
$pdata$??1?$unique_ptr@VClientHandler@Client@Domain@@U?$default_delete@VClientHandler@Client@Domain@@@std@@@std@@QEAA@XZ DD imagerel $LN4
	DD	imagerel $LN4+136
	DD	imagerel $unwind$??1?$unique_ptr@VClientHandler@Client@Domain@@U?$default_delete@VClientHandler@Client@Domain@@@std@@@std@@QEAA@XZ
pdata	ENDS
;	COMDAT pdata
pdata	SEGMENT
$pdata$??C?$unique_ptr@VClientHandler@Client@Domain@@U?$default_delete@VClientHandler@Client@Domain@@@std@@@std@@QEBAPEAVClientHandler@Client@Domain@@XZ DD imagerel $LN3
	DD	imagerel $LN3+74
	DD	imagerel $unwind$??C?$unique_ptr@VClientHandler@Client@Domain@@U?$default_delete@VClientHandler@Client@Domain@@@std@@@std@@QEBAPEAVClientHandler@Client@Domain@@XZ
pdata	ENDS
;	COMDAT pdata
pdata	SEGMENT
$pdata$??B?$unique_ptr@VClientHandler@Client@Domain@@U?$default_delete@VClientHandler@Client@Domain@@@std@@@std@@QEBA_NXZ DD imagerel $LN5
	DD	imagerel $LN5+100
	DD	imagerel $unwind$??B?$unique_ptr@VClientHandler@Client@Domain@@U?$default_delete@VClientHandler@Client@Domain@@@std@@@std@@QEBA_NXZ
pdata	ENDS
;	COMDAT pdata
pdata	SEGMENT
$pdata$?release@?$unique_ptr@VClientHandler@Client@Domain@@U?$default_delete@VClientHandler@Client@Domain@@@std@@@std@@QEAAPEAVClientHandler@Client@Domain@@XZ DD imagerel $LN3
	DD	imagerel $LN3+98
	DD	imagerel $unwind$?release@?$unique_ptr@VClientHandler@Client@Domain@@U?$default_delete@VClientHandler@Client@Domain@@@std@@@std@@QEAAPEAVClientHandler@Client@Domain@@XZ
pdata	ENDS
;	COMDAT pdata
pdata	SEGMENT
$pdata$?reset@?$unique_ptr@VClientHandler@Client@Domain@@U?$default_delete@VClientHandler@Client@Domain@@@std@@@std@@QEAAXPEAVClientHandler@Client@Domain@@@Z DD imagerel $LN4
	DD	imagerel $LN4+141
	DD	imagerel $unwind$?reset@?$unique_ptr@VClientHandler@Client@Domain@@U?$default_delete@VClientHandler@Client@Domain@@@std@@@std@@QEAAXPEAVClientHandler@Client@Domain@@@Z
pdata	ENDS
;	COMDAT pdata
pdata	SEGMENT
$pdata$?_Get_first@?$_Compressed_pair@U?$default_delete@VClientHandler@Client@Domain@@@std@@PEAVClientHandler@Client@Domain@@$00@std@@QEAAAEAU?$default_delete@VClientHandler@Client@Domain@@@2@XZ DD imagerel $LN3
	DD	imagerel $LN3+71
	DD	imagerel $unwind$?_Get_first@?$_Compressed_pair@U?$default_delete@VClientHandler@Client@Domain@@@std@@PEAVClientHandler@Client@Domain@@$00@std@@QEAAAEAU?$default_delete@VClientHandler@Client@Domain@@@2@XZ
pdata	ENDS
;	COMDAT pdata
pdata	SEGMENT
$pdata$?__autoclassinit2@?$unique_ptr@VClientHandler@Client@Domain@@U?$default_delete@VClientHandler@Client@Domain@@@std@@@std@@QEAAX_K@Z DD imagerel $LN3
	DD	imagerel $LN3+73
	DD	imagerel $unwind$?__autoclassinit2@?$unique_ptr@VClientHandler@Client@Domain@@U?$default_delete@VClientHandler@Client@Domain@@@std@@@std@@QEAAX_K@Z
pdata	ENDS
;	COMDAT pdata
pdata	SEGMENT
$pdata$??$?0U?$default_delete@VClientHandler@Client@Domain@@@std@@$0A@@?$unique_ptr@VClientHandler@Client@Domain@@U?$default_delete@VClientHandler@Client@Domain@@@std@@@std@@QEAA@XZ DD imagerel $LN3
	DD	imagerel $LN3+104
	DD	imagerel $unwind$??$?0U?$default_delete@VClientHandler@Client@Domain@@@std@@$0A@@?$unique_ptr@VClientHandler@Client@Domain@@U?$default_delete@VClientHandler@Client@Domain@@@std@@@std@@QEAA@XZ
pdata	ENDS
;	COMDAT pdata
pdata	SEGMENT
$pdata$??$?4U?$default_delete@VClientHandler@Client@Domain@@@std@@$0A@@?$unique_ptr@VClientHandler@Client@Domain@@U?$default_delete@VClientHandler@Client@Domain@@@std@@@std@@QEAAAEAV01@$$QEAV01@@Z DD imagerel $LN4
	DD	imagerel $LN4+162
	DD	imagerel $unwind$??$?4U?$default_delete@VClientHandler@Client@Domain@@@std@@$0A@@?$unique_ptr@VClientHandler@Client@Domain@@U?$default_delete@VClientHandler@Client@Domain@@@std@@@std@@QEAAAEAV01@$$QEAV01@@Z
pdata	ENDS
;	COMDAT pdata
pdata	SEGMENT
$pdata$??$?9VClientHandler@Client@Domain@@U?$default_delete@VClientHandler@Client@Domain@@@std@@@std@@YA_NAEBV?$unique_ptr@VClientHandler@Client@Domain@@U?$default_delete@VClientHandler@Client@Domain@@@std@@@0@$$T@Z DD imagerel $LN5
	DD	imagerel $LN5+124
	DD	imagerel $unwind$??$?9VClientHandler@Client@Domain@@U?$default_delete@VClientHandler@Client@Domain@@@std@@@std@@YA_NAEBV?$unique_ptr@VClientHandler@Client@Domain@@U?$default_delete@VClientHandler@Client@Domain@@@std@@@0@$$T@Z
pdata	ENDS
;	COMDAT pdata
pdata	SEGMENT
$pdata$??$?5DU?$char_traits@D@std@@@std@@YAAEAV?$basic_istream@DU?$char_traits@D@std@@@0@AEAV10@AEAD@Z DD imagerel $LN13
	DD	imagerel $LN13+389
	DD	imagerel $unwind$??$?5DU?$char_traits@D@std@@@std@@YAAEAV?$basic_istream@DU?$char_traits@D@std@@@0@AEAV10@AEAD@Z
pdata	ENDS
;	COMDAT pdata
pdata	SEGMENT
$pdata$?dtor$0@?0???$?5DU?$char_traits@D@std@@@std@@YAAEAV?$basic_istream@DU?$char_traits@D@std@@@0@AEAV10@AEAD@Z@4HA DD imagerel ?dtor$0@?0???$?5DU?$char_traits@D@std@@@std@@YAAEAV?$basic_istream@DU?$char_traits@D@std@@@0@AEAV10@AEAD@Z@4HA
	DD	imagerel ?dtor$0@?0???$?5DU?$char_traits@D@std@@@std@@YAAEAV?$basic_istream@DU?$char_traits@D@std@@@0@AEAV10@AEAD@Z@4HA+36
	DD	imagerel $unwind$?dtor$0@?0???$?5DU?$char_traits@D@std@@@std@@YAAEAV?$basic_istream@DU?$char_traits@D@std@@@0@AEAV10@AEAD@Z@4HA
pdata	ENDS
;	COMDAT pdata
pdata	SEGMENT
$pdata$?catch$1@?0???$?5DU?$char_traits@D@std@@@std@@YAAEAV?$basic_istream@DU?$char_traits@D@std@@@0@AEAV10@AEAD@Z@4HA DD imagerel ?catch$1@?0???$?5DU?$char_traits@D@std@@@std@@YAAEAV?$basic_istream@DU?$char_traits@D@std@@@0@AEAV10@AEAD@Z@4HA
	DD	imagerel ?catch$1@?0???$?5DU?$char_traits@D@std@@@std@@YAAEAV?$basic_istream@DU?$char_traits@D@std@@@0@AEAV10@AEAD@Z@4HA+91
	DD	imagerel $unwind$?catch$1@?0???$?5DU?$char_traits@D@std@@@std@@YAAEAV?$basic_istream@DU?$char_traits@D@std@@@0@AEAV10@AEAD@Z@4HA
pdata	ENDS
;	COMDAT pdata
pdata	SEGMENT
$pdata$??$ws@DU?$char_traits@D@std@@@std@@YAAEAV?$basic_istream@DU?$char_traits@D@std@@@0@AEAV10@@Z DD imagerel $LN18
	DD	imagerel $LN18+596
	DD	imagerel $unwind$??$ws@DU?$char_traits@D@std@@@std@@YAAEAV?$basic_istream@DU?$char_traits@D@std@@@0@AEAV10@@Z
pdata	ENDS
;	COMDAT pdata
pdata	SEGMENT
$pdata$?dtor$0@?0???$ws@DU?$char_traits@D@std@@@std@@YAAEAV?$basic_istream@DU?$char_traits@D@std@@@0@AEAV10@@Z@4HA DD imagerel ?dtor$0@?0???$ws@DU?$char_traits@D@std@@@std@@YAAEAV?$basic_istream@DU?$char_traits@D@std@@@0@AEAV10@@Z@4HA
	DD	imagerel ?dtor$0@?0???$ws@DU?$char_traits@D@std@@@std@@YAAEAV?$basic_istream@DU?$char_traits@D@std@@@0@AEAV10@@Z@4HA+36
	DD	imagerel $unwind$?dtor$0@?0???$ws@DU?$char_traits@D@std@@@std@@YAAEAV?$basic_istream@DU?$char_traits@D@std@@@0@AEAV10@@Z@4HA
pdata	ENDS
;	COMDAT pdata
pdata	SEGMENT
$pdata$?dtor$1@?0???$ws@DU?$char_traits@D@std@@@std@@YAAEAV?$basic_istream@DU?$char_traits@D@std@@@0@AEAV10@@Z@4HA DD imagerel ?dtor$1@?0???$ws@DU?$char_traits@D@std@@@std@@YAAEAV?$basic_istream@DU?$char_traits@D@std@@@0@AEAV10@@Z@4HA
	DD	imagerel ?dtor$1@?0???$ws@DU?$char_traits@D@std@@@std@@YAAEAV?$basic_istream@DU?$char_traits@D@std@@@0@AEAV10@@Z@4HA+39
	DD	imagerel $unwind$?dtor$1@?0???$ws@DU?$char_traits@D@std@@@std@@YAAEAV?$basic_istream@DU?$char_traits@D@std@@@0@AEAV10@@Z@4HA
pdata	ENDS
;	COMDAT pdata
pdata	SEGMENT
$pdata$?catch$2@?0???$ws@DU?$char_traits@D@std@@@std@@YAAEAV?$basic_istream@DU?$char_traits@D@std@@@0@AEAV10@@Z@4HA DD imagerel ?catch$2@?0???$ws@DU?$char_traits@D@std@@@std@@YAAEAV?$basic_istream@DU?$char_traits@D@std@@@0@AEAV10@@Z@4HA
	DD	imagerel ?catch$2@?0???$ws@DU?$char_traits@D@std@@@std@@YAAEAV?$basic_istream@DU?$char_traits@D@std@@@0@AEAV10@@Z@4HA+91
	DD	imagerel $unwind$?catch$2@?0???$ws@DU?$char_traits@D@std@@@std@@YAAEAV?$basic_istream@DU?$char_traits@D@std@@@0@AEAV10@@Z@4HA
pdata	ENDS
;	COMDAT pdata
pdata	SEGMENT
$pdata$??$any_cast@AEBV?$vector@UClient@Persistence@TechnicalServices@@V?$allocator@UClient@Persistence@TechnicalServices@@@std@@@std@@@std@@YAAEBV?$vector@UClient@Persistence@TechnicalServices@@V?$allocator@UClient@Persistence@TechnicalServices@@@std@@@0@AEAVany@0@@Z DD imagerel $LN4
	DD	imagerel $LN4+96
	DD	imagerel $unwind$??$any_cast@AEBV?$vector@UClient@Persistence@TechnicalServices@@V?$allocator@UClient@Persistence@TechnicalServices@@@std@@@std@@@std@@YAAEBV?$vector@UClient@Persistence@TechnicalServices@@V?$allocator@UClient@Persistence@TechnicalServices@@@std@@@0@AEAVany@0@@Z
pdata	ENDS
;	COMDAT pdata
pdata	SEGMENT
$pdata$??$toupper@D@std@@YADDAEBVlocale@0@@Z DD imagerel $LN3
	DD	imagerel $LN3+107
	DD	imagerel $unwind$??$toupper@D@std@@YADDAEBVlocale@0@@Z
pdata	ENDS
;	COMDAT pdata
pdata	SEGMENT
$pdata$??$any_cast@AEBV?$vector@UClientprofile@Persistence@TechnicalServices@@V?$allocator@UClientprofile@Persistence@TechnicalServices@@@std@@@std@@@std@@YAAEBV?$vector@UClientprofile@Persistence@TechnicalServices@@V?$allocator@UClientprofile@Persistence@TechnicalServices@@@std@@@0@AEAVany@0@@Z DD imagerel $LN4
	DD	imagerel $LN4+96
	DD	imagerel $unwind$??$any_cast@AEBV?$vector@UClientprofile@Persistence@TechnicalServices@@V?$allocator@UClientprofile@Persistence@TechnicalServices@@@std@@@std@@@std@@YAAEBV?$vector@UClientprofile@Persistence@TechnicalServices@@V?$allocator@UClientprofile@Persistence@TechnicalServices@@@std@@@0@AEAVany@0@@Z
pdata	ENDS
;	COMDAT pdata
pdata	SEGMENT
$pdata$??$any_cast@AEBUClientprofile@Persistence@TechnicalServices@@@std@@YAAEBUClientprofile@Persistence@TechnicalServices@@AEAVany@0@@Z DD imagerel $LN4
	DD	imagerel $LN4+96
	DD	imagerel $unwind$??$any_cast@AEBUClientprofile@Persistence@TechnicalServices@@@std@@YAAEBUClientprofile@Persistence@TechnicalServices@@AEAVany@0@@Z
pdata	ENDS
;	COMDAT pdata
pdata	SEGMENT
$pdata$??$?4U?$default_delete@VProductHandler@Product@Domain@@@std@@$0A@@?$unique_ptr@VProductHandler@Product@Domain@@U?$default_delete@VProductHandler@Product@Domain@@@std@@@std@@QEAAAEAV01@$$QEAV01@@Z DD imagerel $LN4
	DD	imagerel $LN4+162
	DD	imagerel $unwind$??$?4U?$default_delete@VProductHandler@Product@Domain@@@std@@$0A@@?$unique_ptr@VProductHandler@Product@Domain@@U?$default_delete@VProductHandler@Product@Domain@@@std@@@std@@QEAAAEAV01@$$QEAV01@@Z
pdata	ENDS
;	COMDAT pdata
pdata	SEGMENT
$pdata$??$?9VProductHandler@Product@Domain@@U?$default_delete@VProductHandler@Product@Domain@@@std@@@std@@YA_NAEBV?$unique_ptr@VProductHandler@Product@Domain@@U?$default_delete@VProductHandler@Product@Domain@@@std@@@0@$$T@Z DD imagerel $LN5
	DD	imagerel $LN5+124
	DD	imagerel $unwind$??$?9VProductHandler@Product@Domain@@U?$default_delete@VProductHandler@Product@Domain@@@std@@@std@@YA_NAEBV?$unique_ptr@VProductHandler@Product@Domain@@U?$default_delete@VProductHandler@Product@Domain@@@std@@@0@$$T@Z
pdata	ENDS
;	COMDAT pdata
pdata	SEGMENT
