; Listing generated by Microsoft (R) Optimizing Compiler Version 19.27.29112.0 

include listing.inc

INCLUDELIB MSVCRTD
INCLUDELIB OLDNAMES

msvcjmc	SEGMENT
__8906660C_vcruntime_new@h DB 01H
__09340588_corecrt_math@h DB 01H
__24E9E95F_stdlib@h DB 01H
__F8119FB4_cstdlib DB 01H
__F66CEB67_corecrt_stdio_config@h DB 01H
__101834BA_corecrt_wstdio@h DB 01H
__AD6A91B7_stdio@h DB 01H
__367CC694_corecrt_memcpy_s@h DB 01H
__5467428D_corecrt_wconio@h DB 01H
__4442441F_corecrt_wio@h DB 01H
__DC9673E3_corecrt_wstring@h DB 01H
__45F4AF76_corecrt_wtime@h DB 01H
__186FF47F_stat@h DB 01H
__534C724A_wchar@h DB 01H
__5DDA4519_cstddef DB 01H
__F2870A2C_limits DB 01H
__85A9AA98_type_traits DB 01H
__B0C4CEA9_malloc@h DB 01H
__E75714E4_vcruntime_exception@h DB 01H
__E4152856_exception DB 01H
__35D7DDB3_corecrt_memory@h DB 01H
__A29A7DFB_string@h DB 01H
__4324C6B3_xutility DB 01H
__A58979FC_xmemory DB 01H
__0ED96A82_algorithm DB 01H
__FB364CBD_vcruntime_typeinfo@h DB 01H
__33FB35AA_typeinfo DB 01H
__4E2906A2_memory DB 01H
__AC6CB2D0_tuple DB 01H
__E0552A5D_xpolymorphic_allocator@h DB 01H
__D15AFF60_xstring DB 01H
__6D5B120B_stdexcept DB 01H
__7242C389_ctype@h DB 01H
__3AFA803E_string DB 01H
__E181AB2C_any DB 01H
__03665793_xtree DB 01H
__0A4FAB91_cmath DB 01H
__160863A3_xcall_once@h DB 01H
__99B256EE_atomic DB 01H
__A9557183_system_error DB 01H
__626C51AD_xfacet DB 01H
__2C72D662_xlocinfo DB 01H
__0E648B51_xlocale DB 01H
__1597A171_xiosbase DB 01H
__90E3ED46_xlocnum DB 01H
__165C22CB_ios DB 01H
__2CA97190_LoggerHandler@hpp DB 01H
__1A2050A0_Product@hpp DB 01H
__8FBC3C8C_ProductHandler@cpp DB 01H
__BF2A7ACC_vector DB 01H
__7EA464AF_istream DB 01H
__1D745195_ostream DB 01H
__6FFBAAB7_streambuf DB 01H
__3E6EDFAA_iosfwd DB 01H
__528871F3_iterator DB 01H
__CF1C1A3F_utility DB 01H
__38038D2D_xstddef DB 01H
__EE19A480_xatomic@h DB 01H
msvcjmc	ENDS
PUBLIC	?__empty_global_delete@@YAXPEAX@Z		; __empty_global_delete
PUBLIC	?__empty_global_delete@@YAXPEAX_K@Z		; __empty_global_delete
PUBLIC	?__empty_global_delete@@YAXPEAXW4align_val_t@std@@@Z ; __empty_global_delete
PUBLIC	?__empty_global_delete@@YAXPEAX_KW4align_val_t@std@@@Z ; __empty_global_delete
PUBLIC	?_Adjust_manually_vector_aligned@std@@YAXAEAPEAXAEA_K@Z ; std::_Adjust_manually_vector_aligned
PUBLIC	?_Orphan_all@_Container_base12@std@@QEAAXXZ	; std::_Container_base12::_Orphan_all
PUBLIC	?deallocate@?$allocator@D@std@@QEAAXQEAD_K@Z	; std::allocator<char>::deallocate
PUBLIC	?compare@?$_Narrow_char_traits@DH@std@@SAHQEBD0_K@Z ; std::_Narrow_char_traits<char,int>::compare
PUBLIC	?length@?$_Narrow_char_traits@DH@std@@SA_KQEBD@Z ; std::_Narrow_char_traits<char,int>::length
PUBLIC	?assign@?$_Narrow_char_traits@DH@std@@SAXAEADAEBD@Z ; std::_Narrow_char_traits<char,int>::assign
PUBLIC	?_Myptr@?$_String_val@U?$_Simple_types@D@std@@@std@@QEBAPEBDXZ ; std::_String_val<std::_Simple_types<char> >::_Myptr
PUBLIC	?_Large_string_engaged@?$_String_val@U?$_Simple_types@D@std@@@std@@QEBA_NXZ ; std::_String_val<std::_Simple_types<char> >::_Large_string_engaged
PUBLIC	??1_Bxty@?$_String_val@U?$_Simple_types@D@std@@@std@@QEAA@XZ ; std::_String_val<std::_Simple_types<char> >::_Bxty::~_Bxty
PUBLIC	??1?$_String_val@U?$_Simple_types@D@std@@@std@@QEAA@XZ ; std::_String_val<std::_Simple_types<char> >::~_String_val<std::_Simple_types<char> >
PUBLIC	??1?$basic_string@DU?$char_traits@D@std@@V?$allocator@D@2@@std@@QEAA@XZ ; std::basic_string<char,std::char_traits<char>,std::allocator<char> >::~basic_string<char,std::char_traits<char>,std::allocator<char> >
PUBLIC	?_Equal@?$basic_string@DU?$char_traits@D@std@@V?$allocator@D@2@@std@@QEBA_NQEBD@Z ; std::basic_string<char,std::char_traits<char>,std::allocator<char> >::_Equal
PUBLIC	?_Tidy_deallocate@?$basic_string@DU?$char_traits@D@std@@V?$allocator@D@2@@std@@AEAAXXZ ; std::basic_string<char,std::char_traits<char>,std::allocator<char> >::_Tidy_deallocate
PUBLIC	?_Getal@?$basic_string@DU?$char_traits@D@std@@V?$allocator@D@2@@std@@AEAAAEAV?$allocator@D@2@XZ ; std::basic_string<char,std::char_traits<char>,std::allocator<char> >::_Getal
PUBLIC	?_Get_first@?$_Compressed_pair@V?$allocator@D@std@@V?$_String_val@U?$_Simple_types@D@std@@@2@$00@std@@QEAAAEAV?$allocator@D@2@XZ ; std::_Compressed_pair<std::allocator<char>,std::_String_val<std::_Simple_types<char> >,1>::_Get_first
PUBLIC	??1?$_Compressed_pair@V?$allocator@D@std@@V?$_String_val@U?$_Simple_types@D@std@@@2@$00@std@@QEAA@XZ ; std::_Compressed_pair<std::allocator<char>,std::_String_val<std::_Simple_types<char> >,1>::~_Compressed_pair<std::allocator<char>,std::_String_val<std::_Simple_types<char> >,1>
PUBLIC	??_G?$basic_string@DU?$char_traits@D@std@@V?$allocator@D@2@@std@@QEAAPEAXI@Z ; std::basic_string<char,std::char_traits<char>,std::allocator<char> >::`scalar deleting destructor'
PUBLIC	?deallocate@?$allocator@V?$basic_string@DU?$char_traits@D@std@@V?$allocator@D@2@@std@@@std@@QEAAXQEAV?$basic_string@DU?$char_traits@D@std@@V?$allocator@D@2@@2@_K@Z ; std::allocator<std::basic_string<char,std::char_traits<char>,std::allocator<char> > >::deallocate
PUBLIC	??1?$vector@V?$basic_string@DU?$char_traits@D@std@@V?$allocator@D@2@@std@@V?$allocator@V?$basic_string@DU?$char_traits@D@std@@V?$allocator@D@2@@std@@@2@@std@@QEAA@XZ ; std::vector<std::basic_string<char,std::char_traits<char>,std::allocator<char> >,std::allocator<std::basic_string<char,std::char_traits<char>,std::allocator<char> > > >::~vector<std::basic_string<char,std::char_traits<char>,std::allocator<char> >,std::allocator<std::basic_string<char,std::char_traits<char>,std::allocator<char> > > >
PUBLIC	??A?$vector@V?$basic_string@DU?$char_traits@D@std@@V?$allocator@D@2@@std@@V?$allocator@V?$basic_string@DU?$char_traits@D@std@@V?$allocator@D@2@@std@@@2@@std@@QEAAAEAV?$basic_string@DU?$char_traits@D@std@@V?$allocator@D@2@@1@_K@Z ; std::vector<std::basic_string<char,std::char_traits<char>,std::allocator<char> >,std::allocator<std::basic_string<char,std::char_traits<char>,std::allocator<char> > > >::operator[]
PUBLIC	?_Destroy@?$vector@V?$basic_string@DU?$char_traits@D@std@@V?$allocator@D@2@@std@@V?$allocator@V?$basic_string@DU?$char_traits@D@std@@V?$allocator@D@2@@std@@@2@@std@@AEAAXPEAV?$basic_string@DU?$char_traits@D@std@@V?$allocator@D@2@@2@0@Z ; std::vector<std::basic_string<char,std::char_traits<char>,std::allocator<char> >,std::allocator<std::basic_string<char,std::char_traits<char>,std::allocator<char> > > >::_Destroy
PUBLIC	?_Tidy@?$vector@V?$basic_string@DU?$char_traits@D@std@@V?$allocator@D@2@@std@@V?$allocator@V?$basic_string@DU?$char_traits@D@std@@V?$allocator@D@2@@std@@@2@@std@@AEAAXXZ ; std::vector<std::basic_string<char,std::char_traits<char>,std::allocator<char> >,std::allocator<std::basic_string<char,std::char_traits<char>,std::allocator<char> > > >::_Tidy
PUBLIC	?_Getal@?$vector@V?$basic_string@DU?$char_traits@D@std@@V?$allocator@D@2@@std@@V?$allocator@V?$basic_string@DU?$char_traits@D@std@@V?$allocator@D@2@@std@@@2@@std@@AEAAAEAV?$allocator@V?$basic_string@DU?$char_traits@D@std@@V?$allocator@D@2@@std@@@2@XZ ; std::vector<std::basic_string<char,std::char_traits<char>,std::allocator<char> >,std::allocator<std::basic_string<char,std::char_traits<char>,std::allocator<char> > > >::_Getal
PUBLIC	?_Get_first@?$_Compressed_pair@V?$allocator@V?$basic_string@DU?$char_traits@D@std@@V?$allocator@D@2@@std@@@std@@V?$_Vector_val@U?$_Simple_types@V?$basic_string@DU?$char_traits@D@std@@V?$allocator@D@2@@std@@@std@@@2@$00@std@@QEAAAEAV?$allocator@V?$basic_string@DU?$char_traits@D@std@@V?$allocator@D@2@@std@@@2@XZ ; std::_Compressed_pair<std::allocator<std::basic_string<char,std::char_traits<char>,std::allocator<char> > >,std::_Vector_val<std::_Simple_types<std::basic_string<char,std::char_traits<char>,std::allocator<char> > > >,1>::_Get_first
PUBLIC	??1UserCredentials@Persistence@TechnicalServices@@QEAA@XZ ; TechnicalServices::Persistence::UserCredentials::~UserCredentials
PUBLIC	?UseProductManagement@ProductHandler@Product@Domain@@SA?AV?$unique_ptr@VProductHandler@Product@Domain@@U?$default_delete@VProductHandler@Product@Domain@@@std@@@std@@AEBUUserCredentials@Persistence@TechnicalServices@@@Z ; Domain::Product::ProductHandler::UseProductManagement
PUBLIC	??1ProductHandler@Product@Domain@@UEAA@XZ	; Domain::Product::ProductHandler::~ProductHandler
PUBLIC	??$?8DU?$char_traits@D@std@@V?$allocator@D@1@@std@@YA_NAEBV?$basic_string@DU?$char_traits@D@std@@V?$allocator@D@2@@0@QEBD@Z ; std::operator==<char,std::char_traits<char>,std::allocator<char> >
PUBLIC	??$make_unique@UProductManagement@Product@Domain@@AEBUUserCredentials@Persistence@TechnicalServices@@$0A@@std@@YA?AV?$unique_ptr@UProductManagement@Product@Domain@@U?$default_delete@UProductManagement@Product@Domain@@@std@@@0@AEBUUserCredentials@Persistence@TechnicalServices@@@Z ; std::make_unique<Domain::Product::ProductManagement,TechnicalServices::Persistence::UserCredentials const &,0>
PUBLIC	??R?$default_delete@UProductManagement@Product@Domain@@@std@@QEBAXPEAUProductManagement@Product@Domain@@@Z ; std::default_delete<Domain::Product::ProductManagement>::operator()
PUBLIC	??1?$unique_ptr@UProductManagement@Product@Domain@@U?$default_delete@UProductManagement@Product@Domain@@@std@@@std@@QEAA@XZ ; std::unique_ptr<Domain::Product::ProductManagement,std::default_delete<Domain::Product::ProductManagement> >::~unique_ptr<Domain::Product::ProductManagement,std::default_delete<Domain::Product::ProductManagement> >
PUBLIC	?get_deleter@?$unique_ptr@UProductManagement@Product@Domain@@U?$default_delete@UProductManagement@Product@Domain@@@std@@@std@@QEAAAEAU?$default_delete@UProductManagement@Product@Domain@@@2@XZ ; std::unique_ptr<Domain::Product::ProductManagement,std::default_delete<Domain::Product::ProductManagement> >::get_deleter
PUBLIC	?release@?$unique_ptr@UProductManagement@Product@Domain@@U?$default_delete@UProductManagement@Product@Domain@@@std@@@std@@QEAAPEAUProductManagement@Product@Domain@@XZ ; std::unique_ptr<Domain::Product::ProductManagement,std::default_delete<Domain::Product::ProductManagement> >::release
PUBLIC	?_Get_first@?$_Compressed_pair@U?$default_delete@UProductManagement@Product@Domain@@@std@@PEAUProductManagement@Product@Domain@@$00@std@@QEAAAEAU?$default_delete@UProductManagement@Product@Domain@@@2@XZ ; std::_Compressed_pair<std::default_delete<Domain::Product::ProductManagement>,Domain::Product::ProductManagement *,1>::_Get_first
PUBLIC	??$?0UProductManagement@Product@Domain@@$0A@@?$default_delete@VProductHandler@Product@Domain@@@std@@QEAA@AEBU?$default_delete@UProductManagement@Product@Domain@@@1@@Z ; std::default_delete<Domain::Product::ProductHandler>::default_delete<Domain::Product::ProductHandler><Domain::Product::ProductManagement,0>
PUBLIC	??$?0UProductManagement@Product@Domain@@U?$default_delete@UProductManagement@Product@Domain@@@std@@$0A@@?$unique_ptr@VProductHandler@Product@Domain@@U?$default_delete@VProductHandler@Product@Domain@@@std@@@std@@QEAA@$$QEAV?$unique_ptr@UProductManagement@Product@Domain@@U?$default_delete@UProductManagement@Product@Domain@@@std@@@1@@Z ; std::unique_ptr<Domain::Product::ProductHandler,std::default_delete<Domain::Product::ProductHandler> >::unique_ptr<Domain::Product::ProductHandler,std::default_delete<Domain::Product::ProductHandler> ><Domain::Product::ProductManagement,std::default_delete<Domain::Product::ProductManagement>,0>
PUBLIC	??$?0U?$default_delete@VProductHandler@Product@Domain@@@std@@$0A@@?$unique_ptr@VProductHandler@Product@Domain@@U?$default_delete@VProductHandler@Product@Domain@@@std@@@std@@QEAA@$$T@Z ; std::unique_ptr<Domain::Product::ProductHandler,std::default_delete<Domain::Product::ProductHandler> >::unique_ptr<Domain::Product::ProductHandler,std::default_delete<Domain::Product::ProductHandler> ><std::default_delete<Domain::Product::ProductHandler>,0>
PUBLIC	??$exchange@PEAU_Container_proxy@std@@$$T@std@@YAPEAU_Container_proxy@0@AEAPEAU10@$$QEA$$T@Z ; std::exchange<std::_Container_proxy *,std::nullptr_t>
PUBLIC	??$_Delete_plain_internal@V?$allocator@U_Container_proxy@std@@@std@@@std@@YAXAEAV?$allocator@U_Container_proxy@std@@@0@QEAU_Container_proxy@0@@Z ; std::_Delete_plain_internal<std::allocator<std::_Container_proxy> >
PUBLIC	??$?0V?$basic_string@DU?$char_traits@D@std@@V?$allocator@D@2@@std@@@?$allocator@U_Container_proxy@std@@@std@@QEAA@AEBV?$allocator@V?$basic_string@DU?$char_traits@D@std@@V?$allocator@D@2@@std@@@1@@Z ; std::allocator<std::_Container_proxy>::allocator<std::_Container_proxy><std::basic_string<char,std::char_traits<char>,std::allocator<char> > >
PUBLIC	??$?0D@?$allocator@U_Container_proxy@std@@@std@@QEAA@AEBV?$allocator@D@1@@Z ; std::allocator<std::_Container_proxy>::allocator<std::_Container_proxy><char>
PUBLIC	??$_Destroy_in_place@PEAD@std@@YAXAEAPEAD@Z	; std::_Destroy_in_place<char *>
PUBLIC	??$_Unfancy@D@std@@YAPEADPEAD@Z			; std::_Unfancy<char>
PUBLIC	??$_Deallocate@$0BA@$0A@@std@@YAXPEAX_K@Z	; std::_Deallocate<16,0>
PUBLIC	??$_Destroy_range@V?$allocator@V?$basic_string@DU?$char_traits@D@std@@V?$allocator@D@2@@std@@@std@@@std@@YAXPEAV?$basic_string@DU?$char_traits@D@std@@V?$allocator@D@2@@0@QEAV10@AEAV?$allocator@V?$basic_string@DU?$char_traits@D@std@@V?$allocator@D@2@@std@@@0@@Z ; std::_Destroy_range<std::allocator<std::basic_string<char,std::char_traits<char>,std::allocator<char> > > >
PUBLIC	??$forward@AEBUUserCredentials@Persistence@TechnicalServices@@@std@@YAAEBUUserCredentials@Persistence@TechnicalServices@@AEBU123@@Z ; std::forward<TechnicalServices::Persistence::UserCredentials const &>
PUBLIC	??$?0U?$default_delete@UProductManagement@Product@Domain@@@std@@$0A@@?$unique_ptr@UProductManagement@Product@Domain@@U?$default_delete@UProductManagement@Product@Domain@@@std@@@std@@QEAA@PEAUProductManagement@Product@Domain@@@Z ; std::unique_ptr<Domain::Product::ProductManagement,std::default_delete<Domain::Product::ProductManagement> >::unique_ptr<Domain::Product::ProductManagement,std::default_delete<Domain::Product::ProductManagement> ><std::default_delete<Domain::Product::ProductManagement>,0>
PUBLIC	??$forward@U?$default_delete@UProductManagement@Product@Domain@@@std@@@std@@YA$$QEAU?$default_delete@UProductManagement@Product@Domain@@@0@AEAU10@@Z ; std::forward<std::default_delete<Domain::Product::ProductManagement> >
PUBLIC	??$?0U?$default_delete@UProductManagement@Product@Domain@@@std@@PEAUProductManagement@Product@Domain@@@?$_Compressed_pair@U?$default_delete@VProductHandler@Product@Domain@@@std@@PEAVProductHandler@Product@Domain@@$00@std@@QEAA@U_One_then_variadic_args_t@1@$$QEAU?$default_delete@UProductManagement@Product@Domain@@@1@$$QEAPEAUProductManagement@Product@Domain@@@Z ; std::_Compressed_pair<std::default_delete<Domain::Product::ProductHandler>,Domain::Product::ProductHandler *,1>::_Compressed_pair<std::default_delete<Domain::Product::ProductHandler>,Domain::Product::ProductHandler *,1><std::default_delete<Domain::Product::ProductManagement>,Domain::Product::ProductManagement *>
PUBLIC	??$?0$$V@?$_Compressed_pair@U?$default_delete@VProductHandler@Product@Domain@@@std@@PEAVProductHandler@Product@Domain@@$00@std@@QEAA@U_Zero_then_variadic_args_t@1@@Z ; std::_Compressed_pair<std::default_delete<Domain::Product::ProductHandler>,Domain::Product::ProductHandler *,1>::_Compressed_pair<std::default_delete<Domain::Product::ProductHandler>,Domain::Product::ProductHandler *,1><>
PUBLIC	??$_Deallocate_plain@V?$allocator@U_Container_proxy@std@@@std@@@std@@YAXAEAV?$allocator@U_Container_proxy@std@@@0@QEAU_Container_proxy@0@@Z ; std::_Deallocate_plain<std::allocator<std::_Container_proxy> >
PUBLIC	??$_Unfancy@V?$basic_string@DU?$char_traits@D@std@@V?$allocator@D@2@@std@@@std@@YAPEAV?$basic_string@DU?$char_traits@D@std@@V?$allocator@D@2@@0@PEAV10@@Z ; std::_Unfancy<std::basic_string<char,std::char_traits<char>,std::allocator<char> > >
PUBLIC	??$destroy@V?$basic_string@DU?$char_traits@D@std@@V?$allocator@D@2@@std@@@?$_Default_allocator_traits@V?$allocator@V?$basic_string@DU?$char_traits@D@std@@V?$allocator@D@2@@std@@@std@@@std@@SAXAEAV?$allocator@V?$basic_string@DU?$char_traits@D@std@@V?$allocator@D@2@@std@@@1@QEAV?$basic_string@DU?$char_traits@D@std@@V?$allocator@D@2@@1@@Z ; std::_Default_allocator_traits<std::allocator<std::basic_string<char,std::char_traits<char>,std::allocator<char> > > >::destroy<std::basic_string<char,std::char_traits<char>,std::allocator<char> > >
PUBLIC	??$exchange@PEAUProductManagement@Product@Domain@@PEAU123@@std@@YAPEAUProductManagement@Product@Domain@@AEAPEAU123@$$QEAPEAU123@@Z ; std::exchange<Domain::Product::ProductManagement *,Domain::Product::ProductManagement *>
PUBLIC	??$_Traits_equal@U?$char_traits@D@std@@@std@@YA_NQEBD_K01@Z ; std::_Traits_equal<std::char_traits<char> >
PUBLIC	??$?0AEAPEAUProductManagement@Product@Domain@@@?$_Compressed_pair@U?$default_delete@UProductManagement@Product@Domain@@@std@@PEAUProductManagement@Product@Domain@@$00@std@@QEAA@U_Zero_then_variadic_args_t@1@AEAPEAUProductManagement@Product@Domain@@@Z ; std::_Compressed_pair<std::default_delete<Domain::Product::ProductManagement>,Domain::Product::ProductManagement *,1>::_Compressed_pair<std::default_delete<Domain::Product::ProductManagement>,Domain::Product::ProductManagement *,1><Domain::Product::ProductManagement * &>
PUBLIC	??$forward@PEAUProductManagement@Product@Domain@@@std@@YA$$QEAPEAUProductManagement@Product@Domain@@AEAPEAU123@@Z ; std::forward<Domain::Product::ProductManagement *>
PUBLIC	?deallocate@?$_Default_allocator_traits@V?$allocator@U_Container_proxy@std@@@std@@@std@@SAXAEAV?$allocator@U_Container_proxy@std@@@2@QEAU_Container_proxy@2@_K@Z ; std::_Default_allocator_traits<std::allocator<std::_Container_proxy> >::deallocate
PUBLIC	??$forward@AEAPEAUProductManagement@Product@Domain@@@std@@YAAEAPEAUProductManagement@Product@Domain@@AEAPEAU123@@Z ; std::forward<Domain::Product::ProductManagement * &>
PUBLIC	__JustMyCode_Default
PUBLIC	?__LINE__Var@?0??_Adjust_manually_vector_aligned@std@@YAXAEAPEAXAEA_K@Z@4JA ; `std::_Adjust_manually_vector_aligned'::`1'::__LINE__Var
PUBLIC	??_C@_0BB@FCMFBGOM@invalid?5argument@		; `string'
PUBLIC	??_C@_02DKCKIIND@?$CFs@				; `string'
PUBLIC	??_C@_0GI@JMEOMKJO@C?3?2Program?5Files?5?$CIx86?$CJ?2Microsof@ ; `string'
PUBLIC	??_C@_1NA@FEEOBALC@?$AAC?$AA?3?$AA?2?$AAP?$AAr?$AAo?$AAg?$AAr?$AAa?$AAm?$AA?5?$AAF?$AAi?$AAl?$AAe@ ; `string'
PUBLIC	??_C@_1EK@NIFDJFDG@?$AAs?$AAt?$AAd?$AA?3?$AA?3?$AA_?$AAA?$AAd?$AAj?$AAu?$AAs?$AAt?$AA_?$AAm?$AAa@ ; `string'
PUBLIC	??_C@_1CG@JNLFBNGN@?$AA?$CC?$AAi?$AAn?$AAv?$AAa?$AAl?$AAi?$AAd?$AA?5?$AAa?$AAr?$AAg?$AAu?$AAm?$AAe@ ; `string'
PUBLIC	??_7ProductHandler@Product@Domain@@6B@		; Domain::Product::ProductHandler::`vftable'
PUBLIC	??_C@_0M@FHFJHGNJ@Salesperson@			; `string'
PUBLIC	??_C@_0BO@PFKOHNJC@vector?5subscript?5out?5of?5range@ ; `string'
PUBLIC	??_C@_0GH@HACIOKNJ@C?3?2Program?5Files?5?$CIx86?$CJ?2Microsof@ ; `string'
PUBLIC	??_C@_1MO@KFAGNMIJ@?$AAC?$AA?3?$AA?2?$AAP?$AAr?$AAo?$AAg?$AAr?$AAa?$AAm?$AA?5?$AAF?$AAi?$AAl?$AAe@ ; `string'
PUBLIC	??_C@_1BME@NCIPHHDN@?$AAs?$AAt?$AAd?$AA?3?$AA?3?$AAv?$AAe?$AAc?$AAt?$AAo?$AAr?$AA?$DM?$AAc?$AAl?$AAa@ ; `string'
PUBLIC	??_C@_1EA@LEKOKFNB@?$AA?$CC?$AAv?$AAe?$AAc?$AAt?$AAo?$AAr?$AA?5?$AAs?$AAu?$AAb?$AAs?$AAc?$AAr?$AAi@ ; `string'
PUBLIC	??_R4ProductHandler@Product@Domain@@6B@		; Domain::Product::ProductHandler::`RTTI Complete Object Locator'
PUBLIC	??_R0?AVProductHandler@Product@Domain@@@8	; Domain::Product::ProductHandler `RTTI Type Descriptor'
PUBLIC	??_R3ProductHandler@Product@Domain@@8		; Domain::Product::ProductHandler::`RTTI Class Hierarchy Descriptor'
PUBLIC	??_R2ProductHandler@Product@Domain@@8		; Domain::Product::ProductHandler::`RTTI Base Class Array'
PUBLIC	??_R1A@?0A@EA@ProductHandler@Product@Domain@@8	; Domain::Product::ProductHandler::`RTTI Base Class Descriptor at (0,-1,0,64)'
EXTRN	_purecall:PROC
EXTRN	??2@YAPEAX_K@Z:PROC				; operator new
EXTRN	??3@YAXPEAX_K@Z:PROC				; operator delete
EXTRN	__imp__invalid_parameter:PROC
EXTRN	__imp__CrtDbgReport:PROC
EXTRN	__imp_??0_Lockit@std@@QEAA@H@Z:PROC
EXTRN	__imp_??1_Lockit@std@@QEAA@XZ:PROC
EXTRN	?instance@PersistenceHandler@Persistence@TechnicalServices@@SAAEAV123@XZ:PROC ; TechnicalServices::Persistence::PersistenceHandler::instance
EXTRN	??0ProductManagement@Product@Domain@@QEAA@AEBUUserCredentials@Persistence@TechnicalServices@@@Z:PROC ; Domain::Product::ProductManagement::ProductManagement
EXTRN	_RTC_CheckStackVars:PROC
EXTRN	_RTC_InitBase:PROC
EXTRN	_RTC_Shutdown:PROC
EXTRN	__CheckForDebuggerJustMyCode:PROC
EXTRN	__CxxFrameHandler4:PROC
EXTRN	__GSHandlerCheck_EH4:PROC
EXTRN	__security_check_cookie:PROC
EXTRN	memcmp:PROC
EXTRN	??_7type_info@@6B@:BYTE				; type_info::`vftable'
EXTRN	__security_cookie:QWORD
;	COMDAT pdata
pdata	SEGMENT
$pdata$?__empty_global_delete@@YAXPEAX@Z DD imagerel $LN3
	DD	imagerel $LN3+65
	DD	imagerel $unwind$?__empty_global_delete@@YAXPEAX@Z
pdata	ENDS
;	COMDAT pdata
pdata	SEGMENT
$pdata$?__empty_global_delete@@YAXPEAX_K@Z DD imagerel $LN3
	DD	imagerel $LN3+70
	DD	imagerel $unwind$?__empty_global_delete@@YAXPEAX_K@Z
pdata	ENDS
;	COMDAT pdata
pdata	SEGMENT
$pdata$?__empty_global_delete@@YAXPEAXW4align_val_t@std@@@Z DD imagerel $LN3
	DD	imagerel $LN3+70
	DD	imagerel $unwind$?__empty_global_delete@@YAXPEAXW4align_val_t@std@@@Z
pdata	ENDS
;	COMDAT pdata
pdata	SEGMENT
$pdata$?__empty_global_delete@@YAXPEAX_KW4align_val_t@std@@@Z DD imagerel $LN3
	DD	imagerel $LN3+75
	DD	imagerel $unwind$?__empty_global_delete@@YAXPEAX_KW4align_val_t@std@@@Z
pdata	ENDS
;	COMDAT pdata
pdata	SEGMENT
$pdata$?_Adjust_manually_vector_aligned@std@@YAXAEAPEAXAEA_K@Z DD imagerel $LN21
	DD	imagerel $LN21+476
	DD	imagerel $unwind$?_Adjust_manually_vector_aligned@std@@YAXAEAPEAXAEA_K@Z
pdata	ENDS
;	COMDAT pdata
pdata	SEGMENT
$pdata$?_Orphan_all@_Container_base12@std@@QEAAXXZ DD imagerel $LN7
	DD	imagerel $LN7+233
	DD	imagerel $unwind$?_Orphan_all@_Container_base12@std@@QEAAXXZ
pdata	ENDS
;	COMDAT pdata
pdata	SEGMENT
$pdata$?deallocate@?$allocator@D@std@@QEAAXQEAD_K@Z DD imagerel $LN3
	DD	imagerel $LN3+93
	DD	imagerel $unwind$?deallocate@?$allocator@D@std@@QEAAXQEAD_K@Z
pdata	ENDS
;	COMDAT pdata
pdata	SEGMENT
$pdata$?compare@?$_Narrow_char_traits@DH@std@@SAHQEBD0_K@Z DD imagerel $LN3
	DD	imagerel $LN3+101
	DD	imagerel $unwind$?compare@?$_Narrow_char_traits@DH@std@@SAHQEBD0_K@Z
pdata	ENDS
;	COMDAT pdata
pdata	SEGMENT
$pdata$?length@?$_Narrow_char_traits@DH@std@@SA_KQEBD@Z DD imagerel $LN4
	DD	imagerel $LN4+123
	DD	imagerel $unwind$?length@?$_Narrow_char_traits@DH@std@@SA_KQEBD@Z
pdata	ENDS
;	COMDAT pdata
pdata	SEGMENT
$pdata$?assign@?$_Narrow_char_traits@DH@std@@SAXAEADAEBD@Z DD imagerel $LN3
	DD	imagerel $LN3+88
	DD	imagerel $unwind$?assign@?$_Narrow_char_traits@DH@std@@SAXAEADAEBD@Z
pdata	ENDS
;	COMDAT pdata
pdata	SEGMENT
$pdata$?_Myptr@?$_String_val@U?$_Simple_types@D@std@@@std@@QEBAPEBDXZ DD imagerel $LN4
	DD	imagerel $LN4+122
	DD	imagerel $unwind$?_Myptr@?$_String_val@U?$_Simple_types@D@std@@@std@@QEBAPEBDXZ
pdata	ENDS
;	COMDAT pdata
pdata	SEGMENT
$pdata$?_Large_string_engaged@?$_String_val@U?$_Simple_types@D@std@@@std@@QEBA_NXZ DD imagerel $LN5
	DD	imagerel $LN5+107
	DD	imagerel $unwind$?_Large_string_engaged@?$_String_val@U?$_Simple_types@D@std@@@std@@QEBA_NXZ
pdata	ENDS
;	COMDAT pdata
pdata	SEGMENT
$pdata$??1_Bxty@?$_String_val@U?$_Simple_types@D@std@@@std@@QEAA@XZ DD imagerel $LN3
	DD	imagerel $LN3+65
	DD	imagerel $unwind$??1_Bxty@?$_String_val@U?$_Simple_types@D@std@@@std@@QEAA@XZ
pdata	ENDS
;	COMDAT pdata
pdata	SEGMENT
$pdata$??1?$_String_val@U?$_Simple_types@D@std@@@std@@QEAA@XZ DD imagerel $LN3
	DD	imagerel $LN3+71
	DD	imagerel $unwind$??1?$_String_val@U?$_Simple_types@D@std@@@std@@QEAA@XZ
pdata	ENDS
;	COMDAT pdata
pdata	SEGMENT
$pdata$??1?$basic_string@DU?$char_traits@D@std@@V?$allocator@D@2@@std@@QEAA@XZ DD imagerel $LN3
	DD	imagerel $LN3+213
	DD	imagerel $unwind$??1?$basic_string@DU?$char_traits@D@std@@V?$allocator@D@2@@std@@QEAA@XZ
pdata	ENDS
;	COMDAT pdata
pdata	SEGMENT
$pdata$?_Equal@?$basic_string@DU?$char_traits@D@std@@V?$allocator@D@2@@std@@QEBA_NQEBD@Z DD imagerel $LN3
	DD	imagerel $LN3+162
	DD	imagerel $unwind$?_Equal@?$basic_string@DU?$char_traits@D@std@@V?$allocator@D@2@@std@@QEBA_NQEBD@Z
pdata	ENDS
;	COMDAT pdata
pdata	SEGMENT
$pdata$?_Tidy_deallocate@?$basic_string@DU?$char_traits@D@std@@V?$allocator@D@2@@std@@AEAAXXZ DD imagerel $LN4
	DD	imagerel $LN4+255
	DD	imagerel $unwind$?_Tidy_deallocate@?$basic_string@DU?$char_traits@D@std@@V?$allocator@D@2@@std@@AEAAXXZ
pdata	ENDS
;	COMDAT pdata
pdata	SEGMENT
$pdata$?_Getal@?$basic_string@DU?$char_traits@D@std@@V?$allocator@D@2@@std@@AEAAAEAV?$allocator@D@2@XZ DD imagerel $LN3
	DD	imagerel $LN3+80
	DD	imagerel $unwind$?_Getal@?$basic_string@DU?$char_traits@D@std@@V?$allocator@D@2@@std@@AEAAAEAV?$allocator@D@2@XZ
pdata	ENDS
;	COMDAT pdata
pdata	SEGMENT
$pdata$?_Get_first@?$_Compressed_pair@V?$allocator@D@std@@V?$_String_val@U?$_Simple_types@D@std@@@2@$00@std@@QEAAAEAV?$allocator@D@2@XZ DD imagerel $LN3
	DD	imagerel $LN3+71
	DD	imagerel $unwind$?_Get_first@?$_Compressed_pair@V?$allocator@D@std@@V?$_String_val@U?$_Simple_types@D@std@@@2@$00@std@@QEAAAEAV?$allocator@D@2@XZ
pdata	ENDS
;	COMDAT pdata
pdata	SEGMENT
$pdata$??1?$_Compressed_pair@V?$allocator@D@std@@V?$_String_val@U?$_Simple_types@D@std@@@2@$00@std@@QEAA@XZ DD imagerel $LN3
	DD	imagerel $LN3+67
	DD	imagerel $unwind$??1?$_Compressed_pair@V?$allocator@D@std@@V?$_String_val@U?$_Simple_types@D@std@@@2@$00@std@@QEAA@XZ
pdata	ENDS
;	COMDAT pdata
pdata	SEGMENT
$pdata$??_G?$basic_string@DU?$char_traits@D@std@@V?$allocator@D@2@@std@@QEAAPEAXI@Z DD imagerel $LN4
	DD	imagerel $LN4+105
	DD	imagerel $unwind$??_G?$basic_string@DU?$char_traits@D@std@@V?$allocator@D@2@@std@@QEAAPEAXI@Z
pdata	ENDS
;	COMDAT pdata
pdata	SEGMENT
$pdata$?deallocate@?$allocator@V?$basic_string@DU?$char_traits@D@std@@V?$allocator@D@2@@std@@@std@@QEAAXQEAV?$basic_string@DU?$char_traits@D@std@@V?$allocator@D@2@@2@_K@Z DD imagerel $LN3
	DD	imagerel $LN3+97
	DD	imagerel $unwind$?deallocate@?$allocator@V?$basic_string@DU?$char_traits@D@std@@V?$allocator@D@2@@std@@@std@@QEAAXQEAV?$basic_string@DU?$char_traits@D@std@@V?$allocator@D@2@@2@_K@Z
pdata	ENDS
;	COMDAT pdata
pdata	SEGMENT
$pdata$??1?$vector@V?$basic_string@DU?$char_traits@D@std@@V?$allocator@D@2@@std@@V?$allocator@V?$basic_string@DU?$char_traits@D@std@@V?$allocator@D@2@@std@@@2@@std@@QEAA@XZ DD imagerel $LN3
	DD	imagerel $LN3+202
	DD	imagerel $unwind$??1?$vector@V?$basic_string@DU?$char_traits@D@std@@V?$allocator@D@2@@std@@V?$allocator@V?$basic_string@DU?$char_traits@D@std@@V?$allocator@D@2@@std@@@2@@std@@QEAA@XZ
pdata	ENDS
;	COMDAT pdata
pdata	SEGMENT
$pdata$??A?$vector@V?$basic_string@DU?$char_traits@D@std@@V?$allocator@D@2@@std@@V?$allocator@V?$basic_string@DU?$char_traits@D@std@@V?$allocator@D@2@@std@@@2@@std@@QEAAAEAV?$basic_string@DU?$char_traits@D@std@@V?$allocator@D@2@@1@_K@Z DD imagerel $LN12
	DD	imagerel $LN12+253
	DD	imagerel $unwind$??A?$vector@V?$basic_string@DU?$char_traits@D@std@@V?$allocator@D@2@@std@@V?$allocator@V?$basic_string@DU?$char_traits@D@std@@V?$allocator@D@2@@std@@@2@@std@@QEAAAEAV?$basic_string@DU?$char_traits@D@std@@V?$allocator@D@2@@1@_K@Z
pdata	ENDS
;	COMDAT pdata
pdata	SEGMENT
$pdata$?_Destroy@?$vector@V?$basic_string@DU?$char_traits@D@std@@V?$allocator@D@2@@std@@V?$allocator@V?$basic_string@DU?$char_traits@D@std@@V?$allocator@D@2@@std@@@2@@std@@AEAAXPEAV?$basic_string@DU?$char_traits@D@std@@V?$allocator@D@2@@2@0@Z DD imagerel $LN3
	DD	imagerel $LN3+108
	DD	imagerel $unwind$?_Destroy@?$vector@V?$basic_string@DU?$char_traits@D@std@@V?$allocator@D@2@@std@@V?$allocator@V?$basic_string@DU?$char_traits@D@std@@V?$allocator@D@2@@std@@@2@@std@@AEAAXPEAV?$basic_string@DU?$char_traits@D@std@@V?$allocator@D@2@@2@0@Z
pdata	ENDS
;	COMDAT pdata
pdata	SEGMENT
$pdata$?_Tidy@?$vector@V?$basic_string@DU?$char_traits@D@std@@V?$allocator@D@2@@std@@V?$allocator@V?$basic_string@DU?$char_traits@D@std@@V?$allocator@D@2@@std@@@2@@std@@AEAAXXZ DD imagerel $LN4
	DD	imagerel $LN4+286
	DD	imagerel $unwind$?_Tidy@?$vector@V?$basic_string@DU?$char_traits@D@std@@V?$allocator@D@2@@std@@V?$allocator@V?$basic_string@DU?$char_traits@D@std@@V?$allocator@D@2@@std@@@2@@std@@AEAAXXZ
pdata	ENDS
;	COMDAT pdata
pdata	SEGMENT
$pdata$?_Getal@?$vector@V?$basic_string@DU?$char_traits@D@std@@V?$allocator@D@2@@std@@V?$allocator@V?$basic_string@DU?$char_traits@D@std@@V?$allocator@D@2@@std@@@2@@std@@AEAAAEAV?$allocator@V?$basic_string@DU?$char_traits@D@std@@V?$allocator@D@2@@std@@@2@XZ DD imagerel $LN3
	DD	imagerel $LN3+80
	DD	imagerel $unwind$?_Getal@?$vector@V?$basic_string@DU?$char_traits@D@std@@V?$allocator@D@2@@std@@V?$allocator@V?$basic_string@DU?$char_traits@D@std@@V?$allocator@D@2@@std@@@2@@std@@AEAAAEAV?$allocator@V?$basic_string@DU?$char_traits@D@std@@V?$allocator@D@2@@std@@@2@XZ
pdata	ENDS
;	COMDAT pdata
pdata	SEGMENT
$pdata$?_Get_first@?$_Compressed_pair@V?$allocator@V?$basic_string@DU?$char_traits@D@std@@V?$allocator@D@2@@std@@@std@@V?$_Vector_val@U?$_Simple_types@V?$basic_string@DU?$char_traits@D@std@@V?$allocator@D@2@@std@@@std@@@2@$00@std@@QEAAAEAV?$allocator@V?$basic_string@DU?$char_traits@D@std@@V?$allocator@D@2@@std@@@2@XZ DD imagerel $LN3
	DD	imagerel $LN3+71
	DD	imagerel $unwind$?_Get_first@?$_Compressed_pair@V?$allocator@V?$basic_string@DU?$char_traits@D@std@@V?$allocator@D@2@@std@@@std@@V?$_Vector_val@U?$_Simple_types@V?$basic_string@DU?$char_traits@D@std@@V?$allocator@D@2@@std@@@std@@@2@$00@std@@QEAAAEAV?$allocator@V?$basic_string@DU?$char_traits@D@std@@V?$allocator@D@2@@std@@@2@XZ
pdata	ENDS
;	COMDAT pdata
pdata	SEGMENT
$pdata$??1UserCredentials@Persistence@TechnicalServices@@QEAA@XZ DD imagerel $LN3
	DD	imagerel $LN3+130
	DD	imagerel $unwind$??1UserCredentials@Persistence@TechnicalServices@@QEAA@XZ
pdata	ENDS
;	COMDAT pdata
pdata	SEGMENT
$pdata$?UseProductManagement@ProductHandler@Product@Domain@@SA?AV?$unique_ptr@VProductHandler@Product@Domain@@U?$default_delete@VProductHandler@Product@Domain@@@std@@@std@@AEBUUserCredentials@Persistence@TechnicalServices@@@Z DD imagerel $LN8
	DD	imagerel $LN8+361
	DD	imagerel $unwind$?UseProductManagement@ProductHandler@Product@Domain@@SA?AV?$unique_ptr@VProductHandler@Product@Domain@@U?$default_delete@VProductHandler@Product@Domain@@@std@@@std@@AEBUUserCredentials@Persistence@TechnicalServices@@@Z
pdata	ENDS
;	COMDAT pdata
pdata	SEGMENT
$pdata$?dtor$0@?0??UseProductManagement@ProductHandler@Product@Domain@@SA?AV?$unique_ptr@VProductHandler@Product@Domain@@U?$default_delete@VProductHandler@Product@Domain@@@std@@@std@@AEBUUserCredentials@Persistence@TechnicalServices@@@Z@4HA DD imagerel ?dtor$0@?0??UseProductManagement@ProductHandler@Product@Domain@@SA?AV?$unique_ptr@VProductHandler@Product@Domain@@U?$default_delete@VProductHandler@Product@Domain@@@std@@@std@@AEBUUserCredentials@Persistence@TechnicalServices@@@Z@4HA
	DD	imagerel ?dtor$0@?0??UseProductManagement@ProductHandler@Product@Domain@@SA?AV?$unique_ptr@VProductHandler@Product@Domain@@U?$default_delete@VProductHandler@Product@Domain@@@std@@@std@@AEBUUserCredentials@Persistence@TechnicalServices@@@Z@4HA+36
	DD	imagerel $unwind$?dtor$0@?0??UseProductManagement@ProductHandler@Product@Domain@@SA?AV?$unique_ptr@VProductHandler@Product@Domain@@U?$default_delete@VProductHandler@Product@Domain@@@std@@@std@@AEBUUserCredentials@Persistence@TechnicalServices@@@Z@4HA
pdata	ENDS
;	COMDAT pdata
pdata	SEGMENT
$pdata$??1ProductHandler@Product@Domain@@UEAA@XZ DD imagerel $LN3
	DD	imagerel $LN3+81
	DD	imagerel $unwind$??1ProductHandler@Product@Domain@@UEAA@XZ
pdata	ENDS
;	COMDAT pdata
pdata	SEGMENT
$pdata$??$?8DU?$char_traits@D@std@@V?$allocator@D@1@@std@@YA_NAEBV?$basic_string@DU?$char_traits@D@std@@V?$allocator@D@2@@0@QEBD@Z DD imagerel $LN3
	DD	imagerel $LN3+88
	DD	imagerel $unwind$??$?8DU?$char_traits@D@std@@V?$allocator@D@1@@std@@YA_NAEBV?$basic_string@DU?$char_traits@D@std@@V?$allocator@D@2@@0@QEBD@Z
pdata	ENDS
;	COMDAT pdata
pdata	SEGMENT
$pdata$??$make_unique@UProductManagement@Product@Domain@@AEBUUserCredentials@Persistence@TechnicalServices@@$0A@@std@@YA?AV?$unique_ptr@UProductManagement@Product@Domain@@U?$default_delete@UProductManagement@Product@Domain@@@std@@@0@AEBUUserCredentials@Persistence@TechnicalServices@@@Z DD imagerel $LN8
	DD	imagerel $LN8+219
	DD	imagerel $unwind$??$make_unique@UProductManagement@Product@Domain@@AEBUUserCredentials@Persistence@TechnicalServices@@$0A@@std@@YA?AV?$unique_ptr@UProductManagement@Product@Domain@@U?$default_delete@UProductManagement@Product@Domain@@@std@@@0@AEBUUserCredentials@Persistence@TechnicalServices@@@Z
pdata	ENDS
;	COMDAT pdata
pdata	SEGMENT
$pdata$?dtor$0@?0???$make_unique@UProductManagement@Product@Domain@@AEBUUserCredentials@Persistence@TechnicalServices@@$0A@@std@@YA?AV?$unique_ptr@UProductManagement@Product@Domain@@U?$default_delete@UProductManagement@Product@Domain@@@std@@@0@AEBUUserCredentials@Persistence@TechnicalServices@@@Z@4HA DD imagerel ?dtor$0@?0???$make_unique@UProductManagement@Product@Domain@@AEBUUserCredentials@Persistence@TechnicalServices@@$0A@@std@@YA?AV?$unique_ptr@UProductManagement@Product@Domain@@U?$default_delete@UProductManagement@Product@Domain@@@std@@@0@AEBUUserCredentials@Persistence@TechnicalServices@@@Z@4HA
	DD	imagerel ?dtor$0@?0???$make_unique@UProductManagement@Product@Domain@@AEBUUserCredentials@Persistence@TechnicalServices@@$0A@@std@@YA?AV?$unique_ptr@UProductManagement@Product@Domain@@U?$default_delete@UProductManagement@Product@Domain@@@std@@@0@AEBUUserCredentials@Persistence@TechnicalServices@@@Z@4HA+44
	DD	imagerel $unwind$?dtor$0@?0???$make_unique@UProductManagement@Product@Domain@@AEBUUserCredentials@Persistence@TechnicalServices@@$0A@@std@@YA?AV?$unique_ptr@UProductManagement@Product@Domain@@U?$default_delete@UProductManagement@Product@Domain@@@std@@@0@AEBUUserCredentials@Persistence@TechnicalServices@@@Z@4HA
pdata	ENDS
;	COMDAT pdata
pdata	SEGMENT
$pdata$??R?$default_delete@UProductManagement@Product@Domain@@@std@@QEBAXPEAUProductManagement@Product@Domain@@@Z DD imagerel $LN5
	DD	imagerel $LN5+152
	DD	imagerel $unwind$??R?$default_delete@UProductManagement@Product@Domain@@@std@@QEBAXPEAUProductManagement@Product@Domain@@@Z
pdata	ENDS
;	COMDAT pdata
pdata	SEGMENT
$pdata$??1?$unique_ptr@UProductManagement@Product@Domain@@U?$default_delete@UProductManagement@Product@Domain@@@std@@@std@@QEAA@XZ DD imagerel $LN4
	DD	imagerel $LN4+136
	DD	imagerel $unwind$??1?$unique_ptr@UProductManagement@Product@Domain@@U?$default_delete@UProductManagement@Product@Domain@@@std@@@std@@QEAA@XZ
pdata	ENDS
;	COMDAT pdata
pdata	SEGMENT
$pdata$?get_deleter@?$unique_ptr@UProductManagement@Product@Domain@@U?$default_delete@UProductManagement@Product@Domain@@@std@@@std@@QEAAAEAU?$default_delete@UProductManagement@Product@Domain@@@2@XZ DD imagerel $LN3
	DD	imagerel $LN3+80
	DD	imagerel $unwind$?get_deleter@?$unique_ptr@UProductManagement@Product@Domain@@U?$default_delete@UProductManagement@Product@Domain@@@std@@@std@@QEAAAEAU?$default_delete@UProductManagement@Product@Domain@@@2@XZ
pdata	ENDS
;	COMDAT pdata
pdata	SEGMENT
$pdata$?release@?$unique_ptr@UProductManagement@Product@Domain@@U?$default_delete@UProductManagement@Product@Domain@@@std@@@std@@QEAAPEAUProductManagement@Product@Domain@@XZ DD imagerel $LN3
	DD	imagerel $LN3+98
	DD	imagerel $unwind$?release@?$unique_ptr@UProductManagement@Product@Domain@@U?$default_delete@UProductManagement@Product@Domain@@@std@@@std@@QEAAPEAUProductManagement@Product@Domain@@XZ
pdata	ENDS
;	COMDAT pdata
pdata	SEGMENT
$pdata$?_Get_first@?$_Compressed_pair@U?$default_delete@UProductManagement@Product@Domain@@@std@@PEAUProductManagement@Product@Domain@@$00@std@@QEAAAEAU?$default_delete@UProductManagement@Product@Domain@@@2@XZ DD imagerel $LN3
	DD	imagerel $LN3+71
	DD	imagerel $unwind$?_Get_first@?$_Compressed_pair@U?$default_delete@UProductManagement@Product@Domain@@@std@@PEAUProductManagement@Product@Domain@@$00@std@@QEAAAEAU?$default_delete@UProductManagement@Product@Domain@@@2@XZ
pdata	ENDS
;	COMDAT pdata
pdata	SEGMENT
$pdata$??$?0UProductManagement@Product@Domain@@$0A@@?$default_delete@VProductHandler@Product@Domain@@@std@@QEAA@AEBU?$default_delete@UProductManagement@Product@Domain@@@1@@Z DD imagerel $LN3
	DD	imagerel $LN3+76
	DD	imagerel $unwind$??$?0UProductManagement@Product@Domain@@$0A@@?$default_delete@VProductHandler@Product@Domain@@@std@@QEAA@AEBU?$default_delete@UProductManagement@Product@Domain@@@1@@Z
pdata	ENDS
;	COMDAT pdata
pdata	SEGMENT
$pdata$??$?0UProductManagement@Product@Domain@@U?$default_delete@UProductManagement@Product@Domain@@@std@@$0A@@?$unique_ptr@VProductHandler@Product@Domain@@U?$default_delete@VProductHandler@Product@Domain@@@std@@@std@@QEAA@$$QEAV?$unique_ptr@UProductManagement@Product@Domain@@U?$default_delete@UProductManagement@Product@Domain@@@std@@@1@@Z DD imagerel $LN3
	DD	imagerel $LN3+182
	DD	imagerel $unwind$??$?0UProductManagement@Product@Domain@@U?$default_delete@UProductManagement@Product@Domain@@@std@@$0A@@?$unique_ptr@VProductHandler@Product@Domain@@U?$default_delete@VProductHandler@Product@Domain@@@std@@@std@@QEAA@$$QEAV?$unique_ptr@UProductManagement@Product@Domain@@U?$default_delete@UProductManagement@Product@Domain@@@std@@@1@@Z
pdata	ENDS
;	COMDAT pdata
pdata	SEGMENT
$pdata$??$?0U?$default_delete@VProductHandler@Product@Domain@@@std@@$0A@@?$unique_ptr@VProductHandler@Product@Domain@@U?$default_delete@VProductHandler@Product@Domain@@@std@@@std@@QEAA@$$T@Z DD imagerel $LN3
	DD	imagerel $LN3+109
	DD	imagerel $unwind$??$?0U?$default_delete@VProductHandler@Product@Domain@@@std@@$0A@@?$unique_ptr@VProductHandler@Product@Domain@@U?$default_delete@VProductHandler@Product@Domain@@@std@@@std@@QEAA@$$T@Z
pdata	ENDS
;	COMDAT pdata
pdata	SEGMENT
$pdata$??$exchange@PEAU_Container_proxy@std@@$$T@std@@YAPEAU_Container_proxy@0@AEAPEAU10@$$QEA$$T@Z DD imagerel $LN3
	DD	imagerel $LN3+107
	DD	imagerel $unwind$??$exchange@PEAU_Container_proxy@std@@$$T@std@@YAPEAU_Container_proxy@0@AEAPEAU10@$$QEA$$T@Z
pdata	ENDS
;	COMDAT pdata
pdata	SEGMENT
$pdata$??$_Delete_plain_internal@V?$allocator@U_Container_proxy@std@@@std@@@std@@YAXAEAV?$allocator@U_Container_proxy@std@@@0@QEAU_Container_proxy@0@@Z DD imagerel $LN3
	DD	imagerel $LN3+89
	DD	imagerel $unwind$??$_Delete_plain_internal@V?$allocator@U_Container_proxy@std@@@std@@@std@@YAXAEAV?$allocator@U_Container_proxy@std@@@0@QEAU_Container_proxy@0@@Z
pdata	ENDS
;	COMDAT pdata
pdata	SEGMENT
$pdata$??$?0V?$basic_string@DU?$char_traits@D@std@@V?$allocator@D@2@@std@@@?$allocator@U_Container_proxy@std@@@std@@QEAA@AEBV?$allocator@V?$basic_string@DU?$char_traits@D@std@@V?$allocator@D@2@@std@@@1@@Z DD imagerel $LN3
	DD	imagerel $LN3+76
	DD	imagerel $unwind$??$?0V?$basic_string@DU?$char_traits@D@std@@V?$allocator@D@2@@std@@@?$allocator@U_Container_proxy@std@@@std@@QEAA@AEBV?$allocator@V?$basic_string@DU?$char_traits@D@std@@V?$allocator@D@2@@std@@@1@@Z
pdata	ENDS
;	COMDAT pdata
pdata	SEGMENT
$pdata$??$?0D@?$allocator@U_Container_proxy@std@@@std@@QEAA@AEBV?$allocator@D@1@@Z DD imagerel $LN3
	DD	imagerel $LN3+76
	DD	imagerel $unwind$??$?0D@?$allocator@U_Container_proxy@std@@@std@@QEAA@AEBV?$allocator@D@1@@Z
pdata	ENDS
;	COMDAT pdata
pdata	SEGMENT
$pdata$??$_Destroy_in_place@PEAD@std@@YAXAEAPEAD@Z DD imagerel $LN3
	DD	imagerel $LN3+65
	DD	imagerel $unwind$??$_Destroy_in_place@PEAD@std@@YAXAEAPEAD@Z
pdata	ENDS
;	COMDAT pdata
pdata	SEGMENT
$pdata$??$_Unfancy@D@std@@YAPEADPEAD@Z DD imagerel $LN3
	DD	imagerel $LN3+71
	DD	imagerel $unwind$??$_Unfancy@D@std@@YAPEADPEAD@Z
pdata	ENDS
;	COMDAT pdata
pdata	SEGMENT
$pdata$??$_Deallocate@$0BA@$0A@@std@@YAXPEAX_K@Z DD imagerel $LN4
	DD	imagerel $LN4+121
	DD	imagerel $unwind$??$_Deallocate@$0BA@$0A@@std@@YAXPEAX_K@Z
pdata	ENDS
;	COMDAT pdata
pdata	SEGMENT
$pdata$??$_Destroy_range@V?$allocator@V?$basic_string@DU?$char_traits@D@std@@V?$allocator@D@2@@std@@@std@@@std@@YAXPEAV?$basic_string@DU?$char_traits@D@std@@V?$allocator@D@2@@0@QEAV10@AEAV?$allocator@V?$basic_string@DU?$char_traits@D@std@@V?$allocator@D@2@@std@@@0@@Z DD imagerel $LN6
	DD	imagerel $LN6+139
	DD	imagerel $unwind$??$_Destroy_range@V?$allocator@V?$basic_string@DU?$char_traits@D@std@@V?$allocator@D@2@@std@@@std@@@std@@YAXPEAV?$basic_string@DU?$char_traits@D@std@@V?$allocator@D@2@@0@QEAV10@AEAV?$allocator@V?$basic_string@DU?$char_traits@D@std@@V?$allocator@D@2@@std@@@0@@Z
pdata	ENDS
;	COMDAT pdata
pdata	SEGMENT
$pdata$??$forward@AEBUUserCredentials@Persistence@TechnicalServices@@@std@@YAAEBUUserCredentials@Persistence@TechnicalServices@@AEBU123@@Z DD imagerel $LN3
	DD	imagerel $LN3+71
	DD	imagerel $unwind$??$forward@AEBUUserCredentials@Persistence@TechnicalServices@@@std@@YAAEBUUserCredentials@Persistence@TechnicalServices@@AEBU123@@Z
pdata	ENDS
;	COMDAT pdata
pdata	SEGMENT
$pdata$??$?0U?$default_delete@UProductManagement@Product@Domain@@@std@@$0A@@?$unique_ptr@UProductManagement@Product@Domain@@U?$default_delete@UProductManagement@Product@Domain@@@std@@@std@@QEAA@PEAUProductManagement@Product@Domain@@@Z DD imagerel $LN3
	DD	imagerel $LN3+116
	DD	imagerel $unwind$??$?0U?$default_delete@UProductManagement@Product@Domain@@@std@@$0A@@?$unique_ptr@UProductManagement@Product@Domain@@U?$default_delete@UProductManagement@Product@Domain@@@std@@@std@@QEAA@PEAUProductManagement@Product@Domain@@@Z
pdata	ENDS
;	COMDAT pdata
pdata	SEGMENT
$pdata$??$forward@U?$default_delete@UProductManagement@Product@Domain@@@std@@@std@@YA$$QEAU?$default_delete@UProductManagement@Product@Domain@@@0@AEAU10@@Z DD imagerel $LN3
	DD	imagerel $LN3+71
	DD	imagerel $unwind$??$forward@U?$default_delete@UProductManagement@Product@Domain@@@std@@@std@@YA$$QEAU?$default_delete@UProductManagement@Product@Domain@@@0@AEAU10@@Z
pdata	ENDS
;	COMDAT pdata
pdata	SEGMENT
$pdata$??$?0U?$default_delete@UProductManagement@Product@Domain@@@std@@PEAUProductManagement@Product@Domain@@@?$_Compressed_pair@U?$default_delete@VProductHandler@Product@Domain@@@std@@PEAVProductHandler@Product@Domain@@$00@std@@QEAA@U_One_then_variadic_args_t@1@$$QEAU?$default_delete@UProductManagement@Product@Domain@@@1@$$QEAPEAUProductManagement@Product@Domain@@@Z DD imagerel $LN3
	DD	imagerel $LN3+137
	DD	imagerel $unwind$??$?0U?$default_delete@UProductManagement@Product@Domain@@@std@@PEAUProductManagement@Product@Domain@@@?$_Compressed_pair@U?$default_delete@VProductHandler@Product@Domain@@@std@@PEAVProductHandler@Product@Domain@@$00@std@@QEAA@U_One_then_variadic_args_t@1@$$QEAU?$default_delete@UProductManagement@Product@Domain@@@1@$$QEAPEAUProductManagement@Product@Domain@@@Z
pdata	ENDS
;	COMDAT pdata
pdata	SEGMENT
$pdata$??$?0$$V@?$_Compressed_pair@U?$default_delete@VProductHandler@Product@Domain@@@std@@PEAVProductHandler@Product@Domain@@$00@std@@QEAA@U_Zero_then_variadic_args_t@1@@Z DD imagerel $LN3
	DD	imagerel $LN3+89
	DD	imagerel $unwind$??$?0$$V@?$_Compressed_pair@U?$default_delete@VProductHandler@Product@Domain@@@std@@PEAVProductHandler@Product@Domain@@$00@std@@QEAA@U_Zero_then_variadic_args_t@1@@Z
pdata	ENDS
;	COMDAT pdata
pdata	SEGMENT
$pdata$??$_Deallocate_plain@V?$allocator@U_Container_proxy@std@@@std@@@std@@YAXAEAV?$allocator@U_Container_proxy@std@@@0@QEAU_Container_proxy@0@@Z DD imagerel $LN3
	DD	imagerel $LN3+95
	DD	imagerel $unwind$??$_Deallocate_plain@V?$allocator@U_Container_proxy@std@@@std@@@std@@YAXAEAV?$allocator@U_Container_proxy@std@@@0@QEAU_Container_proxy@0@@Z
pdata	ENDS
;	COMDAT pdata
pdata	SEGMENT
$pdata$??$_Unfancy@V?$basic_string@DU?$char_traits@D@std@@V?$allocator@D@2@@std@@@std@@YAPEAV?$basic_string@DU?$char_traits@D@std@@V?$allocator@D@2@@0@PEAV10@@Z DD imagerel $LN3
	DD	imagerel $LN3+71
	DD	imagerel $unwind$??$_Unfancy@V?$basic_string@DU?$char_traits@D@std@@V?$allocator@D@2@@std@@@std@@YAPEAV?$basic_string@DU?$char_traits@D@std@@V?$allocator@D@2@@0@PEAV10@@Z
pdata	ENDS
;	COMDAT pdata
pdata	SEGMENT
$pdata$??$destroy@V?$basic_string@DU?$char_traits@D@std@@V?$allocator@D@2@@std@@@?$_Default_allocator_traits@V?$allocator@V?$basic_string@DU?$char_traits@D@std@@V?$allocator@D@2@@std@@@std@@@std@@SAXAEAV?$allocator@V?$basic_string@DU?$char_traits@D@std@@V?$allocator@D@2@@std@@@1@QEAV?$basic_string@DU?$char_traits@D@std@@V?$allocator@D@2@@1@@Z DD imagerel $LN3
	DD	imagerel $LN3+83
	DD	imagerel $unwind$??$destroy@V?$basic_string@DU?$char_traits@D@std@@V?$allocator@D@2@@std@@@?$_Default_allocator_traits@V?$allocator@V?$basic_string@DU?$char_traits@D@std@@V?$allocator@D@2@@std@@@std@@@std@@SAXAEAV?$allocator@V?$basic_string@DU?$char_traits@D@std@@V?$allocator@D@2@@std@@@1@QEAV?$basic_string@DU?$char_traits@D@std@@V?$allocator@D@2@@1@@Z
pdata	ENDS
;	COMDAT pdata
pdata	SEGMENT
$pdata$??$exchange@PEAUProductManagement@Product@Domain@@PEAU123@@std@@YAPEAUProductManagement@Product@Domain@@AEAPEAU123@$$QEAPEAU123@@Z DD imagerel $LN3
	DD	imagerel $LN3+107
	DD	imagerel $unwind$??$exchange@PEAUProductManagement@Product@Domain@@PEAU123@@std@@YAPEAUProductManagement@Product@Domain@@AEAPEAU123@$$QEAPEAU123@@Z
pdata	ENDS
;	COMDAT pdata
pdata	SEGMENT
$pdata$??$_Traits_equal@U?$char_traits@D@std@@@std@@YA_NQEBD_K01@Z DD imagerel $LN5
	DD	imagerel $LN5+154
	DD	imagerel $unwind$??$_Traits_equal@U?$char_traits@D@std@@@std@@YA_NQEBD_K01@Z
pdata	ENDS
;	COMDAT pdata
pdata	SEGMENT
$pdata$??$?0AEAPEAUProductManagement@Product@Domain@@@?$_Compressed_pair@U?$default_delete@UProductManagement@Product@Domain@@@std@@PEAUProductManagement@Product@Domain@@$00@std@@QEAA@U_Zero_then_variadic_args_t@1@AEAPEAUProductManagement@Product@Domain@@@Z DD imagerel $LN3
	DD	imagerel $LN3+105
	DD	imagerel $unwind$??$?0AEAPEAUProductManagement@Product@Domain@@@?$_Compressed_pair@U?$default_delete@UProductManagement@Product@Domain@@@std@@PEAUProductManagement@Product@Domain@@$00@std@@QEAA@U_Zero_then_variadic_args_t@1@AEAPEAUProductManagement@Product@Domain@@@Z
pdata	ENDS
;	COMDAT pdata
pdata	SEGMENT
$pdata$??$forward@PEAUProductManagement@Product@Domain@@@std@@YA$$QEAPEAUProductManagement@Product@Domain@@AEAPEAU123@@Z DD imagerel $LN3
	DD	imagerel $LN3+71
	DD	imagerel $unwind$??$forward@PEAUProductManagement@Product@Domain@@@std@@YA$$QEAPEAUProductManagement@Product@Domain@@AEAPEAU123@@Z
pdata	ENDS
;	COMDAT pdata
pdata	SEGMENT
$pdata$?deallocate@?$_Default_allocator_traits@V?$allocator@U_Container_proxy@std@@@std@@@std@@SAXAEAV?$allocator@U_Container_proxy@std@@@2@QEAU_Container_proxy@2@_K@Z DD imagerel $LN3
	DD	imagerel $LN3+97
	DD	imagerel $unwind$?deallocate@?$_Default_allocator_traits@V?$allocator@U_Container_proxy@std@@@std@@@std@@SAXAEAV?$allocator@U_Container_proxy@std@@@2@QEAU_Container_proxy@2@_K@Z
pdata	ENDS
;	COMDAT pdata
pdata	SEGMENT
$pdata$??$forward@AEAPEAUProductManagement@Product@Domain@@@std@@YAAEAPEAUProductManagement@Product@Domain@@AEAPEAU123@@Z DD imagerel $LN3
	DD	imagerel $LN3+71
	DD	imagerel $unwind$??$forward@AEAPEAUProductManagement@Product@Domain@@@std@@YAAEAPEAUProductManagement@Product@Domain@@AEAPEAU123@@Z
pdata	ENDS
;	COMDAT rtc$TMZ
rtc$TMZ	SEGMENT
_RTC_Shutdown.rtc$TMZ DQ FLAT:_RTC_Shutdown
rtc$TMZ	ENDS
;	COMDAT rtc$IMZ
rtc$IMZ	SEGMENT
_RTC_InitBase.rtc$IMZ DQ FLAT:_RTC_InitBase
rtc$IMZ	ENDS
;	COMDAT ??_R1A@?0A@EA@ProductHandler@Product@Domain@@8
rdata$r	SEGMENT
??_R1A@?0A@EA@ProductHandler@Product@Domain@@8 DD imagerel ??_R0?AVProductHandler@Product@Domain@@@8 ; Domain::Product::ProductHandler::`RTTI Base Class Descriptor at (0,-1,0,64)'
	DD	00H
	DD	00H
	DD	0ffffffffH
	DD	00H
	DD	040H
	DD	imagerel ??_R3ProductHandler@Product@Domain@@8
rdata$r	ENDS
;	COMDAT ??_R2ProductHandler@Product@Domain@@8
rdata$r	SEGMENT
??_R2ProductHandler@Product@Domain@@8 DD imagerel ??_R1A@?0A@EA@ProductHandler@Product@Domain@@8 ; Domain::Product::ProductHandler::`RTTI Base Class Array'
	ORG $+3
rdata$r	ENDS
;	COMDAT ??_R3ProductHandler@Product@Domain@@8
rdata$r	SEGMENT
??_R3ProductHandler@Product@Domain@@8 DD 00H		; Domain::Product::ProductHandler::`RTTI Class Hierarchy Descriptor'
	DD	00H
	DD	01H
	DD	imagerel ??_R2ProductHandler@Product@Domain@@8
rdata$r	ENDS
;	COMDAT ??_R0?AVProductHandler@Product@Domain@@@8
data$r	SEGMENT
??_R0?AVProductHandler@Product@Domain@@@8 DQ FLAT:??_7type_info@@6B@ ; Domain::Product::ProductHandler `RTTI Type Descriptor'
	DQ	0000000000000000H
	DB	'.?AVProductHandler@Product@Domain@@', 00H
data$r	ENDS
;	COMDAT ??_R4ProductHandler@Product@Domain@@6B@
rdata$r	SEGMENT
??_R4ProductHandler@Product@Domain@@6B@ DD 01H		; Domain::Product::ProductHandler::`RTTI Complete Object Locator'
	DD	00H
	DD	00H
	DD	imagerel ??_R0?AVProductHandler@Product@Domain@@@8
	DD	imagerel ??_R3ProductHandler@Product@Domain@@8
	DD	imagerel ??_R4ProductHandler@Product@Domain@@6B@
rdata$r	ENDS
;	COMDAT ??_C@_1EA@LEKOKFNB@?$AA?$CC?$AAv?$AAe?$AAc?$AAt?$AAo?$AAr?$AA?5?$AAs?$AAu?$AAb?$AAs?$AAc?$AAr?$AAi@
CONST	SEGMENT
??_C@_1EA@LEKOKFNB@?$AA?$CC?$AAv?$AAe?$AAc?$AAt?$AAo?$AAr?$AA?5?$AAs?$AAu?$AAb?$AAs?$AAc?$AAr?$AAi@ DB '"'
	DB	00H, 'v', 00H, 'e', 00H, 'c', 00H, 't', 00H, 'o', 00H, 'r', 00H
	DB	' ', 00H, 's', 00H, 'u', 00H, 'b', 00H, 's', 00H, 'c', 00H, 'r'
	DB	00H, 'i', 00H, 'p', 00H, 't', 00H, ' ', 00H, 'o', 00H, 'u', 00H
	DB	't', 00H, ' ', 00H, 'o', 00H, 'f', 00H, ' ', 00H, 'r', 00H, 'a'
	DB	00H, 'n', 00H, 'g', 00H, 'e', 00H, '"', 00H, 00H, 00H ; `string'
CONST	ENDS
;	COMDAT ??_C@_1BME@NCIPHHDN@?$AAs?$AAt?$AAd?$AA?3?$AA?3?$AAv?$AAe?$AAc?$AAt?$AAo?$AAr?$AA?$DM?$AAc?$AAl?$AAa@
CONST	SEGMENT
??_C@_1BME@NCIPHHDN@?$AAs?$AAt?$AAd?$AA?3?$AA?3?$AAv?$AAe?$AAc?$AAt?$AAo?$AAr?$AA?$DM?$AAc?$AAl?$AAa@ DB 's'
	DB	00H, 't', 00H, 'd', 00H, ':', 00H, ':', 00H, 'v', 00H, 'e', 00H
	DB	'c', 00H, 't', 00H, 'o', 00H, 'r', 00H, '<', 00H, 'c', 00H, 'l'
	DB	00H, 'a', 00H, 's', 00H, 's', 00H, ' ', 00H, 's', 00H, 't', 00H
	DB	'd', 00H, ':', 00H, ':', 00H, 'b', 00H, 'a', 00H, 's', 00H, 'i'
	DB	00H, 'c', 00H, '_', 00H, 's', 00H, 't', 00H, 'r', 00H, 'i', 00H
	DB	'n', 00H, 'g', 00H, '<', 00H, 'c', 00H, 'h', 00H, 'a', 00H, 'r'
	DB	00H, ',', 00H, 's', 00H, 't', 00H, 'r', 00H, 'u', 00H, 'c', 00H
	DB	't', 00H, ' ', 00H, 's', 00H, 't', 00H, 'd', 00H, ':', 00H, ':'
	DB	00H, 'c', 00H, 'h', 00H, 'a', 00H, 'r', 00H, '_', 00H, 't', 00H
	DB	'r', 00H, 'a', 00H, 'i', 00H, 't', 00H, 's', 00H, '<', 00H, 'c'
	DB	00H, 'h', 00H, 'a', 00H, 'r', 00H, '>', 00H, ',', 00H, 'c', 00H
	DB	'l', 00H, 'a', 00H, 's', 00H, 's', 00H, ' ', 00H, 's', 00H, 't'
	DB	00H, 'd', 00H, ':', 00H, ':', 00H, 'a', 00H, 'l', 00H, 'l', 00H
	DB	'o', 00H, 'c', 00H, 'a', 00H, 't', 00H, 'o', 00H, 'r', 00H, '<'
	DB	00H, 'c', 00H, 'h', 00H, 'a', 00H, 'r', 00H, '>', 00H, ' ', 00H
	DB	'>', 00H, ',', 00H, 'c', 00H, 'l', 00H, 'a', 00H, 's', 00H, 's'
	DB	00H, ' ', 00H, 's', 00H, 't', 00H, 'd', 00H, ':', 00H, ':', 00H
	DB	'a', 00H, 'l', 00H, 'l', 00H, 'o', 00H, 'c', 00H, 'a', 00H, 't'
	DB	00H, 'o', 00H, 'r', 00H, '<', 00H, 'c', 00H, 'l', 00H, 'a', 00H
	DB	's', 00H, 's', 00H, ' ', 00H, 's', 00H, 't', 00H, 'd', 00H, ':'
	DB	00H, ':', 00H, 'b', 00H, 'a', 00H, 's', 00H, 'i', 00H, 'c', 00H
	DB	'_', 00H, 's', 00H, 't', 00H, 'r', 00H, 'i', 00H, 'n', 00H, 'g'
	DB	00H, '<', 00H, 'c', 00H, 'h', 00H, 'a', 00H, 'r', 00H, ',', 00H
	DB	's', 00H, 't', 00H, 'r', 00H, 'u', 00H, 'c', 00H, 't', 00H, ' '
	DB	00H, 's', 00H, 't', 00H, 'd', 00H, ':', 00H, ':', 00H, 'c', 00H
	DB	'h', 00H, 'a', 00H, 'r', 00H, '_', 00H, 't', 00H, 'r', 00H, 'a'
	DB	00H, 'i', 00H, 't', 00H, 's', 00H, '<', 00H, 'c', 00H, 'h', 00H
	DB	'a', 00H, 'r', 00H, '>', 00H, ',', 00H, 'c', 00H, 'l', 00H, 'a'
	DB	00H, 's', 00H, 's', 00H, ' ', 00H, 's', 00H, 't', 00H, 'd', 00H
	DB	':', 00H, ':', 00H, 'a', 00H, 'l', 00H, 'l', 00H, 'o', 00H, 'c'
	DB	00H, 'a', 00H, 't', 00H, 'o', 00H, 'r', 00H, '<', 00H, 'c', 00H
	DB	'h', 00H, 'a', 00H, 'r', 00H, '>', 00H, ' ', 00H, '>', 00H, ' '
	DB	00H, '>', 00H, ' ', 00H, '>', 00H, ':', 00H, ':', 00H, 'o', 00H
	DB	'p', 00H, 'e', 00H, 'r', 00H, 'a', 00H, 't', 00H, 'o', 00H, 'r'
	DB	00H, ' ', 00H, '[', 00H, ']', 00H, 00H, 00H	; `string'
CONST	ENDS
;	COMDAT ??_C@_1MO@KFAGNMIJ@?$AAC?$AA?3?$AA?2?$AAP?$AAr?$AAo?$AAg?$AAr?$AAa?$AAm?$AA?5?$AAF?$AAi?$AAl?$AAe@
CONST	SEGMENT
??_C@_1MO@KFAGNMIJ@?$AAC?$AA?3?$AA?2?$AAP?$AAr?$AAo?$AAg?$AAr?$AAa?$AAm?$AA?5?$AAF?$AAi?$AAl?$AAe@ DB 'C'
	DB	00H, ':', 00H, '\', 00H, 'P', 00H, 'r', 00H, 'o', 00H, 'g', 00H
	DB	'r', 00H, 'a', 00H, 'm', 00H, ' ', 00H, 'F', 00H, 'i', 00H, 'l'
	DB	00H, 'e', 00H, 's', 00H, ' ', 00H, '(', 00H, 'x', 00H, '8', 00H
	DB	'6', 00H, ')', 00H, '\', 00H, 'M', 00H, 'i', 00H, 'c', 00H, 'r'
	DB	00H, 'o', 00H, 's', 00H, 'o', 00H, 'f', 00H, 't', 00H, ' ', 00H
	DB	'V', 00H, 'i', 00H, 's', 00H, 'u', 00H, 'a', 00H, 'l', 00H, ' '
	DB	00H, 'S', 00H, 't', 00H, 'u', 00H, 'd', 00H, 'i', 00H, 'o', 00H
	DB	'\', 00H, '2', 00H, '0', 00H, '1', 00H, '9', 00H, '\', 00H, 'C'
	DB	00H, 'o', 00H, 'm', 00H, 'm', 00H, 'u', 00H, 'n', 00H, 'i', 00H
	DB	't', 00H, 'y', 00H, '\', 00H, 'V', 00H, 'C', 00H, '\', 00H, 'T'
	DB	00H, 'o', 00H, 'o', 00H, 'l', 00H, 's', 00H, '\', 00H, 'M', 00H
	DB	'S', 00H, 'V', 00H, 'C', 00H, '\', 00H, '1', 00H, '4', 00H, '.'
	DB	00H, '2', 00H, '7', 00H, '.', 00H, '2', 00H, '9', 00H, '1', 00H
	DB	'1', 00H, '0', 00H, '\', 00H, 'i', 00H, 'n', 00H, 'c', 00H, 'l'
	DB	00H, 'u', 00H, 'd', 00H, 'e', 00H, '\', 00H, 'v', 00H, 'e', 00H
	DB	'c', 00H, 't', 00H, 'o', 00H, 'r', 00H, 00H, 00H ; `string'
CONST	ENDS
;	COMDAT ??_C@_0GH@HACIOKNJ@C?3?2Program?5Files?5?$CIx86?$CJ?2Microsof@
CONST	SEGMENT
??_C@_0GH@HACIOKNJ@C?3?2Program?5Files?5?$CIx86?$CJ?2Microsof@ DB 'C:\Pro'
	DB	'gram Files (x86)\Microsoft Visual Studio\2019\Community\VC\To'
	DB	'ols\MSVC\14.27.29110\include\vector', 00H	; `string'
CONST	ENDS
;	COMDAT ??_C@_0BO@PFKOHNJC@vector?5subscript?5out?5of?5range@
CONST	SEGMENT
??_C@_0BO@PFKOHNJC@vector?5subscript?5out?5of?5range@ DB 'vector subscrip'
	DB	't out of range', 00H			; `string'
CONST	ENDS
;	COMDAT ??_C@_0M@FHFJHGNJ@Salesperson@
CONST	SEGMENT
??_C@_0M@FHFJHGNJ@Salesperson@ DB 'Salesperson', 00H	; `string'
CONST	ENDS
;	COMDAT ??_7ProductHandler@Product@Domain@@6B@
CONST	SEGMENT
??_7ProductHandler@Product@Domain@@6B@ DQ FLAT:??_R4ProductHandler@Product@Domain@@6B@ ; Domain::Product::ProductHandler::`vftable'
	DQ	FLAT:_purecall
	DQ	FLAT:_purecall
	DQ	FLAT:_purecall
	DQ	FLAT:_purecall
	DQ	FLAT:_purecall
	DQ	FLAT:_purecall
	DQ	FLAT:_purecall
	DQ	FLAT:_purecall
CONST	ENDS
;	COMDAT ??_C@_1CG@JNLFBNGN@?$AA?$CC?$AAi?$AAn?$AAv?$AAa?$AAl?$AAi?$AAd?$AA?5?$AAa?$AAr?$AAg?$AAu?$AAm?$AAe@
CONST	SEGMENT
??_C@_1CG@JNLFBNGN@?$AA?$CC?$AAi?$AAn?$AAv?$AAa?$AAl?$AAi?$AAd?$AA?5?$AAa?$AAr?$AAg?$AAu?$AAm?$AAe@ DB '"'
	DB	00H, 'i', 00H, 'n', 00H, 'v', 00H, 'a', 00H, 'l', 00H, 'i', 00H
	DB	'd', 00H, ' ', 00H, 'a', 00H, 'r', 00H, 'g', 00H, 'u', 00H, 'm'
	DB	00H, 'e', 00H, 'n', 00H, 't', 00H, '"', 00H, 00H, 00H ; `string'
CONST	ENDS
;	COMDAT ??_C@_1EK@NIFDJFDG@?$AAs?$AAt?$AAd?$AA?3?$AA?3?$AA_?$AAA?$AAd?$AAj?$AAu?$AAs?$AAt?$AA_?$AAm?$AAa@
CONST	SEGMENT
??_C@_1EK@NIFDJFDG@?$AAs?$AAt?$AAd?$AA?3?$AA?3?$AA_?$AAA?$AAd?$AAj?$AAu?$AAs?$AAt?$AA_?$AAm?$AAa@ DB 's'
	DB	00H, 't', 00H, 'd', 00H, ':', 00H, ':', 00H, '_', 00H, 'A', 00H
	DB	'd', 00H, 'j', 00H, 'u', 00H, 's', 00H, 't', 00H, '_', 00H, 'm'
	DB	00H, 'a', 00H, 'n', 00H, 'u', 00H, 'a', 00H, 'l', 00H, 'l', 00H
	DB	'y', 00H, '_', 00H, 'v', 00H, 'e', 00H, 'c', 00H, 't', 00H, 'o'
	DB	00H, 'r', 00H, '_', 00H, 'a', 00H, 'l', 00H, 'i', 00H, 'g', 00H
	DB	'n', 00H, 'e', 00H, 'd', 00H, 00H, 00H	; `string'
CONST	ENDS
;	COMDAT ??_C@_1NA@FEEOBALC@?$AAC?$AA?3?$AA?2?$AAP?$AAr?$AAo?$AAg?$AAr?$AAa?$AAm?$AA?5?$AAF?$AAi?$AAl?$AAe@
CONST	SEGMENT
??_C@_1NA@FEEOBALC@?$AAC?$AA?3?$AA?2?$AAP?$AAr?$AAo?$AAg?$AAr?$AAa?$AAm?$AA?5?$AAF?$AAi?$AAl?$AAe@ DB 'C'
	DB	00H, ':', 00H, '\', 00H, 'P', 00H, 'r', 00H, 'o', 00H, 'g', 00H
	DB	'r', 00H, 'a', 00H, 'm', 00H, ' ', 00H, 'F', 00H, 'i', 00H, 'l'
	DB	00H, 'e', 00H, 's', 00H, ' ', 00H, '(', 00H, 'x', 00H, '8', 00H
	DB	'6', 00H, ')', 00H, '\', 00H, 'M', 00H, 'i', 00H, 'c', 00H, 'r'
	DB	00H, 'o', 00H, 's', 00H, 'o', 00H, 'f', 00H, 't', 00H, ' ', 00H
	DB	'V', 00H, 'i', 00H, 's', 00H, 'u', 00H, 'a', 00H, 'l', 00H, ' '
	DB	00H, 'S', 00H, 't', 00H, 'u', 00H, 'd', 00H, 'i', 00H, 'o', 00H
	DB	'\', 00H, '2', 00H, '0', 00H, '1', 00H, '9', 00H, '\', 00H, 'C'
	DB	00H, 'o', 00H, 'm', 00H, 'm', 00H, 'u', 00H, 'n', 00H, 'i', 00H
	DB	't', 00H, 'y', 00H, '\', 00H, 'V', 00H, 'C', 00H, '\', 00H, 'T'
	DB	00H, 'o', 00H, 'o', 00H, 'l', 00H, 's', 00H, '\', 00H, 'M', 00H
	DB	'S', 00H, 'V', 00H, 'C', 00H, '\', 00H, '1', 00H, '4', 00H, '.'
	DB	00H, '2', 00H, '7', 00H, '.', 00H, '2', 00H, '9', 00H, '1', 00H
	DB	'1', 00H, '0', 00H, '\', 00H, 'i', 00H, 'n', 00H, 'c', 00H, 'l'
	DB	00H, 'u', 00H, 'd', 00H, 'e', 00H, '\', 00H, 'x', 00H, 'm', 00H
	DB	'e', 00H, 'm', 00H, 'o', 00H, 'r', 00H, 'y', 00H, 00H, 00H ; `string'
CONST	ENDS
;	COMDAT ??_C@_0GI@JMEOMKJO@C?3?2Program?5Files?5?$CIx86?$CJ?2Microsof@
CONST	SEGMENT
??_C@_0GI@JMEOMKJO@C?3?2Program?5Files?5?$CIx86?$CJ?2Microsof@ DB 'C:\Pro'
	DB	'gram Files (x86)\Microsoft Visual Studio\2019\Community\VC\To'
	DB	'ols\MSVC\14.27.29110\include\xmemory', 00H	; `string'
CONST	ENDS
;	COMDAT ??_C@_02DKCKIIND@?$CFs@
CONST	SEGMENT
??_C@_02DKCKIIND@?$CFs@ DB '%s', 00H			; `string'
CONST	ENDS
;	COMDAT ??_C@_0BB@FCMFBGOM@invalid?5argument@
CONST	SEGMENT
??_C@_0BB@FCMFBGOM@invalid?5argument@ DB 'invalid argument', 00H ; `string'
CONST	ENDS
;	COMDAT ?__LINE__Var@?0??_Adjust_manually_vector_aligned@std@@YAXAEAPEAXAEA_K@Z@4JA
_DATA	SEGMENT
?__LINE__Var@?0??_Adjust_manually_vector_aligned@std@@YAXAEAPEAXAEA_K@Z@4JA DD 084H ; `std::_Adjust_manually_vector_aligned'::`1'::__LINE__Var
_DATA	ENDS
;	COMDAT xdata
xdata	SEGMENT
$ip2state$??$forward@AEAPEAUProductManagement@Product@Domain@@@std@@YAAEAPEAUProductManagement@Product@Domain@@AEAPEAU123@@Z DB 02H
	DB	00H
	DB	00H
xdata	ENDS
;	COMDAT xdata
xdata	SEGMENT
$cppxdata$??$forward@AEAPEAUProductManagement@Product@Domain@@@std@@YAAEAPEAUProductManagement@Product@Domain@@AEAPEAU123@@Z DB 060H
	DD	imagerel $ip2state$??$forward@AEAPEAUProductManagement@Product@Domain@@@std@@YAAEAPEAUProductManagement@Product@Domain@@AEAPEAU123@@Z
xdata	ENDS
;	COMDAT xdata
xdata	SEGMENT
$unwind$??$forward@AEAPEAUProductManagement@Product@Domain@@@std@@YAAEAPEAUProductManagement@Product@Domain@@AEAPEAU123@@Z DD 025052a19H
	DD	010e2313H
	DD	07007001dH
	DD	05006H
	DD	imagerel __CxxFrameHandler4
	DD	imagerel $cppxdata$??$forward@AEAPEAUProductManagement@Product@Domain@@@std@@YAAEAPEAUProductManagement@Product@Domain@@AEAPEAU123@@Z
xdata	ENDS
;	COMDAT xdata
xdata	SEGMENT
$unwind$?deallocate@?$_Default_allocator_traits@V?$allocator@U_Container_proxy@std@@@std@@@std@@SAXAEAV?$allocator@U_Container_proxy@std@@@2@QEAU_Container_proxy@2@_K@Z DD 025053401H
	DD	0118231dH
	DD	07011001dH
	DD	05010H
xdata	ENDS
;	COMDAT xdata
xdata	SEGMENT
$ip2state$??$forward@PEAUProductManagement@Product@Domain@@@std@@YA$$QEAPEAUProductManagement@Product@Domain@@AEAPEAU123@@Z DB 02H
	DB	00H
	DB	00H
xdata	ENDS
;	COMDAT xdata
xdata	SEGMENT
$cppxdata$??$forward@PEAUProductManagement@Product@Domain@@@std@@YA$$QEAPEAUProductManagement@Product@Domain@@AEAPEAU123@@Z DB 060H
	DD	imagerel $ip2state$??$forward@PEAUProductManagement@Product@Domain@@@std@@YA$$QEAPEAUProductManagement@Product@Domain@@AEAPEAU123@@Z
xdata	ENDS
;	COMDAT xdata
xdata	SEGMENT
$unwind$??$forward@PEAUProductManagement@Product@Domain@@@std@@YA$$QEAPEAUProductManagement@Product@Domain@@AEAPEAU123@@Z DD 025052a19H
	DD	010e2313H
	DD	07007001dH
	DD	05006H
	DD	imagerel __CxxFrameHandler4
	DD	imagerel $cppxdata$??$forward@PEAUProductManagement@Product@Domain@@@std@@YA$$QEAPEAUProductManagement@Product@Domain@@AEAPEAU123@@Z
xdata	ENDS
;	COMDAT xdata
xdata	SEGMENT
$ip2state$??$?0AEAPEAUProductManagement@Product@Domain@@@?$_Compressed_pair@U?$default_delete@UProductManagement@Product@Domain@@@std@@PEAUProductManagement@Product@Domain@@$00@std@@QEAA@U_Zero_then_variadic_args_t@1@AEAPEAUProductManagement@Product@Domain@@@Z DB 02H
	DB	00H
	DB	00H
xdata	ENDS
;	COMDAT xdata
xdata	SEGMENT
$cppxdata$??$?0AEAPEAUProductManagement@Product@Domain@@@?$_Compressed_pair@U?$default_delete@UProductManagement@Product@Domain@@@std@@PEAUProductManagement@Product@Domain@@$00@std@@QEAA@U_Zero_then_variadic_args_t@1@AEAPEAUProductManagement@Product@Domain@@@Z DB 060H
	DD	imagerel $ip2state$??$?0AEAPEAUProductManagement@Product@Domain@@@?$_Compressed_pair@U?$default_delete@UProductManagement@Product@Domain@@@std@@PEAUProductManagement@Product@Domain@@$00@std@@QEAA@U_Zero_then_variadic_args_t@1@AEAPEAUProductManagement@Product@Domain@@@Z
xdata	ENDS
;	COMDAT xdata
xdata	SEGMENT
$unwind$??$?0AEAPEAUProductManagement@Product@Domain@@@?$_Compressed_pair@U?$default_delete@UProductManagement@Product@Domain@@@std@@PEAUProductManagement@Product@Domain@@$00@std@@QEAA@U_Zero_then_variadic_args_t@1@AEAPEAUProductManagement@Product@Domain@@@Z DD 025053319H
	DD	0117231cH
	DD	07010001dH
	DD	0500fH
	DD	imagerel __CxxFrameHandler4
	DD	imagerel $cppxdata$??$?0AEAPEAUProductManagement@Product@Domain@@@?$_Compressed_pair@U?$default_delete@UProductManagement@Product@Domain@@@std@@PEAUProductManagement@Product@Domain@@$00@std@@QEAA@U_Zero_then_variadic_args_t@1@AEAPEAUProductManagement@Product@Domain@@@Z
xdata	ENDS
;	COMDAT xdata
xdata	SEGMENT
$ip2state$??$_Traits_equal@U?$char_traits@D@std@@@std@@YA_NQEBD_K01@Z DB 02H
	DB	00H
	DB	00H
xdata	ENDS
;	COMDAT xdata
xdata	SEGMENT
$cppxdata$??$_Traits_equal@U?$char_traits@D@std@@@std@@YA_NQEBD_K01@Z DB 060H
	DD	imagerel $ip2state$??$_Traits_equal@U?$char_traits@D@std@@@std@@YA_NQEBD_K01@Z
xdata	ENDS
;	COMDAT xdata
xdata	SEGMENT
$unwind$??$_Traits_equal@U?$char_traits@D@std@@@std@@YA_NQEBD_K01@Z DD 025053919H
	DD	011d2322H
	DD	07016001fH
	DD	05015H
	DD	imagerel __CxxFrameHandler4
	DD	imagerel $cppxdata$??$_Traits_equal@U?$char_traits@D@std@@@std@@YA_NQEBD_K01@Z
xdata	ENDS
;	COMDAT xdata
xdata	SEGMENT
$ip2state$??$exchange@PEAUProductManagement@Product@Domain@@PEAU123@@std@@YAPEAUProductManagement@Product@Domain@@AEAPEAU123@$$QEAPEAU123@@Z DB 02H
	DB	00H
	DB	00H
xdata	ENDS
;	COMDAT xdata
xdata	SEGMENT
$cppxdata$??$exchange@PEAUProductManagement@Product@Domain@@PEAU123@@std@@YAPEAUProductManagement@Product@Domain@@AEAPEAU123@$$QEAPEAU123@@Z DB 060H
	DD	imagerel $ip2state$??$exchange@PEAUProductManagement@Product@Domain@@PEAU123@@std@@YAPEAUProductManagement@Product@Domain@@AEAPEAU123@$$QEAPEAU123@@Z
xdata	ENDS
;	COMDAT xdata
xdata	SEGMENT
$unwind$??$exchange@PEAUProductManagement@Product@Domain@@PEAU123@@std@@YAPEAUProductManagement@Product@Domain@@AEAPEAU123@$$QEAPEAU123@@Z DD 025052f19H
	DD	01132318H
	DD	0700c0021H
	DD	0500bH
	DD	imagerel __CxxFrameHandler4
	DD	imagerel $cppxdata$??$exchange@PEAUProductManagement@Product@Domain@@PEAU123@@std@@YAPEAUProductManagement@Product@Domain@@AEAPEAU123@$$QEAPEAU123@@Z
xdata	ENDS
;	COMDAT xdata
xdata	SEGMENT
$unwind$??$destroy@V?$basic_string@DU?$char_traits@D@std@@V?$allocator@D@2@@std@@@?$_Default_allocator_traits@V?$allocator@V?$basic_string@DU?$char_traits@D@std@@V?$allocator@D@2@@std@@@std@@@std@@SAXAEAV?$allocator@V?$basic_string@DU?$char_traits@D@std@@V?$allocator@D@2@@std@@@1@QEAV?$basic_string@DU?$char_traits@D@std@@V?$allocator@D@2@@1@@Z DD 025052f01H
	DD	01132318H
	DD	0700c001dH
	DD	0500bH
xdata	ENDS
;	COMDAT xdata
xdata	SEGMENT
$ip2state$??$_Unfancy@V?$basic_string@DU?$char_traits@D@std@@V?$allocator@D@2@@std@@@std@@YAPEAV?$basic_string@DU?$char_traits@D@std@@V?$allocator@D@2@@0@PEAV10@@Z DB 02H
	DB	00H
	DB	00H
xdata	ENDS
;	COMDAT xdata
xdata	SEGMENT
$cppxdata$??$_Unfancy@V?$basic_string@DU?$char_traits@D@std@@V?$allocator@D@2@@std@@@std@@YAPEAV?$basic_string@DU?$char_traits@D@std@@V?$allocator@D@2@@0@PEAV10@@Z DB 060H
	DD	imagerel $ip2state$??$_Unfancy@V?$basic_string@DU?$char_traits@D@std@@V?$allocator@D@2@@std@@@std@@YAPEAV?$basic_string@DU?$char_traits@D@std@@V?$allocator@D@2@@0@PEAV10@@Z
xdata	ENDS
;	COMDAT xdata
xdata	SEGMENT
$unwind$??$_Unfancy@V?$basic_string@DU?$char_traits@D@std@@V?$allocator@D@2@@std@@@std@@YAPEAV?$basic_string@DU?$char_traits@D@std@@V?$allocator@D@2@@0@PEAV10@@Z DD 025052a19H
	DD	010e2313H
	DD	07007001dH
	DD	05006H
	DD	imagerel __CxxFrameHandler4
	DD	imagerel $cppxdata$??$_Unfancy@V?$basic_string@DU?$char_traits@D@std@@V?$allocator@D@2@@std@@@std@@YAPEAV?$basic_string@DU?$char_traits@D@std@@V?$allocator@D@2@@0@PEAV10@@Z
xdata	ENDS
;	COMDAT xdata
xdata	SEGMENT
$ip2state$??$_Deallocate_plain@V?$allocator@U_Container_proxy@std@@@std@@@std@@YAXAEAV?$allocator@U_Container_proxy@std@@@0@QEAU_Container_proxy@0@@Z DB 02H
	DB	00H
	DB	00H
xdata	ENDS
;	COMDAT xdata
xdata	SEGMENT
$cppxdata$??$_Deallocate_plain@V?$allocator@U_Container_proxy@std@@@std@@@std@@YAXAEAV?$allocator@U_Container_proxy@std@@@0@QEAU_Container_proxy@0@@Z DB 060H
	DD	imagerel $ip2state$??$_Deallocate_plain@V?$allocator@U_Container_proxy@std@@@std@@@std@@YAXAEAV?$allocator@U_Container_proxy@std@@@0@QEAU_Container_proxy@0@@Z
xdata	ENDS
;	COMDAT xdata
xdata	SEGMENT
$unwind$??$_Deallocate_plain@V?$allocator@U_Container_proxy@std@@@std@@@std@@YAXAEAV?$allocator@U_Container_proxy@std@@@0@QEAU_Container_proxy@0@@Z DD 025052f19H
	DD	01132318H
	DD	0700c001dH
	DD	0500bH
	DD	imagerel __CxxFrameHandler4
	DD	imagerel $cppxdata$??$_Deallocate_plain@V?$allocator@U_Container_proxy@std@@@std@@@std@@YAXAEAV?$allocator@U_Container_proxy@std@@@0@QEAU_Container_proxy@0@@Z
xdata	ENDS
;	COMDAT xdata
xdata	SEGMENT
$ip2state$??$?0$$V@?$_Compressed_pair@U?$default_delete@VProductHandler@Product@Domain@@@std@@PEAVProductHandler@Product@Domain@@$00@std@@QEAA@U_Zero_then_variadic_args_t@1@@Z DB 02H
	DB	00H
	DB	00H
xdata	ENDS
;	COMDAT xdata
xdata	SEGMENT
$cppxdata$??$?0$$V@?$_Compressed_pair@U?$default_delete@VProductHandler@Product@Domain@@@std@@PEAVProductHandler@Product@Domain@@$00@std@@QEAA@U_Zero_then_variadic_args_t@1@@Z DB 060H
	DD	imagerel $ip2state$??$?0$$V@?$_Compressed_pair@U?$default_delete@VProductHandler@Product@Domain@@@std@@PEAVProductHandler@Product@Domain@@$00@std@@QEAA@U_Zero_then_variadic_args_t@1@@Z
xdata	ENDS
;	COMDAT xdata
xdata	SEGMENT
$unwind$??$?0$$V@?$_Compressed_pair@U?$default_delete@VProductHandler@Product@Domain@@@std@@PEAVProductHandler@Product@Domain@@$00@std@@QEAA@U_Zero_then_variadic_args_t@1@@Z DD 025052e19H
	DD	01122317H
	DD	0700b001dH
	DD	0500aH
	DD	imagerel __CxxFrameHandler4
	DD	imagerel $cppxdata$??$?0$$V@?$_Compressed_pair@U?$default_delete@VProductHandler@Product@Domain@@@std@@PEAVProductHandler@Product@Domain@@$00@std@@QEAA@U_Zero_then_variadic_args_t@1@@Z
xdata	ENDS
;	COMDAT xdata
xdata	SEGMENT
$ip2state$??$?0U?$default_delete@UProductManagement@Product@Domain@@@std@@PEAUProductManagement@Product@Domain@@@?$_Compressed_pair@U?$default_delete@VProductHandler@Product@Domain@@@std@@PEAVProductHandler@Product@Domain@@$00@std@@QEAA@U_One_then_variadic_args_t@1@$$QEAU?$default_delete@UProductManagement@Product@Domain@@@1@$$QEAPEAUProductManagement@Product@Domain@@@Z DB 02H
	DB	00H
	DB	00H
xdata	ENDS
;	COMDAT xdata
xdata	SEGMENT
$cppxdata$??$?0U?$default_delete@UProductManagement@Product@Domain@@@std@@PEAUProductManagement@Product@Domain@@@?$_Compressed_pair@U?$default_delete@VProductHandler@Product@Domain@@@std@@PEAVProductHandler@Product@Domain@@$00@std@@QEAA@U_One_then_variadic_args_t@1@$$QEAU?$default_delete@UProductManagement@Product@Domain@@@1@$$QEAPEAUProductManagement@Product@Domain@@@Z DB 060H
	DD	imagerel $ip2state$??$?0U?$default_delete@UProductManagement@Product@Domain@@@std@@PEAUProductManagement@Product@Domain@@@?$_Compressed_pair@U?$default_delete@VProductHandler@Product@Domain@@@std@@PEAVProductHandler@Product@Domain@@$00@std@@QEAA@U_One_then_variadic_args_t@1@$$QEAU?$default_delete@UProductManagement@Product@Domain@@@1@$$QEAPEAUProductManagement@Product@Domain@@@Z
xdata	ENDS
;	COMDAT xdata
xdata	SEGMENT
$unwind$??$?0U?$default_delete@UProductManagement@Product@Domain@@@std@@PEAUProductManagement@Product@Domain@@@?$_Compressed_pair@U?$default_delete@VProductHandler@Product@Domain@@@std@@PEAVProductHandler@Product@Domain@@$00@std@@QEAA@U_One_then_variadic_args_t@1@$$QEAU?$default_delete@UProductManagement@Product@Domain@@@1@$$QEAPEAUProductManagement@Product@Domain@@@Z DD 025053819H
	DD	011c2321H
	DD	07015001dH
	DD	05014H
	DD	imagerel __CxxFrameHandler4
	DD	imagerel $cppxdata$??$?0U?$default_delete@UProductManagement@Product@Domain@@@std@@PEAUProductManagement@Product@Domain@@@?$_Compressed_pair@U?$default_delete@VProductHandler@Product@Domain@@@std@@PEAVProductHandler@Product@Domain@@$00@std@@QEAA@U_One_then_variadic_args_t@1@$$QEAU?$default_delete@UProductManagement@Product@Domain@@@1@$$QEAPEAUProductManagement@Product@Domain@@@Z
xdata	ENDS
;	COMDAT xdata
xdata	SEGMENT
$ip2state$??$forward@U?$default_delete@UProductManagement@Product@Domain@@@std@@@std@@YA$$QEAU?$default_delete@UProductManagement@Product@Domain@@@0@AEAU10@@Z DB 02H
	DB	00H
	DB	00H
xdata	ENDS
;	COMDAT xdata
xdata	SEGMENT
$cppxdata$??$forward@U?$default_delete@UProductManagement@Product@Domain@@@std@@@std@@YA$$QEAU?$default_delete@UProductManagement@Product@Domain@@@0@AEAU10@@Z DB 060H
	DD	imagerel $ip2state$??$forward@U?$default_delete@UProductManagement@Product@Domain@@@std@@@std@@YA$$QEAU?$default_delete@UProductManagement@Product@Domain@@@0@AEAU10@@Z
xdata	ENDS
;	COMDAT xdata
xdata	SEGMENT
$unwind$??$forward@U?$default_delete@UProductManagement@Product@Domain@@@std@@@std@@YA$$QEAU?$default_delete@UProductManagement@Product@Domain@@@0@AEAU10@@Z DD 025052a19H
	DD	010e2313H
	DD	07007001dH
	DD	05006H
	DD	imagerel __CxxFrameHandler4
	DD	imagerel $cppxdata$??$forward@U?$default_delete@UProductManagement@Product@Domain@@@std@@@std@@YA$$QEAU?$default_delete@UProductManagement@Product@Domain@@@0@AEAU10@@Z
xdata	ENDS
;	COMDAT xdata
xdata	SEGMENT
$ip2state$??$?0U?$default_delete@UProductManagement@Product@Domain@@@std@@$0A@@?$unique_ptr@UProductManagement@Product@Domain@@U?$default_delete@UProductManagement@Product@Domain@@@std@@@std@@QEAA@PEAUProductManagement@Product@Domain@@@Z DB 02H
	DB	00H
	DB	00H
xdata	ENDS
;	COMDAT xdata
xdata	SEGMENT
$cppxdata$??$?0U?$default_delete@UProductManagement@Product@Domain@@@std@@$0A@@?$unique_ptr@UProductManagement@Product@Domain@@U?$default_delete@UProductManagement@Product@Domain@@@std@@@std@@QEAA@PEAUProductManagement@Product@Domain@@@Z DB 060H
	DD	imagerel $ip2state$??$?0U?$default_delete@UProductManagement@Product@Domain@@@std@@$0A@@?$unique_ptr@UProductManagement@Product@Domain@@U?$default_delete@UProductManagement@Product@Domain@@@std@@@std@@QEAA@PEAUProductManagement@Product@Domain@@@Z
xdata	ENDS
;	COMDAT xdata
xdata	SEGMENT
$unwind$??$?0U?$default_delete@UProductManagement@Product@Domain@@@std@@$0A@@?$unique_ptr@UProductManagement@Product@Domain@@U?$default_delete@UProductManagement@Product@Domain@@@std@@@std@@QEAA@PEAUProductManagement@Product@Domain@@@Z DD 025052f19H
	DD	01132318H
	DD	0700c0021H
	DD	0500bH
	DD	imagerel __CxxFrameHandler4
	DD	imagerel $cppxdata$??$?0U?$default_delete@UProductManagement@Product@Domain@@@std@@$0A@@?$unique_ptr@UProductManagement@Product@Domain@@U?$default_delete@UProductManagement@Product@Domain@@@std@@@std@@QEAA@PEAUProductManagement@Product@Domain@@@Z
xdata	ENDS
;	COMDAT xdata
xdata	SEGMENT
$ip2state$??$forward@AEBUUserCredentials@Persistence@TechnicalServices@@@std@@YAAEBUUserCredentials@Persistence@TechnicalServices@@AEBU123@@Z DB 02H
	DB	00H
	DB	00H
xdata	ENDS
;	COMDAT xdata
xdata	SEGMENT
$cppxdata$??$forward@AEBUUserCredentials@Persistence@TechnicalServices@@@std@@YAAEBUUserCredentials@Persistence@TechnicalServices@@AEBU123@@Z DB 060H
	DD	imagerel $ip2state$??$forward@AEBUUserCredentials@Persistence@TechnicalServices@@@std@@YAAEBUUserCredentials@Persistence@TechnicalServices@@AEBU123@@Z
xdata	ENDS
;	COMDAT xdata
xdata	SEGMENT
$unwind$??$forward@AEBUUserCredentials@Persistence@TechnicalServices@@@std@@YAAEBUUserCredentials@Persistence@TechnicalServices@@AEBU123@@Z DD 025052a19H
	DD	010e2313H
	DD	07007001dH
	DD	05006H
	DD	imagerel __CxxFrameHandler4
	DD	imagerel $cppxdata$??$forward@AEBUUserCredentials@Persistence@TechnicalServices@@@std@@YAAEBUUserCredentials@Persistence@TechnicalServices@@AEBU123@@Z
xdata	ENDS
;	COMDAT xdata
xdata	SEGMENT
$ip2state$??$_Destroy_range@V?$allocator@V?$basic_string@DU?$char_traits@D@std@@V?$allocator@D@2@@std@@@std@@@std@@YAXPEAV?$basic_string@DU?$char_traits@D@std@@V?$allocator@D@2@@0@QEAV10@AEAV?$allocator@V?$basic_string@DU?$char_traits@D@std@@V?$allocator@D@2@@std@@@0@@Z DB 02H
	DB	00H
	DB	00H
xdata	ENDS
;	COMDAT xdata
xdata	SEGMENT
$cppxdata$??$_Destroy_range@V?$allocator@V?$basic_string@DU?$char_traits@D@std@@V?$allocator@D@2@@std@@@std@@@std@@YAXPEAV?$basic_string@DU?$char_traits@D@std@@V?$allocator@D@2@@0@QEAV10@AEAV?$allocator@V?$basic_string@DU?$char_traits@D@std@@V?$allocator@D@2@@std@@@0@@Z DB 060H
	DD	imagerel $ip2state$??$_Destroy_range@V?$allocator@V?$basic_string@DU?$char_traits@D@std@@V?$allocator@D@2@@std@@@std@@@std@@YAXPEAV?$basic_string@DU?$char_traits@D@std@@V?$allocator@D@2@@0@QEAV10@AEAV?$allocator@V?$basic_string@DU?$char_traits@D@std@@V?$allocator@D@2@@std@@@0@@Z
xdata	ENDS
;	COMDAT xdata
xdata	SEGMENT
$unwind$??$_Destroy_range@V?$allocator@V?$basic_string@DU?$char_traits@D@std@@V?$allocator@D@2@@std@@@std@@@std@@YAXPEAV?$basic_string@DU?$char_traits@D@std@@V?$allocator@D@2@@0@QEAV10@AEAV?$allocator@V?$basic_string@DU?$char_traits@D@std@@V?$allocator@D@2@@std@@@0@@Z DD 025053419H
	DD	0118231dH
	DD	07011001dH
	DD	05010H
	DD	imagerel __CxxFrameHandler4
	DD	imagerel $cppxdata$??$_Destroy_range@V?$allocator@V?$basic_string@DU?$char_traits@D@std@@V?$allocator@D@2@@std@@@std@@@std@@YAXPEAV?$basic_string@DU?$char_traits@D@std@@V?$allocator@D@2@@0@QEAV10@AEAV?$allocator@V?$basic_string@DU?$char_traits@D@std@@V?$allocator@D@2@@std@@@0@@Z
xdata	ENDS
;	COMDAT xdata
xdata	SEGMENT
$ip2state$??$_Deallocate@$0BA@$0A@@std@@YAXPEAX_K@Z DB 02H
	DB	00H
	DB	00H
xdata	ENDS
;	COMDAT xdata
xdata	SEGMENT
$cppxdata$??$_Deallocate@$0BA@$0A@@std@@YAXPEAX_K@Z DB 060H
	DD	imagerel $ip2state$??$_Deallocate@$0BA@$0A@@std@@YAXPEAX_K@Z
xdata	ENDS
;	COMDAT xdata
xdata	SEGMENT
$unwind$??$_Deallocate@$0BA@$0A@@std@@YAXPEAX_K@Z DD 025052f19H
	DD	01132318H
	DD	0700c001dH
	DD	0500bH
	DD	imagerel __CxxFrameHandler4
	DD	imagerel $cppxdata$??$_Deallocate@$0BA@$0A@@std@@YAXPEAX_K@Z
xdata	ENDS
;	COMDAT xdata
xdata	SEGMENT
$ip2state$??$_Unfancy@D@std@@YAPEADPEAD@Z DB 02H
	DB	00H
	DB	00H
xdata	ENDS
;	COMDAT xdata
xdata	SEGMENT
$cppxdata$??$_Unfancy@D@std@@YAPEADPEAD@Z DB 060H
	DD	imagerel $ip2state$??$_Unfancy@D@std@@YAPEADPEAD@Z
xdata	ENDS
;	COMDAT xdata
xdata	SEGMENT
$unwind$??$_Unfancy@D@std@@YAPEADPEAD@Z DD 025052a19H
	DD	010e2313H
	DD	07007001dH
	DD	05006H
	DD	imagerel __CxxFrameHandler4
	DD	imagerel $cppxdata$??$_Unfancy@D@std@@YAPEADPEAD@Z
xdata	ENDS
;	COMDAT xdata
xdata	SEGMENT
$ip2state$??$_Destroy_in_place@PEAD@std@@YAXAEAPEAD@Z DB 02H
	DB	00H
	DB	00H
xdata	ENDS
;	COMDAT xdata
xdata	SEGMENT
$cppxdata$??$_Destroy_in_place@PEAD@std@@YAXAEAPEAD@Z DB 060H
	DD	imagerel $ip2state$??$_Destroy_in_place@PEAD@std@@YAXAEAPEAD@Z
xdata	ENDS
;	COMDAT xdata
xdata	SEGMENT
$unwind$??$_Destroy_in_place@PEAD@std@@YAXAEAPEAD@Z DD 025052a19H
	DD	010e2313H
	DD	07007001dH
	DD	05006H
	DD	imagerel __CxxFrameHandler4
	DD	imagerel $cppxdata$??$_Destroy_in_place@PEAD@std@@YAXAEAPEAD@Z
xdata	ENDS
;	COMDAT xdata
xdata	SEGMENT
$ip2state$??$?0D@?$allocator@U_Container_proxy@std@@@std@@QEAA@AEBV?$allocator@D@1@@Z DB 02H
	DB	00H
	DB	00H
xdata	ENDS
;	COMDAT xdata
xdata	SEGMENT
$cppxdata$??$?0D@?$allocator@U_Container_proxy@std@@@std@@QEAA@AEBV?$allocator@D@1@@Z DB 060H
	DD	imagerel $ip2state$??$?0D@?$allocator@U_Container_proxy@std@@@std@@QEAA@AEBV?$allocator@D@1@@Z
xdata	ENDS
;	COMDAT xdata
xdata	SEGMENT
$unwind$??$?0D@?$allocator@U_Container_proxy@std@@@std@@QEAA@AEBV?$allocator@D@1@@Z DD 025052f19H
	DD	01132318H
	DD	0700c001dH
	DD	0500bH
	DD	imagerel __CxxFrameHandler4
	DD	imagerel $cppxdata$??$?0D@?$allocator@U_Container_proxy@std@@@std@@QEAA@AEBV?$allocator@D@1@@Z
xdata	ENDS
;	COMDAT xdata
xdata	SEGMENT
$ip2state$??$?0V?$basic_string@DU?$char_traits@D@std@@V?$allocator@D@2@@std@@@?$allocator@U_Container_proxy@std@@@std@@QEAA@AEBV?$allocator@V?$basic_string@DU?$char_traits@D@std@@V?$allocator@D@2@@std@@@1@@Z DB 02H
	DB	00H
	DB	00H
xdata	ENDS
;	COMDAT xdata
xdata	SEGMENT
$cppxdata$??$?0V?$basic_string@DU?$char_traits@D@std@@V?$allocator@D@2@@std@@@?$allocator@U_Container_proxy@std@@@std@@QEAA@AEBV?$allocator@V?$basic_string@DU?$char_traits@D@std@@V?$allocator@D@2@@std@@@1@@Z DB 060H
	DD	imagerel $ip2state$??$?0V?$basic_string@DU?$char_traits@D@std@@V?$allocator@D@2@@std@@@?$allocator@U_Container_proxy@std@@@std@@QEAA@AEBV?$allocator@V?$basic_string@DU?$char_traits@D@std@@V?$allocator@D@2@@std@@@1@@Z
xdata	ENDS
;	COMDAT xdata
xdata	SEGMENT
$unwind$??$?0V?$basic_string@DU?$char_traits@D@std@@V?$allocator@D@2@@std@@@?$allocator@U_Container_proxy@std@@@std@@QEAA@AEBV?$allocator@V?$basic_string@DU?$char_traits@D@std@@V?$allocator@D@2@@std@@@1@@Z DD 025052f19H
	DD	01132318H
	DD	0700c001dH
	DD	0500bH
	DD	imagerel __CxxFrameHandler4
	DD	imagerel $cppxdata$??$?0V?$basic_string@DU?$char_traits@D@std@@V?$allocator@D@2@@std@@@?$allocator@U_Container_proxy@std@@@std@@QEAA@AEBV?$allocator@V?$basic_string@DU?$char_traits@D@std@@V?$allocator@D@2@@std@@@1@@Z
xdata	ENDS
;	COMDAT xdata
xdata	SEGMENT
$ip2state$??$_Delete_plain_internal@V?$allocator@U_Container_proxy@std@@@std@@@std@@YAXAEAV?$allocator@U_Container_proxy@std@@@0@QEAU_Container_proxy@0@@Z DB 02H
	DB	00H
	DB	00H
xdata	ENDS
;	COMDAT xdata
xdata	SEGMENT
$cppxdata$??$_Delete_plain_internal@V?$allocator@U_Container_proxy@std@@@std@@@std@@YAXAEAV?$allocator@U_Container_proxy@std@@@0@QEAU_Container_proxy@0@@Z DB 060H
	DD	imagerel $ip2state$??$_Delete_plain_internal@V?$allocator@U_Container_proxy@std@@@std@@@std@@YAXAEAV?$allocator@U_Container_proxy@std@@@0@QEAU_Container_proxy@0@@Z
xdata	ENDS
;	COMDAT xdata
xdata	SEGMENT
$unwind$??$_Delete_plain_internal@V?$allocator@U_Container_proxy@std@@@std@@@std@@YAXAEAV?$allocator@U_Container_proxy@std@@@0@QEAU_Container_proxy@0@@Z DD 025052f19H
	DD	01132318H
	DD	0700c001dH
	DD	0500bH
	DD	imagerel __CxxFrameHandler4
	DD	imagerel $cppxdata$??$_Delete_plain_internal@V?$allocator@U_Container_proxy@std@@@std@@@std@@YAXAEAV?$allocator@U_Container_proxy@std@@@0@QEAU_Container_proxy@0@@Z
xdata	ENDS
;	COMDAT xdata
xdata	SEGMENT
$ip2state$??$exchange@PEAU_Container_proxy@std@@$$T@std@@YAPEAU_Container_proxy@0@AEAPEAU10@$$QEA$$T@Z DB 02H
	DB	00H
	DB	00H
xdata	ENDS
;	COMDAT xdata
xdata	SEGMENT
$cppxdata$??$exchange@PEAU_Container_proxy@std@@$$T@std@@YAPEAU_Container_proxy@0@AEAPEAU10@$$QEA$$T@Z DB 060H
	DD	imagerel $ip2state$??$exchange@PEAU_Container_proxy@std@@$$T@std@@YAPEAU_Container_proxy@0@AEAPEAU10@$$QEA$$T@Z
xdata	ENDS
;	COMDAT xdata
xdata	SEGMENT
$unwind$??$exchange@PEAU_Container_proxy@std@@$$T@std@@YAPEAU_Container_proxy@0@AEAPEAU10@$$QEA$$T@Z DD 025052f19H
	DD	01132318H
	DD	0700c0021H
	DD	0500bH
	DD	imagerel __CxxFrameHandler4
	DD	imagerel $cppxdata$??$exchange@PEAU_Container_proxy@std@@$$T@std@@YAPEAU_Container_proxy@0@AEAPEAU10@$$QEA$$T@Z
xdata	ENDS
;	COMDAT xdata
xdata	SEGMENT
$ip2state$??$?0U?$default_delete@VProductHandler@Product@Domain@@@std@@$0A@@?$unique_ptr@VProductHandler@Product@Domain@@U?$default_delete@VProductHandler@Product@Domain@@@std@@@std@@QEAA@$$T@Z DB 02H
	DB	00H
	DB	00H
xdata	ENDS
;	COMDAT xdata
xdata	SEGMENT
$cppxdata$??$?0U?$default_delete@VProductHandler@Product@Domain@@@std@@$0A@@?$unique_ptr@VProductHandler@Product@Domain@@U?$default_delete@VProductHandler@Product@Domain@@@std@@@std@@QEAA@$$T@Z DB 060H
	DD	imagerel $ip2state$??$?0U?$default_delete@VProductHandler@Product@Domain@@@std@@$0A@@?$unique_ptr@VProductHandler@Product@Domain@@U?$default_delete@VProductHandler@Product@Domain@@@std@@@std@@QEAA@$$T@Z
xdata	ENDS
;	COMDAT xdata
xdata	SEGMENT
$unwind$??$?0U?$default_delete@VProductHandler@Product@Domain@@@std@@$0A@@?$unique_ptr@VProductHandler@Product@Domain@@U?$default_delete@VProductHandler@Product@Domain@@@std@@@std@@QEAA@$$T@Z DD 025052f19H
	DD	01132318H
	DD	0700c0021H
	DD	0500bH
	DD	imagerel __CxxFrameHandler4
	DD	imagerel $cppxdata$??$?0U?$default_delete@VProductHandler@Product@Domain@@@std@@$0A@@?$unique_ptr@VProductHandler@Product@Domain@@U?$default_delete@VProductHandler@Product@Domain@@@std@@@std@@QEAA@$$T@Z
xdata	ENDS
;	COMDAT xdata
xdata	SEGMENT
$ip2state$??$?0UProductManagement@Product@Domain@@U?$default_delete@UProductManagement@Product@Domain@@@std@@$0A@@?$unique_ptr@VProductHandler@Product@Domain@@U?$default_delete@VProductHandler@Product@Domain@@@std@@@std@@QEAA@$$QEAV?$unique_ptr@UProductManagement@Product@Domain@@U?$default_delete@UProductManagement@Product@Domain@@@std@@@1@@Z DB 02H
	DB	00H
	DB	00H
xdata	ENDS
;	COMDAT xdata
xdata	SEGMENT
$cppxdata$??$?0UProductManagement@Product@Domain@@U?$default_delete@UProductManagement@Product@Domain@@@std@@$0A@@?$unique_ptr@VProductHandler@Product@Domain@@U?$default_delete@VProductHandler@Product@Domain@@@std@@@std@@QEAA@$$QEAV?$unique_ptr@UProductManagement@Product@Domain@@U?$default_delete@UProductManagement@Product@Domain@@@std@@@1@@Z DB 060H
	DD	imagerel $ip2state$??$?0UProductManagement@Product@Domain@@U?$default_delete@UProductManagement@Product@Domain@@@std@@$0A@@?$unique_ptr@VProductHandler@Product@Domain@@U?$default_delete@VProductHandler@Product@Domain@@@std@@@std@@QEAA@$$QEAV?$unique_ptr@UProductManagement@Product@Domain@@U?$default_delete@UProductManagement@Product@Domain@@@std@@@1@@Z
xdata	ENDS
;	COMDAT xdata
xdata	SEGMENT
$unwind$??$?0UProductManagement@Product@Domain@@U?$default_delete@UProductManagement@Product@Domain@@@std@@$0A@@?$unique_ptr@VProductHandler@Product@Domain@@U?$default_delete@VProductHandler@Product@Domain@@@std@@@std@@QEAA@$$QEAV?$unique_ptr@UProductManagement@Product@Domain@@U?$default_delete@UProductManagement@Product@Domain@@@std@@@1@@Z DD 025052f19H
	DD	01132318H
	DD	0700c002bH
	DD	0500bH
	DD	imagerel __CxxFrameHandler4
	DD	imagerel $cppxdata$??$?0UProductManagement@Product@Domain@@U?$default_delete@UProductManagement@Product@Domain@@@std@@$0A@@?$unique_ptr@VProductHandler@Product@Domain@@U?$default_delete@VProductHandler@Product@Domain@@@std@@@std@@QEAA@$$QEAV?$unique_ptr@UProductManagement@Product@Domain@@U?$default_delete@UProductManagement@Product@Domain@@@std@@@1@@Z
xdata	ENDS
;	COMDAT xdata
xdata	SEGMENT
$ip2state$??$?0UProductManagement@Product@Domain@@$0A@@?$default_delete@VProductHandler@Product@Domain@@@std@@QEAA@AEBU?$default_delete@UProductManagement@Product@Domain@@@1@@Z DB 02H
	DB	00H
	DB	00H
xdata	ENDS
;	COMDAT xdata
xdata	SEGMENT
$cppxdata$??$?0UProductManagement@Product@Domain@@$0A@@?$default_delete@VProductHandler@Product@Domain@@@std@@QEAA@AEBU?$default_delete@UProductManagement@Product@Domain@@@1@@Z DB 060H
	DD	imagerel $ip2state$??$?0UProductManagement@Product@Domain@@$0A@@?$default_delete@VProductHandler@Product@Domain@@@std@@QEAA@AEBU?$default_delete@UProductManagement@Product@Domain@@@1@@Z
xdata	ENDS
;	COMDAT xdata
xdata	SEGMENT
$unwind$??$?0UProductManagement@Product@Domain@@$0A@@?$default_delete@VProductHandler@Product@Domain@@@std@@QEAA@AEBU?$default_delete@UProductManagement@Product@Domain@@@1@@Z DD 025052f19H
	DD	01132318H
	DD	0700c001dH
	DD	0500bH
	DD	imagerel __CxxFrameHandler4
	DD	imagerel $cppxdata$??$?0UProductManagement@Product@Domain@@$0A@@?$default_delete@VProductHandler@Product@Domain@@@std@@QEAA@AEBU?$default_delete@UProductManagement@Product@Domain@@@1@@Z
xdata	ENDS
;	COMDAT xdata
xdata	SEGMENT
$ip2state$?_Get_first@?$_Compressed_pair@U?$default_delete@UProductManagement@Product@Domain@@@std@@PEAUProductManagement@Product@Domain@@$00@std@@QEAAAEAU?$default_delete@UProductManagement@Product@Domain@@@2@XZ DB 02H
	DB	00H
	DB	00H
xdata	ENDS
;	COMDAT xdata
xdata	SEGMENT
$cppxdata$?_Get_first@?$_Compressed_pair@U?$default_delete@UProductManagement@Product@Domain@@@std@@PEAUProductManagement@Product@Domain@@$00@std@@QEAAAEAU?$default_delete@UProductManagement@Product@Domain@@@2@XZ DB 060H
	DD	imagerel $ip2state$?_Get_first@?$_Compressed_pair@U?$default_delete@UProductManagement@Product@Domain@@@std@@PEAUProductManagement@Product@Domain@@$00@std@@QEAAAEAU?$default_delete@UProductManagement@Product@Domain@@@2@XZ
xdata	ENDS
;	COMDAT xdata
xdata	SEGMENT
$unwind$?_Get_first@?$_Compressed_pair@U?$default_delete@UProductManagement@Product@Domain@@@std@@PEAUProductManagement@Product@Domain@@$00@std@@QEAAAEAU?$default_delete@UProductManagement@Product@Domain@@@2@XZ DD 025052a19H
	DD	010e2313H
	DD	07007001dH
	DD	05006H
	DD	imagerel __CxxFrameHandler4
	DD	imagerel $cppxdata$?_Get_first@?$_Compressed_pair@U?$default_delete@UProductManagement@Product@Domain@@@std@@PEAUProductManagement@Product@Domain@@$00@std@@QEAAAEAU?$default_delete@UProductManagement@Product@Domain@@@2@XZ
xdata	ENDS
;	COMDAT xdata
xdata	SEGMENT
$ip2state$?release@?$unique_ptr@UProductManagement@Product@Domain@@U?$default_delete@UProductManagement@Product@Domain@@@std@@@std@@QEAAPEAUProductManagement@Product@Domain@@XZ DB 02H
	DB	00H
	DB	00H
xdata	ENDS
;	COMDAT xdata
xdata	SEGMENT
$cppxdata$?release@?$unique_ptr@UProductManagement@Product@Domain@@U?$default_delete@UProductManagement@Product@Domain@@@std@@@std@@QEAAPEAUProductManagement@Product@Domain@@XZ DB 060H
	DD	imagerel $ip2state$?release@?$unique_ptr@UProductManagement@Product@Domain@@U?$default_delete@UProductManagement@Product@Domain@@@std@@@std@@QEAAPEAUProductManagement@Product@Domain@@XZ
xdata	ENDS
;	COMDAT xdata
xdata	SEGMENT
$unwind$?release@?$unique_ptr@UProductManagement@Product@Domain@@U?$default_delete@UProductManagement@Product@Domain@@@std@@@std@@QEAAPEAUProductManagement@Product@Domain@@XZ DD 025052a19H
	DD	010e2313H
	DD	070070021H
	DD	05006H
	DD	imagerel __CxxFrameHandler4
	DD	imagerel $cppxdata$?release@?$unique_ptr@UProductManagement@Product@Domain@@U?$default_delete@UProductManagement@Product@Domain@@@std@@@std@@QEAAPEAUProductManagement@Product@Domain@@XZ
xdata	ENDS
;	COMDAT xdata
xdata	SEGMENT
$ip2state$?get_deleter@?$unique_ptr@UProductManagement@Product@Domain@@U?$default_delete@UProductManagement@Product@Domain@@@std@@@std@@QEAAAEAU?$default_delete@UProductManagement@Product@Domain@@@2@XZ DB 02H
	DB	00H
	DB	00H
xdata	ENDS
;	COMDAT xdata
xdata	SEGMENT
$cppxdata$?get_deleter@?$unique_ptr@UProductManagement@Product@Domain@@U?$default_delete@UProductManagement@Product@Domain@@@std@@@std@@QEAAAEAU?$default_delete@UProductManagement@Product@Domain@@@2@XZ DB 060H
	DD	imagerel $ip2state$?get_deleter@?$unique_ptr@UProductManagement@Product@Domain@@U?$default_delete@UProductManagement@Product@Domain@@@std@@@std@@QEAAAEAU?$default_delete@UProductManagement@Product@Domain@@@2@XZ
xdata	ENDS
;	COMDAT xdata
xdata	SEGMENT
$unwind$?get_deleter@?$unique_ptr@UProductManagement@Product@Domain@@U?$default_delete@UProductManagement@Product@Domain@@@std@@@std@@QEAAAEAU?$default_delete@UProductManagement@Product@Domain@@@2@XZ DD 025052a19H
	DD	010e2313H
	DD	07007001dH
	DD	05006H
	DD	imagerel __CxxFrameHandler4
	DD	imagerel $cppxdata$?get_deleter@?$unique_ptr@UProductManagement@Product@Domain@@U?$default_delete@UProductManagement@Product@Domain@@@std@@@std@@QEAAAEAU?$default_delete@UProductManagement@Product@Domain@@@2@XZ
xdata	ENDS
;	COMDAT xdata
xdata	SEGMENT
$ip2state$??1?$unique_ptr@UProductManagement@Product@Domain@@U?$default_delete@UProductManagement@Product@Domain@@@std@@@std@@QEAA@XZ DB 02H
	DB	00H
	DB	00H
xdata	ENDS
;	COMDAT xdata
xdata	SEGMENT
$cppxdata$??1?$unique_ptr@UProductManagement@Product@Domain@@U?$default_delete@UProductManagement@Product@Domain@@@std@@@std@@QEAA@XZ DB 060H
	DD	imagerel $ip2state$??1?$unique_ptr@UProductManagement@Product@Domain@@U?$default_delete@UProductManagement@Product@Domain@@@std@@@std@@QEAA@XZ
xdata	ENDS
;	COMDAT xdata
xdata	SEGMENT
$unwind$??1?$unique_ptr@UProductManagement@Product@Domain@@U?$default_delete@UProductManagement@Product@Domain@@@std@@@std@@QEAA@XZ DD 025052a19H
	DD	010e2313H
	DD	07007001fH
	DD	05006H
	DD	imagerel __CxxFrameHandler4
	DD	imagerel $cppxdata$??1?$unique_ptr@UProductManagement@Product@Domain@@U?$default_delete@UProductManagement@Product@Domain@@@std@@@std@@QEAA@XZ
xdata	ENDS
;	COMDAT xdata
xdata	SEGMENT
$ip2state$??R?$default_delete@UProductManagement@Product@Domain@@@std@@QEBAXPEAUProductManagement@Product@Domain@@@Z DB 02H
	DB	00H
	DB	00H
xdata	ENDS
;	COMDAT xdata
xdata	SEGMENT
$cppxdata$??R?$default_delete@UProductManagement@Product@Domain@@@std@@QEBAXPEAUProductManagement@Product@Domain@@@Z DB 060H
	DD	imagerel $ip2state$??R?$default_delete@UProductManagement@Product@Domain@@@std@@QEBAXPEAUProductManagement@Product@Domain@@@Z
xdata	ENDS
;	COMDAT xdata
xdata	SEGMENT
$unwind$??R?$default_delete@UProductManagement@Product@Domain@@@std@@QEBAXPEAUProductManagement@Product@Domain@@@Z DD 025052f19H
	DD	01132318H
	DD	0700c0023H
	DD	0500bH
	DD	imagerel __CxxFrameHandler4
	DD	imagerel $cppxdata$??R?$default_delete@UProductManagement@Product@Domain@@@std@@QEBAXPEAUProductManagement@Product@Domain@@@Z
xdata	ENDS
;	COMDAT xdata
xdata	SEGMENT
$unwind$?dtor$0@?0???$make_unique@UProductManagement@Product@Domain@@AEBUUserCredentials@Persistence@TechnicalServices@@$0A@@std@@YA?AV?$unique_ptr@UProductManagement@Product@Domain@@U?$default_delete@UProductManagement@Product@Domain@@@std@@@0@AEBUUserCredentials@Persistence@TechnicalServices@@@Z@4HA DD 031001H
	DD	0700c4210H
	DD	0500bH
xdata	ENDS
;	COMDAT xdata
xdata	SEGMENT
$ip2state$??$make_unique@UProductManagement@Product@Domain@@AEBUUserCredentials@Persistence@TechnicalServices@@$0A@@std@@YA?AV?$unique_ptr@UProductManagement@Product@Domain@@U?$default_delete@UProductManagement@Product@Domain@@@std@@@0@AEBUUserCredentials@Persistence@TechnicalServices@@@Z DB 06H
	DB	00H
	DB	00H
	DB	0acH
	DB	02H
	DB	0a4H
	DB	00H
xdata	ENDS
;	COMDAT xdata
xdata	SEGMENT
$stateUnwindMap$??$make_unique@UProductManagement@Product@Domain@@AEBUUserCredentials@Persistence@TechnicalServices@@$0A@@std@@YA?AV?$unique_ptr@UProductManagement@Product@Domain@@U?$default_delete@UProductManagement@Product@Domain@@@std@@@0@AEBUUserCredentials@Persistence@TechnicalServices@@@Z DB 02H
	DB	0eH
	DD	imagerel ?dtor$0@?0???$make_unique@UProductManagement@Product@Domain@@AEBUUserCredentials@Persistence@TechnicalServices@@$0A@@std@@YA?AV?$unique_ptr@UProductManagement@Product@Domain@@U?$default_delete@UProductManagement@Product@Domain@@@std@@@0@AEBUUserCredentials@Persistence@TechnicalServices@@@Z@4HA
xdata	ENDS
;	COMDAT xdata
xdata	SEGMENT
$cppxdata$??$make_unique@UProductManagement@Product@Domain@@AEBUUserCredentials@Persistence@TechnicalServices@@$0A@@std@@YA?AV?$unique_ptr@UProductManagement@Product@Domain@@U?$default_delete@UProductManagement@Product@Domain@@@std@@@0@AEBUUserCredentials@Persistence@TechnicalServices@@@Z DB 028H
	DD	imagerel $stateUnwindMap$??$make_unique@UProductManagement@Product@Domain@@AEBUUserCredentials@Persistence@TechnicalServices@@$0A@@std@@YA?AV?$unique_ptr@UProductManagement@Product@Domain@@U?$default_delete@UProductManagement@Product@Domain@@@std@@@0@AEBUUserCredentials@Persistence@TechnicalServices@@@Z
	DD	imagerel $ip2state$??$make_unique@UProductManagement@Product@Domain@@AEBUUserCredentials@Persistence@TechnicalServices@@$0A@@std@@YA?AV?$unique_ptr@UProductManagement@Product@Domain@@U?$default_delete@UProductManagement@Product@Domain@@@std@@@0@AEBUUserCredentials@Persistence@TechnicalServices@@@Z
xdata	ENDS
;	COMDAT xdata
xdata	SEGMENT
$unwind$??$make_unique@UProductManagement@Product@Domain@@AEBUUserCredentials@Persistence@TechnicalServices@@$0A@@std@@YA?AV?$unique_ptr@UProductManagement@Product@Domain@@U?$default_delete@UProductManagement@Product@Domain@@@std@@@0@AEBUUserCredentials@Persistence@TechnicalServices@@@Z DD 025052f11H
	DD	01132318H
	DD	0700c002bH
	DD	0500bH
	DD	imagerel __CxxFrameHandler4
	DD	imagerel $cppxdata$??$make_unique@UProductManagement@Product@Domain@@AEBUUserCredentials@Persistence@TechnicalServices@@$0A@@std@@YA?AV?$unique_ptr@UProductManagement@Product@Domain@@U?$default_delete@UProductManagement@Product@Domain@@@std@@@0@AEBUUserCredentials@Persistence@TechnicalServices@@@Z
xdata	ENDS
;	COMDAT xdata
xdata	SEGMENT
$unwind$??$?8DU?$char_traits@D@std@@V?$allocator@D@1@@std@@YA_NAEBV?$basic_string@DU?$char_traits@D@std@@V?$allocator@D@2@@0@QEBD@Z DD 025052f01H
	DD	01132318H
	DD	0700c001dH
	DD	0500bH
xdata	ENDS
;	COMDAT xdata
xdata	SEGMENT
$ip2state$??1ProductHandler@Product@Domain@@UEAA@XZ DB 02H
	DB	00H
	DB	00H
xdata	ENDS
;	COMDAT xdata
xdata	SEGMENT
$cppxdata$??1ProductHandler@Product@Domain@@UEAA@XZ DB 060H
	DD	imagerel $ip2state$??1ProductHandler@Product@Domain@@UEAA@XZ
xdata	ENDS
;	COMDAT xdata
xdata	SEGMENT
$unwind$??1ProductHandler@Product@Domain@@UEAA@XZ DD 025052a19H
	DD	010e2313H
	DD	07007001dH
	DD	05006H
	DD	imagerel __CxxFrameHandler4
	DD	imagerel $cppxdata$??1ProductHandler@Product@Domain@@UEAA@XZ
xdata	ENDS
;	COMDAT xdata
xdata	SEGMENT
$unwind$?dtor$0@?0??UseProductManagement@ProductHandler@Product@Domain@@SA?AV?$unique_ptr@VProductHandler@Product@Domain@@U?$default_delete@VProductHandler@Product@Domain@@@std@@@std@@AEBUUserCredentials@Persistence@TechnicalServices@@@Z@4HA DD 031001H
	DD	0700c4210H
	DD	0500bH
xdata	ENDS
;	COMDAT xdata
xdata	SEGMENT
$ip2state$?UseProductManagement@ProductHandler@Product@Domain@@SA?AV?$unique_ptr@VProductHandler@Product@Domain@@U?$default_delete@VProductHandler@Product@Domain@@@std@@@std@@AEBUUserCredentials@Persistence@TechnicalServices@@@Z DB 0aH
	DB	00H
	DB	00H
	DB	'9', 02H
	DB	02H
	DB	0daH
	DB	00H
	DB	'$'
	DB	02H
	DB	':'
	DB	00H
xdata	ENDS
;	COMDAT xdata
xdata	SEGMENT
$stateUnwindMap$?UseProductManagement@ProductHandler@Product@Domain@@SA?AV?$unique_ptr@VProductHandler@Product@Domain@@U?$default_delete@VProductHandler@Product@Domain@@@std@@@std@@AEBUUserCredentials@Persistence@TechnicalServices@@@Z DB 02H
	DB	0eH
	DD	imagerel ?dtor$0@?0??UseProductManagement@ProductHandler@Product@Domain@@SA?AV?$unique_ptr@VProductHandler@Product@Domain@@U?$default_delete@VProductHandler@Product@Domain@@@std@@@std@@AEBUUserCredentials@Persistence@TechnicalServices@@@Z@4HA
xdata	ENDS
;	COMDAT xdata
xdata	SEGMENT
$cppxdata$?UseProductManagement@ProductHandler@Product@Domain@@SA?AV?$unique_ptr@VProductHandler@Product@Domain@@U?$default_delete@VProductHandler@Product@Domain@@@std@@@std@@AEBUUserCredentials@Persistence@TechnicalServices@@@Z DB 028H
	DD	imagerel $stateUnwindMap$?UseProductManagement@ProductHandler@Product@Domain@@SA?AV?$unique_ptr@VProductHandler@Product@Domain@@U?$default_delete@VProductHandler@Product@Domain@@@std@@@std@@AEBUUserCredentials@Persistence@TechnicalServices@@@Z
	DD	imagerel $ip2state$?UseProductManagement@ProductHandler@Product@Domain@@SA?AV?$unique_ptr@VProductHandler@Product@Domain@@U?$default_delete@VProductHandler@Product@Domain@@@std@@@std@@AEBUUserCredentials@Persistence@TechnicalServices@@@Z
xdata	ENDS
;	COMDAT xdata
xdata	SEGMENT
$unwind$?UseProductManagement@ProductHandler@Product@Domain@@SA?AV?$unique_ptr@VProductHandler@Product@Domain@@U?$default_delete@VProductHandler@Product@Domain@@@std@@@std@@AEBUUserCredentials@Persistence@TechnicalServices@@@Z DD 025054019H
	DD	01132318H
	DD	0700c0043H
	DD	0500bH
	DD	imagerel __GSHandlerCheck_EH4
	DD	imagerel $cppxdata$?UseProductManagement@ProductHandler@Product@Domain@@SA?AV?$unique_ptr@VProductHandler@Product@Domain@@U?$default_delete@VProductHandler@Product@Domain@@@std@@@std@@AEBUUserCredentials@Persistence@TechnicalServices@@@Z
	DD	0202H
xdata	ENDS
;	COMDAT CONST
CONST	SEGMENT
?UseProductManagement@ProductHandler@Product@Domain@@SA?AV?$unique_ptr@VProductHandler@Product@Domain@@U?$default_delete@VProductHandler@Product@Domain@@@std@@@std@@AEBUUserCredentials@Persistence@TechnicalServices@@@Z$rtcName$0 DB 063H ; Domain::Product::ProductHandler::UseProductManagement
	DB	072H
	DB	065H
	DB	064H
	DB	065H
	DB	06eH
	DB	074H
	DB	069H
	DB	061H
	DB	06cH
	DB	073H
	DB	046H
	DB	072H
	DB	06fH
	DB	06dH
	DB	044H
	DB	042H
	DB	00H
	ORG $+14
?UseProductManagement@ProductHandler@Product@Domain@@SA?AV?$unique_ptr@VProductHandler@Product@Domain@@U?$default_delete@VProductHandler@Product@Domain@@@std@@@std@@AEBUUserCredentials@Persistence@TechnicalServices@@@Z$rtcVarDesc DD 050H ; Domain::Product::ProductHandler::UseProductManagement
	DD	0a0H
	DQ	FLAT:?UseProductManagement@ProductHandler@Product@Domain@@SA?AV?$unique_ptr@VProductHandler@Product@Domain@@U?$default_delete@VProductHandler@Product@Domain@@@std@@@std@@AEBUUserCredentials@Persistence@TechnicalServices@@@Z$rtcName$0
	ORG $+48
?UseProductManagement@ProductHandler@Product@Domain@@SA?AV?$unique_ptr@VProductHandler@Product@Domain@@U?$default_delete@VProductHandler@Product@Domain@@@std@@@std@@AEBUUserCredentials@Persistence@TechnicalServices@@@Z$rtcFrameData DD 01H ; Domain::Product::ProductHandler::UseProductManagement
	DD	00H
	DQ	FLAT:?UseProductManagement@ProductHandler@Product@Domain@@SA?AV?$unique_ptr@VProductHandler@Product@Domain@@U?$default_delete@VProductHandler@Product@Domain@@@std@@@std@@AEBUUserCredentials@Persistence@TechnicalServices@@@Z$rtcVarDesc
CONST	ENDS
;	COMDAT xdata
xdata	SEGMENT
$unwind$??1UserCredentials@Persistence@TechnicalServices@@QEAA@XZ DD 025052a01H
	DD	010e2313H
	DD	07007001dH
	DD	05006H
xdata	ENDS
;	COMDAT xdata
xdata	SEGMENT
$ip2state$?_Get_first@?$_Compressed_pair@V?$allocator@V?$basic_string@DU?$char_traits@D@std@@V?$allocator@D@2@@std@@@std@@V?$_Vector_val@U?$_Simple_types@V?$basic_string@DU?$char_traits@D@std@@V?$allocator@D@2@@std@@@std@@@2@$00@std@@QEAAAEAV?$allocator@V?$basic_string@DU?$char_traits@D@std@@V?$allocator@D@2@@std@@@2@XZ DB 02H
	DB	00H
	DB	00H
xdata	ENDS
;	COMDAT xdata
xdata	SEGMENT
$cppxdata$?_Get_first@?$_Compressed_pair@V?$allocator@V?$basic_string@DU?$char_traits@D@std@@V?$allocator@D@2@@std@@@std@@V?$_Vector_val@U?$_Simple_types@V?$basic_string@DU?$char_traits@D@std@@V?$allocator@D@2@@std@@@std@@@2@$00@std@@QEAAAEAV?$allocator@V?$basic_string@DU?$char_traits@D@std@@V?$allocator@D@2@@std@@@2@XZ DB 060H
	DD	imagerel $ip2state$?_Get_first@?$_Compressed_pair@V?$allocator@V?$basic_string@DU?$char_traits@D@std@@V?$allocator@D@2@@std@@@std@@V?$_Vector_val@U?$_Simple_types@V?$basic_string@DU?$char_traits@D@std@@V?$allocator@D@2@@std@@@std@@@2@$00@std@@QEAAAEAV?$allocator@V?$basic_string@DU?$char_traits@D@std@@V?$allocator@D@2@@std@@@2@XZ
xdata	ENDS
;	COMDAT xdata
xdata	SEGMENT
$unwind$?_Get_first@?$_Compressed_pair@V?$allocator@V?$basic_string@DU?$char_traits@D@std@@V?$allocator@D@2@@std@@@std@@V?$_Vector_val@U?$_Simple_types@V?$basic_string@DU?$char_traits@D@std@@V?$allocator@D@2@@std@@@std@@@2@$00@std@@QEAAAEAV?$allocator@V?$basic_string@DU?$char_traits@D@std@@V?$allocator@D@2@@std@@@2@XZ DD 025052a19H
	DD	010e2313H
	DD	07007001dH
	DD	05006H
	DD	imagerel __CxxFrameHandler4
	DD	imagerel $cppxdata$?_Get_first@?$_Compressed_pair@V?$allocator@V?$basic_string@DU?$char_traits@D@std@@V?$allocator@D@2@@std@@@std@@V?$_Vector_val@U?$_Simple_types@V?$basic_string@DU?$char_traits@D@std@@V?$allocator@D@2@@std@@@std@@@2@$00@std@@QEAAAEAV?$allocator@V?$basic_string@DU?$char_traits@D@std@@V?$allocator@D@2@@std@@@2@XZ
xdata	ENDS
;	COMDAT xdata
xdata	SEGMENT
$ip2state$?_Getal@?$vector@V?$basic_string@DU?$char_traits@D@std@@V?$allocator@D@2@@std@@V?$allocator@V?$basic_string@DU?$char_traits@D@std@@V?$allocator@D@2@@std@@@2@@std@@AEAAAEAV?$allocator@V?$basic_string@DU?$char_traits@D@std@@V?$allocator@D@2@@std@@@2@XZ DB 02H
	DB	00H
	DB	00H
xdata	ENDS
;	COMDAT xdata
xdata	SEGMENT
$cppxdata$?_Getal@?$vector@V?$basic_string@DU?$char_traits@D@std@@V?$allocator@D@2@@std@@V?$allocator@V?$basic_string@DU?$char_traits@D@std@@V?$allocator@D@2@@std@@@2@@std@@AEAAAEAV?$allocator@V?$basic_string@DU?$char_traits@D@std@@V?$allocator@D@2@@std@@@2@XZ DB 060H
	DD	imagerel $ip2state$?_Getal@?$vector@V?$basic_string@DU?$char_traits@D@std@@V?$allocator@D@2@@std@@V?$allocator@V?$basic_string@DU?$char_traits@D@std@@V?$allocator@D@2@@std@@@2@@std@@AEAAAEAV?$allocator@V?$basic_string@DU?$char_traits@D@std@@V?$allocator@D@2@@std@@@2@XZ
xdata	ENDS
;	COMDAT xdata
xdata	SEGMENT
$unwind$?_Getal@?$vector@V?$basic_string@DU?$char_traits@D@std@@V?$allocator@D@2@@std@@V?$allocator@V?$basic_string@DU?$char_traits@D@std@@V?$allocator@D@2@@std@@@2@@std@@AEAAAEAV?$allocator@V?$basic_string@DU?$char_traits@D@std@@V?$allocator@D@2@@std@@@2@XZ DD 025052a19H
	DD	010e2313H
	DD	07007001dH
	DD	05006H
	DD	imagerel __CxxFrameHandler4
	DD	imagerel $cppxdata$?_Getal@?$vector@V?$basic_string@DU?$char_traits@D@std@@V?$allocator@D@2@@std@@V?$allocator@V?$basic_string@DU?$char_traits@D@std@@V?$allocator@D@2@@std@@@2@@std@@AEAAAEAV?$allocator@V?$basic_string@DU?$char_traits@D@std@@V?$allocator@D@2@@std@@@2@XZ
xdata	ENDS
;	COMDAT xdata
xdata	SEGMENT
$ip2state$?_Tidy@?$vector@V?$basic_string@DU?$char_traits@D@std@@V?$allocator@D@2@@std@@V?$allocator@V?$basic_string@DU?$char_traits@D@std@@V?$allocator@D@2@@std@@@2@@std@@AEAAXXZ DB 02H
	DB	00H
	DB	00H
xdata	ENDS
;	COMDAT xdata
xdata	SEGMENT
$cppxdata$?_Tidy@?$vector@V?$basic_string@DU?$char_traits@D@std@@V?$allocator@D@2@@std@@V?$allocator@V?$basic_string@DU?$char_traits@D@std@@V?$allocator@D@2@@std@@@2@@std@@AEAAXXZ DB 060H
	DD	imagerel $ip2state$?_Tidy@?$vector@V?$basic_string@DU?$char_traits@D@std@@V?$allocator@D@2@@std@@V?$allocator@V?$basic_string@DU?$char_traits@D@std@@V?$allocator@D@2@@std@@@2@@std@@AEAAXXZ
xdata	ENDS
;	COMDAT xdata
xdata	SEGMENT
$unwind$?_Tidy@?$vector@V?$basic_string@DU?$char_traits@D@std@@V?$allocator@D@2@@std@@V?$allocator@V?$basic_string@DU?$char_traits@D@std@@V?$allocator@D@2@@std@@@2@@std@@AEAAXXZ DD 025052a19H
	DD	010e2313H
	DD	07007002fH
	DD	05006H
	DD	imagerel __CxxFrameHandler4
	DD	imagerel $cppxdata$?_Tidy@?$vector@V?$basic_string@DU?$char_traits@D@std@@V?$allocator@D@2@@std@@V?$allocator@V?$basic_string@DU?$char_traits@D@std@@V?$allocator@D@2@@std@@@2@@std@@AEAAXXZ
xdata	ENDS
;	COMDAT xdata
xdata	SEGMENT
$unwind$?_Destroy@?$vector@V?$basic_string@DU?$char_traits@D@std@@V?$allocator@D@2@@std@@V?$allocator@V?$basic_string@DU?$char_traits@D@std@@V?$allocator@D@2@@std@@@2@@std@@AEAAXPEAV?$basic_string@DU?$char_traits@D@std@@V?$allocator@D@2@@2@0@Z DD 025053401H
	DD	0118231dH
	DD	07011001dH
	DD	05010H
xdata	ENDS
;	COMDAT xdata
xdata	SEGMENT
$ip2state$??A?$vector@V?$basic_string@DU?$char_traits@D@std@@V?$allocator@D@2@@std@@V?$allocator@V?$basic_string@DU?$char_traits@D@std@@V?$allocator@D@2@@std@@@2@@std@@QEAAAEAV?$basic_string@DU?$char_traits@D@std@@V?$allocator@D@2@@1@_K@Z DB 02H
	DB	00H
	DB	00H
xdata	ENDS
;	COMDAT xdata
xdata	SEGMENT
$cppxdata$??A?$vector@V?$basic_string@DU?$char_traits@D@std@@V?$allocator@D@2@@std@@V?$allocator@V?$basic_string@DU?$char_traits@D@std@@V?$allocator@D@2@@std@@@2@@std@@QEAAAEAV?$basic_string@DU?$char_traits@D@std@@V?$allocator@D@2@@1@_K@Z DB 060H
	DD	imagerel $ip2state$??A?$vector@V?$basic_string@DU?$char_traits@D@std@@V?$allocator@D@2@@std@@V?$allocator@V?$basic_string@DU?$char_traits@D@std@@V?$allocator@D@2@@std@@@2@@std@@QEAAAEAV?$basic_string@DU?$char_traits@D@std@@V?$allocator@D@2@@1@_K@Z
xdata	ENDS
;	COMDAT xdata
xdata	SEGMENT
$unwind$??A?$vector@V?$basic_string@DU?$char_traits@D@std@@V?$allocator@D@2@@std@@V?$allocator@V?$basic_string@DU?$char_traits@D@std@@V?$allocator@D@2@@std@@@2@@std@@QEAAAEAV?$basic_string@DU?$char_traits@D@std@@V?$allocator@D@2@@1@_K@Z DD 035052f19H
	DD	01133318H
	DD	0700c0023H
	DD	0500bH
	DD	imagerel __CxxFrameHandler4
	DD	imagerel $cppxdata$??A?$vector@V?$basic_string@DU?$char_traits@D@std@@V?$allocator@D@2@@std@@V?$allocator@V?$basic_string@DU?$char_traits@D@std@@V?$allocator@D@2@@std@@@2@@std@@QEAAAEAV?$basic_string@DU?$char_traits@D@std@@V?$allocator@D@2@@1@_K@Z
xdata	ENDS
;	COMDAT xdata
xdata	SEGMENT
$ip2state$??1?$vector@V?$basic_string@DU?$char_traits@D@std@@V?$allocator@D@2@@std@@V?$allocator@V?$basic_string@DU?$char_traits@D@std@@V?$allocator@D@2@@std@@@2@@std@@QEAA@XZ DB 02H
	DB	00H
	DB	00H
xdata	ENDS
;	COMDAT xdata
xdata	SEGMENT
$cppxdata$??1?$vector@V?$basic_string@DU?$char_traits@D@std@@V?$allocator@D@2@@std@@V?$allocator@V?$basic_string@DU?$char_traits@D@std@@V?$allocator@D@2@@std@@@2@@std@@QEAA@XZ DB 060H
	DD	imagerel $ip2state$??1?$vector@V?$basic_string@DU?$char_traits@D@std@@V?$allocator@D@2@@std@@V?$allocator@V?$basic_string@DU?$char_traits@D@std@@V?$allocator@D@2@@std@@@2@@std@@QEAA@XZ
xdata	ENDS
;	COMDAT xdata
xdata	SEGMENT
$unwind$??1?$vector@V?$basic_string@DU?$char_traits@D@std@@V?$allocator@D@2@@std@@V?$allocator@V?$basic_string@DU?$char_traits@D@std@@V?$allocator@D@2@@std@@@2@@std@@QEAA@XZ DD 025053b19H
	DD	010e2313H
	DD	070070029H
	DD	05006H
	DD	imagerel __GSHandlerCheck_EH4
	DD	imagerel $cppxdata$??1?$vector@V?$basic_string@DU?$char_traits@D@std@@V?$allocator@D@2@@std@@V?$allocator@V?$basic_string@DU?$char_traits@D@std@@V?$allocator@D@2@@std@@@2@@std@@QEAA@XZ
	DD	013bH
xdata	ENDS
;	COMDAT CONST
CONST	SEGMENT
??1?$vector@V?$basic_string@DU?$char_traits@D@std@@V?$allocator@D@2@@std@@V?$allocator@V?$basic_string@DU?$char_traits@D@std@@V?$allocator@D@2@@std@@@2@@std@@QEAA@XZ$rtcName$0 DB 024H ; std::vector<std::basic_string<char,std::char_traits<char>,std::allocator<char> >,std::allocator<std::basic_string<char,std::char_traits<char>,std::allocator<char> > > >::~vector<std::basic_string<char,std::char_traits<char>,std::allocator<char> >,std::allocator<std::basic_string<char,std::char_traits<char>,std::allocator<char> > > >
	DB	053H
	DB	033H
	DB	00H
	ORG $+12
??1?$vector@V?$basic_string@DU?$char_traits@D@std@@V?$allocator@D@2@@std@@V?$allocator@V?$basic_string@DU?$char_traits@D@std@@V?$allocator@D@2@@std@@@2@@std@@QEAA@XZ$rtcVarDesc DD 044H ; std::vector<std::basic_string<char,std::char_traits<char>,std::allocator<char> >,std::allocator<std::basic_string<char,std::char_traits<char>,std::allocator<char> > > >::~vector<std::basic_string<char,std::char_traits<char>,std::allocator<char> >,std::allocator<std::basic_string<char,std::char_traits<char>,std::allocator<char> > > >
	DD	01H
	DQ	FLAT:??1?$vector@V?$basic_string@DU?$char_traits@D@std@@V?$allocator@D@2@@std@@V?$allocator@V?$basic_string@DU?$char_traits@D@std@@V?$allocator@D@2@@std@@@2@@std@@QEAA@XZ$rtcName$0
	ORG $+48
??1?$vector@V?$basic_string@DU?$char_traits@D@std@@V?$allocator@D@2@@std@@V?$allocator@V?$basic_string@DU?$char_traits@D@std@@V?$allocator@D@2@@std@@@2@@std@@QEAA@XZ$rtcFrameData DD 01H ; std::vector<std::basic_string<char,std::char_traits<char>,std::allocator<char> >,std::allocator<std::basic_string<char,std::char_traits<char>,std::allocator<char> > > >::~vector<std::basic_string<char,std::char_traits<char>,std::allocator<char> >,std::allocator<std::basic_string<char,std::char_traits<char>,std::allocator<char> > > >
	DD	00H
	DQ	FLAT:??1?$vector@V?$basic_string@DU?$char_traits@D@std@@V?$allocator@D@2@@std@@V?$allocator@V?$basic_string@DU?$char_traits@D@std@@V?$allocator@D@2@@std@@@2@@std@@QEAA@XZ$rtcVarDesc
CONST	ENDS
;	COMDAT xdata
xdata	SEGMENT
$unwind$?deallocate@?$allocator@V?$basic_string@DU?$char_traits@D@std@@V?$allocator@D@2@@std@@@std@@QEAAXQEAV?$basic_string@DU?$char_traits@D@std@@V?$allocator@D@2@@2@_K@Z DD 025053401H
	DD	0118231dH
	DD	07011001dH
	DD	05010H
xdata	ENDS
;	COMDAT xdata
xdata	SEGMENT
$unwind$??_G?$basic_string@DU?$char_traits@D@std@@V?$allocator@D@2@@std@@QEAAPEAXI@Z DD 025052e01H
	DD	01122317H
	DD	0700b001dH
	DD	0500aH
xdata	ENDS
;	COMDAT xdata
xdata	SEGMENT
$unwind$??1?$_Compressed_pair@V?$allocator@D@std@@V?$_String_val@U?$_Simple_types@D@std@@@2@$00@std@@QEAA@XZ DD 025052a01H
	DD	010e2313H
	DD	07007001dH
	DD	05006H
xdata	ENDS
;	COMDAT xdata
xdata	SEGMENT
$ip2state$?_Get_first@?$_Compressed_pair@V?$allocator@D@std@@V?$_String_val@U?$_Simple_types@D@std@@@2@$00@std@@QEAAAEAV?$allocator@D@2@XZ DB 02H
	DB	00H
	DB	00H
xdata	ENDS
;	COMDAT xdata
xdata	SEGMENT
$cppxdata$?_Get_first@?$_Compressed_pair@V?$allocator@D@std@@V?$_String_val@U?$_Simple_types@D@std@@@2@$00@std@@QEAAAEAV?$allocator@D@2@XZ DB 060H
	DD	imagerel $ip2state$?_Get_first@?$_Compressed_pair@V?$allocator@D@std@@V?$_String_val@U?$_Simple_types@D@std@@@2@$00@std@@QEAAAEAV?$allocator@D@2@XZ
xdata	ENDS
;	COMDAT xdata
xdata	SEGMENT
$unwind$?_Get_first@?$_Compressed_pair@V?$allocator@D@std@@V?$_String_val@U?$_Simple_types@D@std@@@2@$00@std@@QEAAAEAV?$allocator@D@2@XZ DD 025052a19H
	DD	010e2313H
	DD	07007001dH
	DD	05006H
	DD	imagerel __CxxFrameHandler4
	DD	imagerel $cppxdata$?_Get_first@?$_Compressed_pair@V?$allocator@D@std@@V?$_String_val@U?$_Simple_types@D@std@@@2@$00@std@@QEAAAEAV?$allocator@D@2@XZ
xdata	ENDS
;	COMDAT xdata
xdata	SEGMENT
$ip2state$?_Getal@?$basic_string@DU?$char_traits@D@std@@V?$allocator@D@2@@std@@AEAAAEAV?$allocator@D@2@XZ DB 02H
	DB	00H
	DB	00H
xdata	ENDS
;	COMDAT xdata
xdata	SEGMENT
$cppxdata$?_Getal@?$basic_string@DU?$char_traits@D@std@@V?$allocator@D@2@@std@@AEAAAEAV?$allocator@D@2@XZ DB 060H
	DD	imagerel $ip2state$?_Getal@?$basic_string@DU?$char_traits@D@std@@V?$allocator@D@2@@std@@AEAAAEAV?$allocator@D@2@XZ
xdata	ENDS
;	COMDAT xdata
xdata	SEGMENT
$unwind$?_Getal@?$basic_string@DU?$char_traits@D@std@@V?$allocator@D@2@@std@@AEAAAEAV?$allocator@D@2@XZ DD 025052a19H
	DD	010e2313H
	DD	07007001dH
	DD	05006H
	DD	imagerel __CxxFrameHandler4
	DD	imagerel $cppxdata$?_Getal@?$basic_string@DU?$char_traits@D@std@@V?$allocator@D@2@@std@@AEAAAEAV?$allocator@D@2@XZ
xdata	ENDS
;	COMDAT xdata
xdata	SEGMENT
$ip2state$?_Tidy_deallocate@?$basic_string@DU?$char_traits@D@std@@V?$allocator@D@2@@std@@AEAAXXZ DB 02H
	DB	00H
	DB	00H
xdata	ENDS
;	COMDAT xdata
xdata	SEGMENT
$cppxdata$?_Tidy_deallocate@?$basic_string@DU?$char_traits@D@std@@V?$allocator@D@2@@std@@AEAAXXZ DB 060H
	DD	imagerel $ip2state$?_Tidy_deallocate@?$basic_string@DU?$char_traits@D@std@@V?$allocator@D@2@@std@@AEAAXXZ
xdata	ENDS
;	COMDAT xdata
xdata	SEGMENT
$unwind$?_Tidy_deallocate@?$basic_string@DU?$char_traits@D@std@@V?$allocator@D@2@@std@@AEAAXXZ DD 025052a19H
	DD	010e2313H
	DD	070070029H
	DD	05006H
	DD	imagerel __CxxFrameHandler4
	DD	imagerel $cppxdata$?_Tidy_deallocate@?$basic_string@DU?$char_traits@D@std@@V?$allocator@D@2@@std@@AEAAXXZ
xdata	ENDS
;	COMDAT xdata
xdata	SEGMENT
$ip2state$?_Equal@?$basic_string@DU?$char_traits@D@std@@V?$allocator@D@2@@std@@QEBA_NQEBD@Z DB 02H
	DB	00H
	DB	00H
xdata	ENDS
;	COMDAT xdata
xdata	SEGMENT
$cppxdata$?_Equal@?$basic_string@DU?$char_traits@D@std@@V?$allocator@D@2@@std@@QEBA_NQEBD@Z DB 060H
	DD	imagerel $ip2state$?_Equal@?$basic_string@DU?$char_traits@D@std@@V?$allocator@D@2@@std@@QEBA_NQEBD@Z
xdata	ENDS
;	COMDAT xdata
xdata	SEGMENT
$unwind$?_Equal@?$basic_string@DU?$char_traits@D@std@@V?$allocator@D@2@@std@@QEBA_NQEBD@Z DD 025052f19H
	DD	01132318H
	DD	0700c0021H
	DD	0500bH
	DD	imagerel __CxxFrameHandler4
	DD	imagerel $cppxdata$?_Equal@?$basic_string@DU?$char_traits@D@std@@V?$allocator@D@2@@std@@QEBA_NQEBD@Z
xdata	ENDS
;	COMDAT xdata
xdata	SEGMENT
$ip2state$??1?$basic_string@DU?$char_traits@D@std@@V?$allocator@D@2@@std@@QEAA@XZ DB 02H
	DB	00H
	DB	00H
xdata	ENDS
;	COMDAT xdata
xdata	SEGMENT
$cppxdata$??1?$basic_string@DU?$char_traits@D@std@@V?$allocator@D@2@@std@@QEAA@XZ DB 060H
	DD	imagerel $ip2state$??1?$basic_string@DU?$char_traits@D@std@@V?$allocator@D@2@@std@@QEAA@XZ
xdata	ENDS
;	COMDAT xdata
xdata	SEGMENT
$unwind$??1?$basic_string@DU?$char_traits@D@std@@V?$allocator@D@2@@std@@QEAA@XZ DD 025053b19H
	DD	010e2313H
	DD	070070029H
	DD	05006H
	DD	imagerel __GSHandlerCheck_EH4
	DD	imagerel $cppxdata$??1?$basic_string@DU?$char_traits@D@std@@V?$allocator@D@2@@std@@QEAA@XZ
	DD	013bH
xdata	ENDS
;	COMDAT CONST
CONST	SEGMENT
??1?$basic_string@DU?$char_traits@D@std@@V?$allocator@D@2@@std@@QEAA@XZ$rtcName$0 DB 024H ; std::basic_string<char,std::char_traits<char>,std::allocator<char> >::~basic_string<char,std::char_traits<char>,std::allocator<char> >
	DB	053H
	DB	031H
	DB	031H
	DB	00H
	ORG $+11
??1?$basic_string@DU?$char_traits@D@std@@V?$allocator@D@2@@std@@QEAA@XZ$rtcVarDesc DD 044H ; std::basic_string<char,std::char_traits<char>,std::allocator<char> >::~basic_string<char,std::char_traits<char>,std::allocator<char> >
	DD	01H
	DQ	FLAT:??1?$basic_string@DU?$char_traits@D@std@@V?$allocator@D@2@@std@@QEAA@XZ$rtcName$0
	ORG $+48
??1?$basic_string@DU?$char_traits@D@std@@V?$allocator@D@2@@std@@QEAA@XZ$rtcFrameData DD 01H ; std::basic_string<char,std::char_traits<char>,std::allocator<char> >::~basic_string<char,std::char_traits<char>,std::allocator<char> >
	DD	00H
	DQ	FLAT:??1?$basic_string@DU?$char_traits@D@std@@V?$allocator@D@2@@std@@QEAA@XZ$rtcVarDesc
CONST	ENDS
;	COMDAT xdata
xdata	SEGMENT
$unwind$??1?$_String_val@U?$_Simple_types@D@std@@@std@@QEAA@XZ DD 025052a01H
	DD	010e2313H
	DD	07007001dH
	DD	05006H
xdata	ENDS
;	COMDAT xdata
xdata	SEGMENT
$ip2state$??1_Bxty@?$_String_val@U?$_Simple_types@D@std@@@std@@QEAA@XZ DB 02H
	DB	00H
	DB	00H
xdata	ENDS
;	COMDAT xdata
xdata	SEGMENT
$cppxdata$??1_Bxty@?$_String_val@U?$_Simple_types@D@std@@@std@@QEAA@XZ DB 060H
	DD	imagerel $ip2state$??1_Bxty@?$_String_val@U?$_Simple_types@D@std@@@std@@QEAA@XZ
xdata	ENDS
;	COMDAT xdata
xdata	SEGMENT
$unwind$??1_Bxty@?$_String_val@U?$_Simple_types@D@std@@@std@@QEAA@XZ DD 025052a19H
	DD	010e2313H
	DD	07007001dH
	DD	05006H
	DD	imagerel __CxxFrameHandler4
	DD	imagerel $cppxdata$??1_Bxty@?$_String_val@U?$_Simple_types@D@std@@@std@@QEAA@XZ
xdata	ENDS
;	COMDAT xdata
xdata	SEGMENT
$ip2state$?_Large_string_engaged@?$_String_val@U?$_Simple_types@D@std@@@std@@QEBA_NXZ DB 02H
	DB	00H
	DB	00H
xdata	ENDS
;	COMDAT xdata
xdata	SEGMENT
$cppxdata$?_Large_string_engaged@?$_String_val@U?$_Simple_types@D@std@@@std@@QEBA_NXZ DB 060H
	DD	imagerel $ip2state$?_Large_string_engaged@?$_String_val@U?$_Simple_types@D@std@@@std@@QEBA_NXZ
xdata	ENDS
;	COMDAT xdata
xdata	SEGMENT
$unwind$?_Large_string_engaged@?$_String_val@U?$_Simple_types@D@std@@@std@@QEBA_NXZ DD 025052a19H
	DD	010e2313H
	DD	07007001fH
	DD	05006H
	DD	imagerel __CxxFrameHandler4
	DD	imagerel $cppxdata$?_Large_string_engaged@?$_String_val@U?$_Simple_types@D@std@@@std@@QEBA_NXZ
xdata	ENDS
;	COMDAT xdata
xdata	SEGMENT
$ip2state$?_Myptr@?$_String_val@U?$_Simple_types@D@std@@@std@@QEBAPEBDXZ DB 02H
	DB	00H
	DB	00H
xdata	ENDS
;	COMDAT xdata
xdata	SEGMENT
$cppxdata$?_Myptr@?$_String_val@U?$_Simple_types@D@std@@@std@@QEBAPEBDXZ DB 060H
	DD	imagerel $ip2state$?_Myptr@?$_String_val@U?$_Simple_types@D@std@@@std@@QEBAPEBDXZ
xdata	ENDS
;	COMDAT xdata
xdata	SEGMENT
$unwind$?_Myptr@?$_String_val@U?$_Simple_types@D@std@@@std@@QEBAPEBDXZ DD 025052a19H
	DD	010e2313H
	DD	070070021H
	DD	05006H
	DD	imagerel __CxxFrameHandler4
	DD	imagerel $cppxdata$?_Myptr@?$_String_val@U?$_Simple_types@D@std@@@std@@QEBAPEBDXZ
xdata	ENDS
;	COMDAT xdata
xdata	SEGMENT
$ip2state$?assign@?$_Narrow_char_traits@DH@std@@SAXAEADAEBD@Z DB 02H
	DB	00H
	DB	00H
xdata	ENDS
;	COMDAT xdata
xdata	SEGMENT
$cppxdata$?assign@?$_Narrow_char_traits@DH@std@@SAXAEADAEBD@Z DB 060H
	DD	imagerel $ip2state$?assign@?$_Narrow_char_traits@DH@std@@SAXAEADAEBD@Z
xdata	ENDS
;	COMDAT xdata
xdata	SEGMENT
$unwind$?assign@?$_Narrow_char_traits@DH@std@@SAXAEADAEBD@Z DD 025052f19H
	DD	01132318H
	DD	0700c001dH
	DD	0500bH
	DD	imagerel __CxxFrameHandler4
	DD	imagerel $cppxdata$?assign@?$_Narrow_char_traits@DH@std@@SAXAEADAEBD@Z
xdata	ENDS
;	COMDAT xdata
xdata	SEGMENT
$ip2state$?length@?$_Narrow_char_traits@DH@std@@SA_KQEBD@Z DB 02H
	DB	00H
	DB	00H
xdata	ENDS
;	COMDAT xdata
xdata	SEGMENT
$cppxdata$?length@?$_Narrow_char_traits@DH@std@@SA_KQEBD@Z DB 060H
	DD	imagerel $ip2state$?length@?$_Narrow_char_traits@DH@std@@SA_KQEBD@Z
xdata	ENDS
;	COMDAT xdata
xdata	SEGMENT
$unwind$?length@?$_Narrow_char_traits@DH@std@@SA_KQEBD@Z DD 025052a19H
	DD	010e2313H
	DD	07007001fH
	DD	05006H
	DD	imagerel __CxxFrameHandler4
	DD	imagerel $cppxdata$?length@?$_Narrow_char_traits@DH@std@@SA_KQEBD@Z
xdata	ENDS
;	COMDAT xdata
xdata	SEGMENT
$ip2state$?compare@?$_Narrow_char_traits@DH@std@@SAHQEBD0_K@Z DB 02H
	DB	00H
	DB	00H
xdata	ENDS
;	COMDAT xdata
xdata	SEGMENT
$cppxdata$?compare@?$_Narrow_char_traits@DH@std@@SAHQEBD0_K@Z DB 060H
	DD	imagerel $ip2state$?compare@?$_Narrow_char_traits@DH@std@@SAHQEBD0_K@Z
xdata	ENDS
;	COMDAT xdata
xdata	SEGMENT
$unwind$?compare@?$_Narrow_char_traits@DH@std@@SAHQEBD0_K@Z DD 025053419H
	DD	0118231dH
	DD	07011001dH
	DD	05010H
	DD	imagerel __CxxFrameHandler4
	DD	imagerel $cppxdata$?compare@?$_Narrow_char_traits@DH@std@@SAHQEBD0_K@Z
xdata	ENDS
;	COMDAT xdata
xdata	SEGMENT
$unwind$?deallocate@?$allocator@D@std@@QEAAXQEAD_K@Z DD 025053401H
	DD	0118231dH
	DD	07011001dH
	DD	05010H
xdata	ENDS
;	COMDAT xdata
xdata	SEGMENT
$ip2state$?_Orphan_all@_Container_base12@std@@QEAAXXZ DB 02H
	DB	00H
	DB	00H
xdata	ENDS
;	COMDAT xdata
xdata	SEGMENT
$cppxdata$?_Orphan_all@_Container_base12@std@@QEAAXXZ DB 060H
	DD	imagerel $ip2state$?_Orphan_all@_Container_base12@std@@QEAAXXZ
xdata	ENDS
;	COMDAT xdata
xdata	SEGMENT
$unwind$?_Orphan_all@_Container_base12@std@@QEAAXXZ DD 025053b19H
	DD	010e2313H
	DD	070070025H
	DD	05006H
	DD	imagerel __GSHandlerCheck_EH4
	DD	imagerel $cppxdata$?_Orphan_all@_Container_base12@std@@QEAAXXZ
	DD	011bH
xdata	ENDS
;	COMDAT CONST
CONST	SEGMENT
?_Orphan_all@_Container_base12@std@@QEAAXXZ$rtcName$0 DB 05fH ; std::_Container_base12::_Orphan_all
	DB	04cH
	DB	06fH
	DB	063H
	DB	06bH
	DB	00H
	ORG $+10
?_Orphan_all@_Container_base12@std@@QEAAXXZ$rtcVarDesc DD 024H ; std::_Container_base12::_Orphan_all
	DD	04H
	DQ	FLAT:?_Orphan_all@_Container_base12@std@@QEAAXXZ$rtcName$0
	ORG $+48
?_Orphan_all@_Container_base12@std@@QEAAXXZ$rtcFrameData DD 01H ; std::_Container_base12::_Orphan_all
	DD	00H
	DQ	FLAT:?_Orphan_all@_Container_base12@std@@QEAAXXZ$rtcVarDesc
CONST	ENDS
;	COMDAT xdata
xdata	SEGMENT
$unwind$?_Adjust_manually_vector_aligned@std@@YAXAEAPEAXAEA_K@Z DD 035052f01H
	DD	01133318H
	DD	0700c002fH
	DD	0500bH
xdata	ENDS
;	COMDAT xdata
xdata	SEGMENT
$ip2state$?__empty_global_delete@@YAXPEAX_KW4align_val_t@std@@@Z DB 02H
	DB	00H
	DB	00H
xdata	ENDS
;	COMDAT xdata
xdata	SEGMENT
$cppxdata$?__empty_global_delete@@YAXPEAX_KW4align_val_t@std@@@Z DB 060H
	DD	imagerel $ip2state$?__empty_global_delete@@YAXPEAX_KW4align_val_t@std@@@Z
xdata	ENDS
;	COMDAT xdata
xdata	SEGMENT
$unwind$?__empty_global_delete@@YAXPEAX_KW4align_val_t@std@@@Z DD 025053419H
	DD	0118231dH
	DD	07011001dH
	DD	05010H
	DD	imagerel __CxxFrameHandler4
	DD	imagerel $cppxdata$?__empty_global_delete@@YAXPEAX_KW4align_val_t@std@@@Z
xdata	ENDS
;	COMDAT xdata
xdata	SEGMENT
$ip2state$?__empty_global_delete@@YAXPEAXW4align_val_t@std@@@Z DB 02H
	DB	00H
	DB	00H
xdata	ENDS
;	COMDAT xdata
xdata	SEGMENT
$cppxdata$?__empty_global_delete@@YAXPEAXW4align_val_t@std@@@Z DB 060H
	DD	imagerel $ip2state$?__empty_global_delete@@YAXPEAXW4align_val_t@std@@@Z
xdata	ENDS
;	COMDAT xdata
xdata	SEGMENT
$unwind$?__empty_global_delete@@YAXPEAXW4align_val_t@std@@@Z DD 025052f19H
	DD	01132318H
	DD	0700c001dH
	DD	0500bH
	DD	imagerel __CxxFrameHandler4
	DD	imagerel $cppxdata$?__empty_global_delete@@YAXPEAXW4align_val_t@std@@@Z
xdata	ENDS
;	COMDAT xdata
xdata	SEGMENT
$ip2state$?__empty_global_delete@@YAXPEAX_K@Z DB 02H
	DB	00H
	DB	00H
xdata	ENDS
;	COMDAT xdata
xdata	SEGMENT
$cppxdata$?__empty_global_delete@@YAXPEAX_K@Z DB 060H
	DD	imagerel $ip2state$?__empty_global_delete@@YAXPEAX_K@Z
xdata	ENDS
;	COMDAT xdata
xdata	SEGMENT
$unwind$?__empty_global_delete@@YAXPEAX_K@Z DD 025052f19H
	DD	01132318H
	DD	0700c001dH
	DD	0500bH
	DD	imagerel __CxxFrameHandler4
	DD	imagerel $cppxdata$?__empty_global_delete@@YAXPEAX_K@Z
xdata	ENDS
;	COMDAT xdata
xdata	SEGMENT
$ip2state$?__empty_global_delete@@YAXPEAX@Z DB 02H
	DB	00H
	DB	00H
xdata	ENDS
;	COMDAT xdata
xdata	SEGMENT
$cppxdata$?__empty_global_delete@@YAXPEAX@Z DB 060H
	DD	imagerel $ip2state$?__empty_global_delete@@YAXPEAX@Z
xdata	ENDS
;	COMDAT xdata
xdata	SEGMENT
$unwind$?__empty_global_delete@@YAXPEAX@Z DD 025052a19H
	DD	010e2313H
	DD	07007001dH
	DD	05006H
	DD	imagerel __CxxFrameHandler4
	DD	imagerel $cppxdata$?__empty_global_delete@@YAXPEAX@Z
xdata	ENDS
; Function compile flags: /Odt
;	COMDAT __JustMyCode_Default
_TEXT	SEGMENT
__JustMyCode_Default PROC				; COMDAT
	ret	0
__JustMyCode_Default ENDP
_TEXT	ENDS
; Function compile flags: /Odtp /RTCsu /ZI
; File C:\Program Files (x86)\Microsoft Visual Studio\2019\Community\VC\Tools\MSVC\14.27.29110\include\type_traits
;	COMDAT ??$forward@AEAPEAUProductManagement@Product@Domain@@@std@@YAAEAPEAUProductManagement@Product@Domain@@AEAPEAU123@@Z
_TEXT	SEGMENT
_Arg$ = 224
??$forward@AEAPEAUProductManagement@Product@Domain@@@std@@YAAEAPEAUProductManagement@Product@Domain@@AEAPEAU123@@Z PROC ; std::forward<Domain::Product::ProductManagement * &>, COMDAT

; 1454 :     remove_reference_t<_Ty>& _Arg) noexcept { // forward an lvalue as either an lvalue or an rvalue

$LN3:
	mov	QWORD PTR [rsp+8], rcx
	push	rbp
	push	rdi
	sub	rsp, 232				; 000000e8H
	lea	rbp, QWORD PTR [rsp+32]
	mov	rdi, rsp
	mov	ecx, 58					; 0000003aH
	mov	eax, -858993460				; ccccccccH
	rep stosd
	mov	rcx, QWORD PTR [rsp+264]
	lea	rcx, OFFSET FLAT:__85A9AA98_type_traits
	call	__CheckForDebuggerJustMyCode

; 1455 :     return static_cast<_Ty&&>(_Arg);

	mov	rax, QWORD PTR _Arg$[rbp]

; 1456 : }

	lea	rsp, QWORD PTR [rbp+200]
	pop	rdi
	pop	rbp
	ret	0
??$forward@AEAPEAUProductManagement@Product@Domain@@@std@@YAAEAPEAUProductManagement@Product@Domain@@AEAPEAU123@@Z ENDP ; std::forward<Domain::Product::ProductManagement * &>
_TEXT	ENDS
; Function compile flags: /Odtp /RTCsu /ZI
; File C:\Program Files (x86)\Microsoft Visual Studio\2019\Community\VC\Tools\MSVC\14.27.29110\include\xmemory
;	COMDAT ?deallocate@?$_Default_allocator_traits@V?$allocator@U_Container_proxy@std@@@std@@@std@@SAXAEAV?$allocator@U_Container_proxy@std@@@2@QEAU_Container_proxy@2@_K@Z
_TEXT	SEGMENT
__formal$ = 224
_Ptr$ = 232
_Count$ = 240
?deallocate@?$_Default_allocator_traits@V?$allocator@U_Container_proxy@std@@@std@@@std@@SAXAEAV?$allocator@U_Container_proxy@std@@@2@QEAU_Container_proxy@2@_K@Z PROC ; std::_Default_allocator_traits<std::allocator<std::_Container_proxy> >::deallocate, COMDAT

; 687  :     static void deallocate(_Alloc&, const pointer _Ptr, const size_type _Count) {

$LN3:
	mov	QWORD PTR [rsp+24], r8
	mov	QWORD PTR [rsp+16], rdx
	mov	QWORD PTR [rsp+8], rcx
	push	rbp
	push	rdi
	sub	rsp, 232				; 000000e8H
	lea	rbp, QWORD PTR [rsp+32]
	mov	rdi, rsp
	mov	ecx, 58					; 0000003aH
	mov	eax, -858993460				; ccccccccH
	rep stosd
	mov	rcx, QWORD PTR [rsp+264]
	lea	rcx, OFFSET FLAT:__A58979FC_xmemory
	call	__CheckForDebuggerJustMyCode

; 688  :         // no overflow check on the following multiply; we assume _Allocate did that check
; 689  :         _Deallocate<_New_alignof<value_type>>(_Ptr, sizeof(value_type) * _Count);

	imul	rax, QWORD PTR _Count$[rbp], 16
	mov	rdx, rax
	mov	rcx, QWORD PTR _Ptr$[rbp]
	call	??$_Deallocate@$0BA@$0A@@std@@YAXPEAX_K@Z ; std::_Deallocate<16,0>

; 690  :     }

	lea	rsp, QWORD PTR [rbp+200]
	pop	rdi
	pop	rbp
	ret	0
?deallocate@?$_Default_allocator_traits@V?$allocator@U_Container_proxy@std@@@std@@@std@@SAXAEAV?$allocator@U_Container_proxy@std@@@2@QEAU_Container_proxy@2@_K@Z ENDP ; std::_Default_allocator_traits<std::allocator<std::_Container_proxy> >::deallocate
_TEXT	ENDS
; Function compile flags: /Odtp /RTCsu /ZI
; File C:\Program Files (x86)\Microsoft Visual Studio\2019\Community\VC\Tools\MSVC\14.27.29110\include\type_traits
;	COMDAT ??$forward@PEAUProductManagement@Product@Domain@@@std@@YA$$QEAPEAUProductManagement@Product@Domain@@AEAPEAU123@@Z
_TEXT	SEGMENT
_Arg$ = 224
??$forward@PEAUProductManagement@Product@Domain@@@std@@YA$$QEAPEAUProductManagement@Product@Domain@@AEAPEAU123@@Z PROC ; std::forward<Domain::Product::ProductManagement *>, COMDAT

; 1454 :     remove_reference_t<_Ty>& _Arg) noexcept { // forward an lvalue as either an lvalue or an rvalue

$LN3:
	mov	QWORD PTR [rsp+8], rcx
	push	rbp
	push	rdi
	sub	rsp, 232				; 000000e8H
	lea	rbp, QWORD PTR [rsp+32]
	mov	rdi, rsp
	mov	ecx, 58					; 0000003aH
	mov	eax, -858993460				; ccccccccH
	rep stosd
	mov	rcx, QWORD PTR [rsp+264]
	lea	rcx, OFFSET FLAT:__85A9AA98_type_traits
	call	__CheckForDebuggerJustMyCode

; 1455 :     return static_cast<_Ty&&>(_Arg);

	mov	rax, QWORD PTR _Arg$[rbp]

; 1456 : }

	lea	rsp, QWORD PTR [rbp+200]
	pop	rdi
	pop	rbp
	ret	0
??$forward@PEAUProductManagement@Product@Domain@@@std@@YA$$QEAPEAUProductManagement@Product@Domain@@AEAPEAU123@@Z ENDP ; std::forward<Domain::Product::ProductManagement *>
_TEXT	ENDS
; Function compile flags: /Odtp /RTCsu /ZI
; File C:\Program Files (x86)\Microsoft Visual Studio\2019\Community\VC\Tools\MSVC\14.27.29110\include\xmemory
;	COMDAT ??$?0AEAPEAUProductManagement@Product@Domain@@@?$_Compressed_pair@U?$default_delete@UProductManagement@Product@Domain@@@std@@PEAUProductManagement@Product@Domain@@$00@std@@QEAA@U_Zero_then_variadic_args_t@1@AEAPEAUProductManagement@Product@Domain@@@Z
_TEXT	SEGMENT
this$ = 224
__formal$ = 232
<_Val2_0>$ = 240
??$?0AEAPEAUProductManagement@Product@Domain@@@?$_Compressed_pair@U?$default_delete@UProductManagement@Product@Domain@@@std@@PEAUProductManagement@Product@Domain@@$00@std@@QEAA@U_Zero_then_variadic_args_t@1@AEAPEAUProductManagement@Product@Domain@@@Z PROC ; std::_Compressed_pair<std::default_delete<Domain::Product::ProductManagement>,Domain::Product::ProductManagement *,1>::_Compressed_pair<std::default_delete<Domain::Product::ProductManagement>,Domain::Product::ProductManagement *,1><Domain::Product::ProductManagement * &>, COMDAT

; 1336 :         : _Ty1(), _Myval2(_STD forward<_Other2>(_Val2)...) {}

$LN3:
	mov	QWORD PTR [rsp+24], r8
	mov	BYTE PTR [rsp+16], dl
	mov	QWORD PTR [rsp+8], rcx
	push	rbp
	push	rdi
	sub	rsp, 232				; 000000e8H
	lea	rbp, QWORD PTR [rsp+32]
	mov	rdi, rsp
	mov	ecx, 58					; 0000003aH
	mov	eax, -858993460				; ccccccccH
	rep stosd
	mov	rcx, QWORD PTR [rsp+264]
	lea	rcx, OFFSET FLAT:__A58979FC_xmemory
	call	__CheckForDebuggerJustMyCode
	mov	rcx, QWORD PTR <_Val2_0>$[rbp]
	call	??$forward@AEAPEAUProductManagement@Product@Domain@@@std@@YAAEAPEAUProductManagement@Product@Domain@@AEAPEAU123@@Z ; std::forward<Domain::Product::ProductManagement * &>
	mov	rcx, QWORD PTR this$[rbp]
	mov	rax, QWORD PTR [rax]
	mov	QWORD PTR [rcx], rax
	mov	rax, QWORD PTR this$[rbp]
	lea	rsp, QWORD PTR [rbp+200]
	pop	rdi
	pop	rbp
	ret	0
??$?0AEAPEAUProductManagement@Product@Domain@@@?$_Compressed_pair@U?$default_delete@UProductManagement@Product@Domain@@@std@@PEAUProductManagement@Product@Domain@@$00@std@@QEAA@U_Zero_then_variadic_args_t@1@AEAPEAUProductManagement@Product@Domain@@@Z ENDP ; std::_Compressed_pair<std::default_delete<Domain::Product::ProductManagement>,Domain::Product::ProductManagement *,1>::_Compressed_pair<std::default_delete<Domain::Product::ProductManagement>,Domain::Product::ProductManagement *,1><Domain::Product::ProductManagement * &>
_TEXT	ENDS
; Function compile flags: /Odtp /RTCsu /ZI
; File C:\Program Files (x86)\Microsoft Visual Studio\2019\Community\VC\Tools\MSVC\14.27.29110\include\xstring
;	COMDAT ??$_Traits_equal@U?$char_traits@D@std@@@std@@YA_NQEBD_K01@Z
_TEXT	SEGMENT
tv70 = 192
_Left$ = 240
_Left_size$ = 248
_Right$ = 256
_Right_size$ = 264
??$_Traits_equal@U?$char_traits@D@std@@@std@@YA_NQEBD_K01@Z PROC ; std::_Traits_equal<std::char_traits<char> >, COMDAT

; 502  :     _In_reads_(_Right_size) const _Traits_ptr_t<_Traits> _Right, const size_t _Right_size) noexcept {

$LN5:
	mov	QWORD PTR [rsp+32], r9
	mov	QWORD PTR [rsp+24], r8
	mov	QWORD PTR [rsp+16], rdx
	mov	QWORD PTR [rsp+8], rcx
	push	rbp
	push	rdi
	sub	rsp, 248				; 000000f8H
	lea	rbp, QWORD PTR [rsp+32]
	mov	rdi, rsp
	mov	ecx, 62					; 0000003eH
	mov	eax, -858993460				; ccccccccH
	rep stosd
	mov	rcx, QWORD PTR [rsp+280]
	lea	rcx, OFFSET FLAT:__D15AFF60_xstring
	call	__CheckForDebuggerJustMyCode

; 503  :     // compare [_Left, _Left + _Left_size) to [_Right, _Right + _Right_size) for equality using _Traits
; 504  :     return _Left_size == _Right_size && _Traits::compare(_Left, _Right, _Left_size) == 0;

	mov	rax, QWORD PTR _Right_size$[rbp]
	cmp	QWORD PTR _Left_size$[rbp], rax
	jne	SHORT $LN3@Traits_equ
	mov	r8, QWORD PTR _Left_size$[rbp]
	mov	rdx, QWORD PTR _Right$[rbp]
	mov	rcx, QWORD PTR _Left$[rbp]
	call	?compare@?$_Narrow_char_traits@DH@std@@SAHQEBD0_K@Z ; std::_Narrow_char_traits<char,int>::compare
	test	eax, eax
	jne	SHORT $LN3@Traits_equ
	mov	DWORD PTR tv70[rbp], 1
	jmp	SHORT $LN4@Traits_equ
$LN3@Traits_equ:
	mov	DWORD PTR tv70[rbp], 0
$LN4@Traits_equ:
	movzx	eax, BYTE PTR tv70[rbp]

; 505  : }

	lea	rsp, QWORD PTR [rbp+216]
	pop	rdi
	pop	rbp
	ret	0
??$_Traits_equal@U?$char_traits@D@std@@@std@@YA_NQEBD_K01@Z ENDP ; std::_Traits_equal<std::char_traits<char> >
_TEXT	ENDS
; Function compile flags: /Odtp /RTCsu /ZI
; File C:\Program Files (x86)\Microsoft Visual Studio\2019\Community\VC\Tools\MSVC\14.27.29110\include\utility
;	COMDAT ??$exchange@PEAUProductManagement@Product@Domain@@PEAU123@@std@@YAPEAUProductManagement@Product@Domain@@AEAPEAU123@$$QEAPEAU123@@Z
_TEXT	SEGMENT
_Old_val$ = 8
_Val$ = 256
_New_val$ = 264
??$exchange@PEAUProductManagement@Product@Domain@@PEAU123@@std@@YAPEAUProductManagement@Product@Domain@@AEAPEAU123@$$QEAPEAU123@@Z PROC ; std::exchange<Domain::Product::ProductManagement *,Domain::Product::ProductManagement *>, COMDAT

; 597  :     conjunction_v<is_nothrow_move_constructible<_Ty>, is_nothrow_assignable<_Ty&, _Other>>) /* strengthened */ {

$LN3:
	mov	QWORD PTR [rsp+16], rdx
	mov	QWORD PTR [rsp+8], rcx
	push	rbp
	push	rdi
	sub	rsp, 264				; 00000108H
	lea	rbp, QWORD PTR [rsp+32]
	mov	rdi, rsp
	mov	ecx, 66					; 00000042H
	mov	eax, -858993460				; ccccccccH
	rep stosd
	mov	rcx, QWORD PTR [rsp+296]
	lea	rcx, OFFSET FLAT:__CF1C1A3F_utility
	call	__CheckForDebuggerJustMyCode

; 598  :     // assign _New_val to _Val, return previous _Val
; 599  :     _Ty _Old_val = static_cast<_Ty&&>(_Val);

	mov	rax, QWORD PTR _Val$[rbp]
	mov	rax, QWORD PTR [rax]
	mov	QWORD PTR _Old_val$[rbp], rax

; 600  :     _Val         = static_cast<_Other&&>(_New_val);

	mov	rax, QWORD PTR _Val$[rbp]
	mov	rcx, QWORD PTR _New_val$[rbp]
	mov	rcx, QWORD PTR [rcx]
	mov	QWORD PTR [rax], rcx

; 601  :     return _Old_val;

	mov	rax, QWORD PTR _Old_val$[rbp]

; 602  : }

	lea	rsp, QWORD PTR [rbp+232]
	pop	rdi
	pop	rbp
	ret	0
??$exchange@PEAUProductManagement@Product@Domain@@PEAU123@@std@@YAPEAUProductManagement@Product@Domain@@AEAPEAU123@$$QEAPEAU123@@Z ENDP ; std::exchange<Domain::Product::ProductManagement *,Domain::Product::ProductManagement *>
_TEXT	ENDS
; Function compile flags: /Odtp /RTCsu /ZI
; File C:\Program Files (x86)\Microsoft Visual Studio\2019\Community\VC\Tools\MSVC\14.27.29110\include\xmemory
;	COMDAT ??$destroy@V?$basic_string@DU?$char_traits@D@std@@V?$allocator@D@2@@std@@@?$_Default_allocator_traits@V?$allocator@V?$basic_string@DU?$char_traits@D@std@@V?$allocator@D@2@@std@@@std@@@std@@SAXAEAV?$allocator@V?$basic_string@DU?$char_traits@D@std@@V?$allocator@D@2@@std@@@1@QEAV?$basic_string@DU?$char_traits@D@std@@V?$allocator@D@2@@1@@Z
_TEXT	SEGMENT
__formal$ = 224
_Ptr$ = 232
??$destroy@V?$basic_string@DU?$char_traits@D@std@@V?$allocator@D@2@@std@@@?$_Default_allocator_traits@V?$allocator@V?$basic_string@DU?$char_traits@D@std@@V?$allocator@D@2@@std@@@std@@@std@@SAXAEAV?$allocator@V?$basic_string@DU?$char_traits@D@std@@V?$allocator@D@2@@std@@@1@QEAV?$basic_string@DU?$char_traits@D@std@@V?$allocator@D@2@@1@@Z PROC ; std::_Default_allocator_traits<std::allocator<std::basic_string<char,std::char_traits<char>,std::allocator<char> > > >::destroy<std::basic_string<char,std::char_traits<char>,std::allocator<char> > >, COMDAT

; 698  :     static void destroy(_Alloc&, _Uty* const _Ptr) {

$LN3:
	mov	QWORD PTR [rsp+16], rdx
	mov	QWORD PTR [rsp+8], rcx
	push	rbp
	push	rdi
	sub	rsp, 232				; 000000e8H
	lea	rbp, QWORD PTR [rsp+32]
	mov	rdi, rsp
	mov	ecx, 58					; 0000003aH
	mov	eax, -858993460				; ccccccccH
	rep stosd
	mov	rcx, QWORD PTR [rsp+264]
	lea	rcx, OFFSET FLAT:__A58979FC_xmemory
	call	__CheckForDebuggerJustMyCode

; 699  :         _Ptr->~_Uty();

	xor	edx, edx
	mov	rcx, QWORD PTR _Ptr$[rbp]
	call	??_G?$basic_string@DU?$char_traits@D@std@@V?$allocator@D@2@@std@@QEAAPEAXI@Z

; 700  :     }

	lea	rsp, QWORD PTR [rbp+200]
	pop	rdi
	pop	rbp
	ret	0
??$destroy@V?$basic_string@DU?$char_traits@D@std@@V?$allocator@D@2@@std@@@?$_Default_allocator_traits@V?$allocator@V?$basic_string@DU?$char_traits@D@std@@V?$allocator@D@2@@std@@@std@@@std@@SAXAEAV?$allocator@V?$basic_string@DU?$char_traits@D@std@@V?$allocator@D@2@@std@@@1@QEAV?$basic_string@DU?$char_traits@D@std@@V?$allocator@D@2@@1@@Z ENDP ; std::_Default_allocator_traits<std::allocator<std::basic_string<char,std::char_traits<char>,std::allocator<char> > > >::destroy<std::basic_string<char,std::char_traits<char>,std::allocator<char> > >
_TEXT	ENDS
; Function compile flags: /Odtp /RTCsu /ZI
; File C:\Program Files (x86)\Microsoft Visual Studio\2019\Community\VC\Tools\MSVC\14.27.29110\include\xstddef
;	COMDAT ??$_Unfancy@V?$basic_string@DU?$char_traits@D@std@@V?$allocator@D@2@@std@@@std@@YAPEAV?$basic_string@DU?$char_traits@D@std@@V?$allocator@D@2@@0@PEAV10@@Z
_TEXT	SEGMENT
_Ptr$ = 224
??$_Unfancy@V?$basic_string@DU?$char_traits@D@std@@V?$allocator@D@2@@std@@@std@@YAPEAV?$basic_string@DU?$char_traits@D@std@@V?$allocator@D@2@@0@PEAV10@@Z PROC ; std::_Unfancy<std::basic_string<char,std::char_traits<char>,std::allocator<char> > >, COMDAT

; 288  : _NODISCARD constexpr _Ty* _Unfancy(_Ty* _Ptr) noexcept { // do nothing for plain pointers

$LN3:
	mov	QWORD PTR [rsp+8], rcx
	push	rbp
	push	rdi
	sub	rsp, 232				; 000000e8H
	lea	rbp, QWORD PTR [rsp+32]
	mov	rdi, rsp
	mov	ecx, 58					; 0000003aH
	mov	eax, -858993460				; ccccccccH
	rep stosd
	mov	rcx, QWORD PTR [rsp+264]
	lea	rcx, OFFSET FLAT:__38038D2D_xstddef
	call	__CheckForDebuggerJustMyCode

; 289  :     return _Ptr;

	mov	rax, QWORD PTR _Ptr$[rbp]

; 290  : }

	lea	rsp, QWORD PTR [rbp+200]
	pop	rdi
	pop	rbp
	ret	0
??$_Unfancy@V?$basic_string@DU?$char_traits@D@std@@V?$allocator@D@2@@std@@@std@@YAPEAV?$basic_string@DU?$char_traits@D@std@@V?$allocator@D@2@@0@PEAV10@@Z ENDP ; std::_Unfancy<std::basic_string<char,std::char_traits<char>,std::allocator<char> > >
_TEXT	ENDS
; Function compile flags: /Odtp /RTCsu /ZI
; File C:\Program Files (x86)\Microsoft Visual Studio\2019\Community\VC\Tools\MSVC\14.27.29110\include\xmemory
;	COMDAT ??$_Deallocate_plain@V?$allocator@U_Container_proxy@std@@@std@@@std@@YAXAEAV?$allocator@U_Container_proxy@std@@@0@QEAU_Container_proxy@0@@Z
_TEXT	SEGMENT
_Al$ = 224
_Ptr$ = 232
??$_Deallocate_plain@V?$allocator@U_Container_proxy@std@@@std@@@std@@YAXAEAV?$allocator@U_Container_proxy@std@@@0@QEAU_Container_proxy@0@@Z PROC ; std::_Deallocate_plain<std::allocator<std::_Container_proxy> >, COMDAT

; 998  : void _Deallocate_plain(_Alloc& _Al, typename _Alloc::value_type* const _Ptr) noexcept {

$LN3:
	mov	QWORD PTR [rsp+16], rdx
	mov	QWORD PTR [rsp+8], rcx
	push	rbp
	push	rdi
	sub	rsp, 232				; 000000e8H
	lea	rbp, QWORD PTR [rsp+32]
	mov	rdi, rsp
	mov	ecx, 58					; 0000003aH
	mov	eax, -858993460				; ccccccccH
	rep stosd
	mov	rcx, QWORD PTR [rsp+264]
	lea	rcx, OFFSET FLAT:__A58979FC_xmemory
	call	__CheckForDebuggerJustMyCode

; 999  :     // deallocate a plain pointer using an allocator
; 1000 :     using _Alloc_traits = allocator_traits<_Alloc>;
; 1001 :     if constexpr (is_same_v<_Alloc_ptr_t<_Alloc>, typename _Alloc::value_type*>) {
; 1002 :         _Alloc_traits::deallocate(_Al, _Ptr, 1);

	mov	r8d, 1
	mov	rdx, QWORD PTR _Ptr$[rbp]
	mov	rcx, QWORD PTR _Al$[rbp]
	call	?deallocate@?$_Default_allocator_traits@V?$allocator@U_Container_proxy@std@@@std@@@std@@SAXAEAV?$allocator@U_Container_proxy@std@@@2@QEAU_Container_proxy@2@_K@Z ; std::_Default_allocator_traits<std::allocator<std::_Container_proxy> >::deallocate
	npad	1

; 1003 :     } else {
; 1004 :         using _Ptr_traits = pointer_traits<_Alloc_ptr_t<_Alloc>>;
; 1005 :         _Alloc_traits::deallocate(_Al, _Ptr_traits::pointer_to(*_Ptr), 1);
; 1006 :     }
; 1007 : }

	lea	rsp, QWORD PTR [rbp+200]
	pop	rdi
	pop	rbp
	ret	0
??$_Deallocate_plain@V?$allocator@U_Container_proxy@std@@@std@@@std@@YAXAEAV?$allocator@U_Container_proxy@std@@@0@QEAU_Container_proxy@0@@Z ENDP ; std::_Deallocate_plain<std::allocator<std::_Container_proxy> >
_TEXT	ENDS
; Function compile flags: /Odtp /RTCsu /ZI
; File C:\Program Files (x86)\Microsoft Visual Studio\2019\Community\VC\Tools\MSVC\14.27.29110\include\xmemory
;	COMDAT ??$?0$$V@?$_Compressed_pair@U?$default_delete@VProductHandler@Product@Domain@@@std@@PEAVProductHandler@Product@Domain@@$00@std@@QEAA@U_Zero_then_variadic_args_t@1@@Z
_TEXT	SEGMENT
this$ = 224
__formal$ = 232
??$?0$$V@?$_Compressed_pair@U?$default_delete@VProductHandler@Product@Domain@@@std@@PEAVProductHandler@Product@Domain@@$00@std@@QEAA@U_Zero_then_variadic_args_t@1@@Z PROC ; std::_Compressed_pair<std::default_delete<Domain::Product::ProductHandler>,Domain::Product::ProductHandler *,1>::_Compressed_pair<std::default_delete<Domain::Product::ProductHandler>,Domain::Product::ProductHandler *,1><>, COMDAT

; 1336 :         : _Ty1(), _Myval2(_STD forward<_Other2>(_Val2)...) {}

$LN3:
	mov	BYTE PTR [rsp+16], dl
	mov	QWORD PTR [rsp+8], rcx
	push	rbp
	push	rdi
	sub	rsp, 232				; 000000e8H
	lea	rbp, QWORD PTR [rsp+32]
	mov	rdi, rsp
	mov	ecx, 58					; 0000003aH
	mov	eax, -858993460				; ccccccccH
	rep stosd
	mov	rcx, QWORD PTR [rsp+264]
	lea	rcx, OFFSET FLAT:__A58979FC_xmemory
	call	__CheckForDebuggerJustMyCode
	mov	rax, QWORD PTR this$[rbp]
	mov	QWORD PTR [rax], 0
	mov	rax, QWORD PTR this$[rbp]
	lea	rsp, QWORD PTR [rbp+200]
	pop	rdi
	pop	rbp
	ret	0
??$?0$$V@?$_Compressed_pair@U?$default_delete@VProductHandler@Product@Domain@@@std@@PEAVProductHandler@Product@Domain@@$00@std@@QEAA@U_Zero_then_variadic_args_t@1@@Z ENDP ; std::_Compressed_pair<std::default_delete<Domain::Product::ProductHandler>,Domain::Product::ProductHandler *,1>::_Compressed_pair<std::default_delete<Domain::Product::ProductHandler>,Domain::Product::ProductHandler *,1><>
_TEXT	ENDS
; Function compile flags: /Odtp /RTCsu /ZI
; File C:\Program Files (x86)\Microsoft Visual Studio\2019\Community\VC\Tools\MSVC\14.27.29110\include\xmemory
;	COMDAT ??$?0U?$default_delete@UProductManagement@Product@Domain@@@std@@PEAUProductManagement@Product@Domain@@@?$_Compressed_pair@U?$default_delete@VProductHandler@Product@Domain@@@std@@PEAVProductHandler@Product@Domain@@$00@std@@QEAA@U_One_then_variadic_args_t@1@$$QEAU?$default_delete@UProductManagement@Product@Domain@@@1@$$QEAPEAUProductManagement@Product@Domain@@@Z
_TEXT	SEGMENT
this$ = 224
__formal$ = 232
_Val1$ = 240
<_Val2_0>$ = 248
??$?0U?$default_delete@UProductManagement@Product@Domain@@@std@@PEAUProductManagement@Product@Domain@@@?$_Compressed_pair@U?$default_delete@VProductHandler@Product@Domain@@@std@@PEAVProductHandler@Product@Domain@@$00@std@@QEAA@U_One_then_variadic_args_t@1@$$QEAU?$default_delete@UProductManagement@Product@Domain@@@1@$$QEAPEAUProductManagement@Product@Domain@@@Z PROC ; std::_Compressed_pair<std::default_delete<Domain::Product::ProductHandler>,Domain::Product::ProductHandler *,1>::_Compressed_pair<std::default_delete<Domain::Product::ProductHandler>,Domain::Product::ProductHandler *,1><std::default_delete<Domain::Product::ProductManagement>,Domain::Product::ProductManagement *>, COMDAT

; 1341 :         : _Ty1(_STD forward<_Other1>(_Val1)), _Myval2(_STD forward<_Other2>(_Val2)...) {}

$LN3:
	mov	QWORD PTR [rsp+32], r9
	mov	QWORD PTR [rsp+24], r8
	mov	BYTE PTR [rsp+16], dl
	mov	QWORD PTR [rsp+8], rcx
	push	rbp
	push	rdi
	sub	rsp, 232				; 000000e8H
	lea	rbp, QWORD PTR [rsp+32]
	mov	rdi, rsp
	mov	ecx, 58					; 0000003aH
	mov	eax, -858993460				; ccccccccH
	rep stosd
	mov	rcx, QWORD PTR [rsp+264]
	lea	rcx, OFFSET FLAT:__A58979FC_xmemory
	call	__CheckForDebuggerJustMyCode
	mov	rcx, QWORD PTR _Val1$[rbp]
	call	??$forward@U?$default_delete@UProductManagement@Product@Domain@@@std@@@std@@YA$$QEAU?$default_delete@UProductManagement@Product@Domain@@@0@AEAU10@@Z ; std::forward<std::default_delete<Domain::Product::ProductManagement> >
	mov	rdx, rax
	mov	rcx, QWORD PTR this$[rbp]
	call	??$?0UProductManagement@Product@Domain@@$0A@@?$default_delete@VProductHandler@Product@Domain@@@std@@QEAA@AEBU?$default_delete@UProductManagement@Product@Domain@@@1@@Z ; std::default_delete<Domain::Product::ProductHandler>::default_delete<Domain::Product::ProductHandler><Domain::Product::ProductManagement,0>
	mov	rcx, QWORD PTR <_Val2_0>$[rbp]
	call	??$forward@PEAUProductManagement@Product@Domain@@@std@@YA$$QEAPEAUProductManagement@Product@Domain@@AEAPEAU123@@Z ; std::forward<Domain::Product::ProductManagement *>
	mov	rcx, QWORD PTR this$[rbp]
	mov	rax, QWORD PTR [rax]
	mov	QWORD PTR [rcx], rax
	mov	rax, QWORD PTR this$[rbp]
	lea	rsp, QWORD PTR [rbp+200]
	pop	rdi
	pop	rbp
	ret	0
??$?0U?$default_delete@UProductManagement@Product@Domain@@@std@@PEAUProductManagement@Product@Domain@@@?$_Compressed_pair@U?$default_delete@VProductHandler@Product@Domain@@@std@@PEAVProductHandler@Product@Domain@@$00@std@@QEAA@U_One_then_variadic_args_t@1@$$QEAU?$default_delete@UProductManagement@Product@Domain@@@1@$$QEAPEAUProductManagement@Product@Domain@@@Z ENDP ; std::_Compressed_pair<std::default_delete<Domain::Product::ProductHandler>,Domain::Product::ProductHandler *,1>::_Compressed_pair<std::default_delete<Domain::Product::ProductHandler>,Domain::Product::ProductHandler *,1><std::default_delete<Domain::Product::ProductManagement>,Domain::Product::ProductManagement *>
_TEXT	ENDS
; Function compile flags: /Odtp /RTCsu /ZI
; File C:\Program Files (x86)\Microsoft Visual Studio\2019\Community\VC\Tools\MSVC\14.27.29110\include\type_traits
;	COMDAT ??$forward@U?$default_delete@UProductManagement@Product@Domain@@@std@@@std@@YA$$QEAU?$default_delete@UProductManagement@Product@Domain@@@0@AEAU10@@Z
_TEXT	SEGMENT
_Arg$ = 224
??$forward@U?$default_delete@UProductManagement@Product@Domain@@@std@@@std@@YA$$QEAU?$default_delete@UProductManagement@Product@Domain@@@0@AEAU10@@Z PROC ; std::forward<std::default_delete<Domain::Product::ProductManagement> >, COMDAT

; 1454 :     remove_reference_t<_Ty>& _Arg) noexcept { // forward an lvalue as either an lvalue or an rvalue

$LN3:
	mov	QWORD PTR [rsp+8], rcx
	push	rbp
	push	rdi
	sub	rsp, 232				; 000000e8H
	lea	rbp, QWORD PTR [rsp+32]
	mov	rdi, rsp
	mov	ecx, 58					; 0000003aH
	mov	eax, -858993460				; ccccccccH
	rep stosd
	mov	rcx, QWORD PTR [rsp+264]
	lea	rcx, OFFSET FLAT:__85A9AA98_type_traits
	call	__CheckForDebuggerJustMyCode

; 1455 :     return static_cast<_Ty&&>(_Arg);

	mov	rax, QWORD PTR _Arg$[rbp]

; 1456 : }

	lea	rsp, QWORD PTR [rbp+200]
	pop	rdi
	pop	rbp
	ret	0
??$forward@U?$default_delete@UProductManagement@Product@Domain@@@std@@@std@@YA$$QEAU?$default_delete@UProductManagement@Product@Domain@@@0@AEAU10@@Z ENDP ; std::forward<std::default_delete<Domain::Product::ProductManagement> >
_TEXT	ENDS
; Function compile flags: /Odtp /RTCsu /ZI
; File C:\Program Files (x86)\Microsoft Visual Studio\2019\Community\VC\Tools\MSVC\14.27.29110\include\memory
;	COMDAT ??$?0U?$default_delete@UProductManagement@Product@Domain@@@std@@$0A@@?$unique_ptr@UProductManagement@Product@Domain@@U?$default_delete@UProductManagement@Product@Domain@@@std@@@std@@QEAA@PEAUProductManagement@Product@Domain@@@Z
_TEXT	SEGMENT
$T1 = 196
tv70 = 216
this$ = 256
_Ptr$ = 264
??$?0U?$default_delete@UProductManagement@Product@Domain@@@std@@$0A@@?$unique_ptr@UProductManagement@Product@Domain@@U?$default_delete@UProductManagement@Product@Domain@@@std@@@std@@QEAA@PEAUProductManagement@Product@Domain@@@Z PROC ; std::unique_ptr<Domain::Product::ProductManagement,std::default_delete<Domain::Product::ProductManagement> >::unique_ptr<Domain::Product::ProductManagement,std::default_delete<Domain::Product::ProductManagement> ><std::default_delete<Domain::Product::ProductManagement>,0>, COMDAT

; 2455 :     explicit unique_ptr(pointer _Ptr) noexcept : _Mypair(_Zero_then_variadic_args_t{}, _Ptr) {}

$LN3:
	mov	QWORD PTR [rsp+16], rdx
	mov	QWORD PTR [rsp+8], rcx
	push	rbp
	push	rdi
	sub	rsp, 264				; 00000108H
	lea	rbp, QWORD PTR [rsp+32]
	mov	rdi, rsp
	mov	ecx, 66					; 00000042H
	mov	eax, -858993460				; ccccccccH
	rep stosd
	mov	rcx, QWORD PTR [rsp+296]
	lea	rcx, OFFSET FLAT:__4E2906A2_memory
	call	__CheckForDebuggerJustMyCode
	mov	rax, QWORD PTR this$[rbp]
	mov	QWORD PTR tv70[rbp], rax
	lea	r8, QWORD PTR _Ptr$[rbp]
	movzx	edx, BYTE PTR $T1[rbp]
	mov	rcx, QWORD PTR tv70[rbp]
	call	??$?0AEAPEAUProductManagement@Product@Domain@@@?$_Compressed_pair@U?$default_delete@UProductManagement@Product@Domain@@@std@@PEAUProductManagement@Product@Domain@@$00@std@@QEAA@U_Zero_then_variadic_args_t@1@AEAPEAUProductManagement@Product@Domain@@@Z ; std::_Compressed_pair<std::default_delete<Domain::Product::ProductManagement>,Domain::Product::ProductManagement *,1>::_Compressed_pair<std::default_delete<Domain::Product::ProductManagement>,Domain::Product::ProductManagement *,1><Domain::Product::ProductManagement * &>
	mov	rax, QWORD PTR this$[rbp]
	lea	rsp, QWORD PTR [rbp+232]
	pop	rdi
	pop	rbp
	ret	0
??$?0U?$default_delete@UProductManagement@Product@Domain@@@std@@$0A@@?$unique_ptr@UProductManagement@Product@Domain@@U?$default_delete@UProductManagement@Product@Domain@@@std@@@std@@QEAA@PEAUProductManagement@Product@Domain@@@Z ENDP ; std::unique_ptr<Domain::Product::ProductManagement,std::default_delete<Domain::Product::ProductManagement> >::unique_ptr<Domain::Product::ProductManagement,std::default_delete<Domain::Product::ProductManagement> ><std::default_delete<Domain::Product::ProductManagement>,0>
_TEXT	ENDS
; Function compile flags: /Odtp /RTCsu /ZI
; File C:\Program Files (x86)\Microsoft Visual Studio\2019\Community\VC\Tools\MSVC\14.27.29110\include\type_traits
;	COMDAT ??$forward@AEBUUserCredentials@Persistence@TechnicalServices@@@std@@YAAEBUUserCredentials@Persistence@TechnicalServices@@AEBU123@@Z
_TEXT	SEGMENT
_Arg$ = 224
??$forward@AEBUUserCredentials@Persistence@TechnicalServices@@@std@@YAAEBUUserCredentials@Persistence@TechnicalServices@@AEBU123@@Z PROC ; std::forward<TechnicalServices::Persistence::UserCredentials const &>, COMDAT

; 1454 :     remove_reference_t<_Ty>& _Arg) noexcept { // forward an lvalue as either an lvalue or an rvalue

$LN3:
	mov	QWORD PTR [rsp+8], rcx
	push	rbp
	push	rdi
	sub	rsp, 232				; 000000e8H
	lea	rbp, QWORD PTR [rsp+32]
	mov	rdi, rsp
	mov	ecx, 58					; 0000003aH
	mov	eax, -858993460				; ccccccccH
	rep stosd
	mov	rcx, QWORD PTR [rsp+264]
	lea	rcx, OFFSET FLAT:__85A9AA98_type_traits
	call	__CheckForDebuggerJustMyCode

; 1455 :     return static_cast<_Ty&&>(_Arg);

	mov	rax, QWORD PTR _Arg$[rbp]

; 1456 : }

	lea	rsp, QWORD PTR [rbp+200]
	pop	rdi
	pop	rbp
	ret	0
??$forward@AEBUUserCredentials@Persistence@TechnicalServices@@@std@@YAAEBUUserCredentials@Persistence@TechnicalServices@@AEBU123@@Z ENDP ; std::forward<TechnicalServices::Persistence::UserCredentials const &>
_TEXT	ENDS
; Function compile flags: /Odtp /RTCsu /ZI
; File C:\Program Files (x86)\Microsoft Visual Studio\2019\Community\VC\Tools\MSVC\14.27.29110\include\xmemory
;	COMDAT ??$_Destroy_range@V?$allocator@V?$basic_string@DU?$char_traits@D@std@@V?$allocator@D@2@@std@@@std@@@std@@YAXPEAV?$basic_string@DU?$char_traits@D@std@@V?$allocator@D@2@@0@QEAV10@AEAV?$allocator@V?$basic_string@DU?$char_traits@D@std@@V?$allocator@D@2@@std@@@0@@Z
_TEXT	SEGMENT
_First$ = 224
_Last$ = 232
_Al$ = 240
??$_Destroy_range@V?$allocator@V?$basic_string@DU?$char_traits@D@std@@V?$allocator@D@2@@std@@@std@@@std@@YAXPEAV?$basic_string@DU?$char_traits@D@std@@V?$allocator@D@2@@0@QEAV10@AEAV?$allocator@V?$basic_string@DU?$char_traits@D@std@@V?$allocator@D@2@@std@@@0@@Z PROC ; std::_Destroy_range<std::allocator<std::basic_string<char,std::char_traits<char>,std::allocator<char> > > >, COMDAT

; 955  : void _Destroy_range(_Alloc_ptr_t<_Alloc> _First, const _Alloc_ptr_t<_Alloc> _Last, _Alloc& _Al) noexcept {

$LN6:
	mov	QWORD PTR [rsp+24], r8
	mov	QWORD PTR [rsp+16], rdx
	mov	QWORD PTR [rsp+8], rcx
	push	rbp
	push	rdi
	sub	rsp, 232				; 000000e8H
	lea	rbp, QWORD PTR [rsp+32]
	mov	rdi, rsp
	mov	ecx, 58					; 0000003aH
	mov	eax, -858993460				; ccccccccH
	rep stosd
	mov	rcx, QWORD PTR [rsp+264]
	lea	rcx, OFFSET FLAT:__A58979FC_xmemory
	call	__CheckForDebuggerJustMyCode

; 956  :     // note that this is an optimization for debug mode codegen; in release mode the BE removes all of this
; 957  :     using _Ty = typename _Alloc::value_type;
; 958  :     if _CONSTEXPR_IF (!conjunction_v<is_trivially_destructible<_Ty>, _Uses_default_destroy<_Alloc, _Ty*>>) {
; 959  :         for (; _First != _Last; ++_First) {

	jmp	SHORT $LN4@Destroy_ra
$LN2@Destroy_ra:
	mov	rax, QWORD PTR _First$[rbp]
	add	rax, 40					; 00000028H
	mov	QWORD PTR _First$[rbp], rax
$LN4@Destroy_ra:
	mov	rax, QWORD PTR _Last$[rbp]
	cmp	QWORD PTR _First$[rbp], rax
	je	SHORT $LN3@Destroy_ra

; 960  :             allocator_traits<_Alloc>::destroy(_Al, _Unfancy(_First));

	mov	rcx, QWORD PTR _First$[rbp]
	call	??$_Unfancy@V?$basic_string@DU?$char_traits@D@std@@V?$allocator@D@2@@std@@@std@@YAPEAV?$basic_string@DU?$char_traits@D@std@@V?$allocator@D@2@@0@PEAV10@@Z ; std::_Unfancy<std::basic_string<char,std::char_traits<char>,std::allocator<char> > >
	mov	rdx, rax
	mov	rcx, QWORD PTR _Al$[rbp]
	call	??$destroy@V?$basic_string@DU?$char_traits@D@std@@V?$allocator@D@2@@std@@@?$_Default_allocator_traits@V?$allocator@V?$basic_string@DU?$char_traits@D@std@@V?$allocator@D@2@@std@@@std@@@std@@SAXAEAV?$allocator@V?$basic_string@DU?$char_traits@D@std@@V?$allocator@D@2@@std@@@1@QEAV?$basic_string@DU?$char_traits@D@std@@V?$allocator@D@2@@1@@Z ; std::_Default_allocator_traits<std::allocator<std::basic_string<char,std::char_traits<char>,std::allocator<char> > > >::destroy<std::basic_string<char,std::char_traits<char>,std::allocator<char> > >

; 961  :         }

	jmp	SHORT $LN2@Destroy_ra
$LN3@Destroy_ra:

; 962  :     }
; 963  : }

	lea	rsp, QWORD PTR [rbp+200]
	pop	rdi
	pop	rbp
	ret	0
??$_Destroy_range@V?$allocator@V?$basic_string@DU?$char_traits@D@std@@V?$allocator@D@2@@std@@@std@@@std@@YAXPEAV?$basic_string@DU?$char_traits@D@std@@V?$allocator@D@2@@0@QEAV10@AEAV?$allocator@V?$basic_string@DU?$char_traits@D@std@@V?$allocator@D@2@@std@@@0@@Z ENDP ; std::_Destroy_range<std::allocator<std::basic_string<char,std::char_traits<char>,std::allocator<char> > > >
_TEXT	ENDS
; Function compile flags: /Odtp /RTCsu /ZI
; File C:\Program Files (x86)\Microsoft Visual Studio\2019\Community\VC\Tools\MSVC\14.27.29110\include\xmemory
;	COMDAT ??$_Deallocate@$0BA@$0A@@std@@YAXPEAX_K@Z
_TEXT	SEGMENT
_Ptr$ = 224
_Bytes$ = 232
??$_Deallocate@$0BA@$0A@@std@@YAXPEAX_K@Z PROC		; std::_Deallocate<16,0>, COMDAT

; 213  : void _Deallocate(void* _Ptr, size_t _Bytes) noexcept {

$LN4:
	mov	QWORD PTR [rsp+16], rdx
	mov	QWORD PTR [rsp+8], rcx
	push	rbp
	push	rdi
	sub	rsp, 232				; 000000e8H
	lea	rbp, QWORD PTR [rsp+32]
	mov	rdi, rsp
	mov	ecx, 58					; 0000003aH
	mov	eax, -858993460				; ccccccccH
	rep stosd
	mov	rcx, QWORD PTR [rsp+264]
	lea	rcx, OFFSET FLAT:__A58979FC_xmemory
	call	__CheckForDebuggerJustMyCode

; 214  :     // deallocate storage allocated by _Allocate when !_HAS_ALIGNED_NEW || _Align <= __STDCPP_DEFAULT_NEW_ALIGNMENT__
; 215  : #if defined(_M_IX86) || defined(_M_X64)
; 216  :     if (_Bytes >= _Big_allocation_threshold) { // boost the alignment of big allocations to help autovectorization

	cmp	QWORD PTR _Bytes$[rbp], 4096		; 00001000H
	jb	SHORT $LN2@Deallocate

; 217  :         _Adjust_manually_vector_aligned(_Ptr, _Bytes);

	lea	rdx, QWORD PTR _Bytes$[rbp]
	lea	rcx, QWORD PTR _Ptr$[rbp]
	call	?_Adjust_manually_vector_aligned@std@@YAXAEAPEAXAEA_K@Z ; std::_Adjust_manually_vector_aligned
$LN2@Deallocate:

; 218  :     }
; 219  : #endif // defined(_M_IX86) || defined(_M_X64)
; 220  : 
; 221  :     ::operator delete(_Ptr, _Bytes);

	mov	rdx, QWORD PTR _Bytes$[rbp]
	mov	rcx, QWORD PTR _Ptr$[rbp]
	call	??3@YAXPEAX_K@Z				; operator delete
	npad	1

; 222  : }

	lea	rsp, QWORD PTR [rbp+200]
	pop	rdi
	pop	rbp
	ret	0
??$_Deallocate@$0BA@$0A@@std@@YAXPEAX_K@Z ENDP		; std::_Deallocate<16,0>
_TEXT	ENDS
; Function compile flags: /Odtp /RTCsu /ZI
; File C:\Program Files (x86)\Microsoft Visual Studio\2019\Community\VC\Tools\MSVC\14.27.29110\include\xstddef
;	COMDAT ??$_Unfancy@D@std@@YAPEADPEAD@Z
_TEXT	SEGMENT
_Ptr$ = 224
??$_Unfancy@D@std@@YAPEADPEAD@Z PROC			; std::_Unfancy<char>, COMDAT

; 288  : _NODISCARD constexpr _Ty* _Unfancy(_Ty* _Ptr) noexcept { // do nothing for plain pointers

$LN3:
	mov	QWORD PTR [rsp+8], rcx
	push	rbp
	push	rdi
	sub	rsp, 232				; 000000e8H
	lea	rbp, QWORD PTR [rsp+32]
	mov	rdi, rsp
	mov	ecx, 58					; 0000003aH
	mov	eax, -858993460				; ccccccccH
	rep stosd
	mov	rcx, QWORD PTR [rsp+264]
	lea	rcx, OFFSET FLAT:__38038D2D_xstddef
	call	__CheckForDebuggerJustMyCode

; 289  :     return _Ptr;

	mov	rax, QWORD PTR _Ptr$[rbp]

; 290  : }

	lea	rsp, QWORD PTR [rbp+200]
	pop	rdi
	pop	rbp
	ret	0
??$_Unfancy@D@std@@YAPEADPEAD@Z ENDP			; std::_Unfancy<char>
_TEXT	ENDS
; Function compile flags: /Odtp /RTCsu /ZI
; File C:\Program Files (x86)\Microsoft Visual Studio\2019\Community\VC\Tools\MSVC\14.27.29110\include\xmemory
;	COMDAT ??$_Destroy_in_place@PEAD@std@@YAXAEAPEAD@Z
_TEXT	SEGMENT
_Obj$ = 224
??$_Destroy_in_place@PEAD@std@@YAXAEAPEAD@Z PROC	; std::_Destroy_in_place<char *>, COMDAT

; 267  : void _Destroy_in_place(_Ty& _Obj) noexcept {

$LN3:
	mov	QWORD PTR [rsp+8], rcx
	push	rbp
	push	rdi
	sub	rsp, 232				; 000000e8H
	lea	rbp, QWORD PTR [rsp+32]
	mov	rdi, rsp
	mov	ecx, 58					; 0000003aH
	mov	eax, -858993460				; ccccccccH
	rep stosd
	mov	rcx, QWORD PTR [rsp+264]
	lea	rcx, OFFSET FLAT:__A58979FC_xmemory
	call	__CheckForDebuggerJustMyCode
	npad	1

; 268  :     _Obj.~_Ty();
; 269  : }

	lea	rsp, QWORD PTR [rbp+200]
	pop	rdi
	pop	rbp
	ret	0
??$_Destroy_in_place@PEAD@std@@YAXAEAPEAD@Z ENDP	; std::_Destroy_in_place<char *>
_TEXT	ENDS
; Function compile flags: /Odtp /RTCsu /ZI
; File C:\Program Files (x86)\Microsoft Visual Studio\2019\Community\VC\Tools\MSVC\14.27.29110\include\xmemory
;	COMDAT ??$?0D@?$allocator@U_Container_proxy@std@@@std@@QEAA@AEBV?$allocator@D@1@@Z
_TEXT	SEGMENT
this$ = 224
__formal$ = 232
??$?0D@?$allocator@U_Container_proxy@std@@@std@@QEAA@AEBV?$allocator@D@1@@Z PROC ; std::allocator<std::_Container_proxy>::allocator<std::_Container_proxy><char>, COMDAT

; 799  :     constexpr allocator(const allocator<_Other>&) noexcept {}

$LN3:
	mov	QWORD PTR [rsp+16], rdx
	mov	QWORD PTR [rsp+8], rcx
	push	rbp
	push	rdi
	sub	rsp, 232				; 000000e8H
	lea	rbp, QWORD PTR [rsp+32]
	mov	rdi, rsp
	mov	ecx, 58					; 0000003aH
	mov	eax, -858993460				; ccccccccH
	rep stosd
	mov	rcx, QWORD PTR [rsp+264]
	lea	rcx, OFFSET FLAT:__A58979FC_xmemory
	call	__CheckForDebuggerJustMyCode
	mov	rax, QWORD PTR this$[rbp]
	lea	rsp, QWORD PTR [rbp+200]
	pop	rdi
	pop	rbp
	ret	0
??$?0D@?$allocator@U_Container_proxy@std@@@std@@QEAA@AEBV?$allocator@D@1@@Z ENDP ; std::allocator<std::_Container_proxy>::allocator<std::_Container_proxy><char>
_TEXT	ENDS
; Function compile flags: /Odtp /RTCsu /ZI
; File C:\Program Files (x86)\Microsoft Visual Studio\2019\Community\VC\Tools\MSVC\14.27.29110\include\xmemory
;	COMDAT ??$?0V?$basic_string@DU?$char_traits@D@std@@V?$allocator@D@2@@std@@@?$allocator@U_Container_proxy@std@@@std@@QEAA@AEBV?$allocator@V?$basic_string@DU?$char_traits@D@std@@V?$allocator@D@2@@std@@@1@@Z
_TEXT	SEGMENT
this$ = 224
__formal$ = 232
??$?0V?$basic_string@DU?$char_traits@D@std@@V?$allocator@D@2@@std@@@?$allocator@U_Container_proxy@std@@@std@@QEAA@AEBV?$allocator@V?$basic_string@DU?$char_traits@D@std@@V?$allocator@D@2@@std@@@1@@Z PROC ; std::allocator<std::_Container_proxy>::allocator<std::_Container_proxy><std::basic_string<char,std::char_traits<char>,std::allocator<char> > >, COMDAT

; 799  :     constexpr allocator(const allocator<_Other>&) noexcept {}

$LN3:
	mov	QWORD PTR [rsp+16], rdx
	mov	QWORD PTR [rsp+8], rcx
	push	rbp
	push	rdi
	sub	rsp, 232				; 000000e8H
	lea	rbp, QWORD PTR [rsp+32]
	mov	rdi, rsp
	mov	ecx, 58					; 0000003aH
	mov	eax, -858993460				; ccccccccH
	rep stosd
	mov	rcx, QWORD PTR [rsp+264]
	lea	rcx, OFFSET FLAT:__A58979FC_xmemory
	call	__CheckForDebuggerJustMyCode
	mov	rax, QWORD PTR this$[rbp]
	lea	rsp, QWORD PTR [rbp+200]
	pop	rdi
	pop	rbp
	ret	0
??$?0V?$basic_string@DU?$char_traits@D@std@@V?$allocator@D@2@@std@@@?$allocator@U_Container_proxy@std@@@std@@QEAA@AEBV?$allocator@V?$basic_string@DU?$char_traits@D@std@@V?$allocator@D@2@@std@@@1@@Z ENDP ; std::allocator<std::_Container_proxy>::allocator<std::_Container_proxy><std::basic_string<char,std::char_traits<char>,std::allocator<char> > >
_TEXT	ENDS
; Function compile flags: /Odtp /RTCsu /ZI
; File C:\Program Files (x86)\Microsoft Visual Studio\2019\Community\VC\Tools\MSVC\14.27.29110\include\xmemory
;	COMDAT ??$_Delete_plain_internal@V?$allocator@U_Container_proxy@std@@@std@@@std@@YAXAEAV?$allocator@U_Container_proxy@std@@@0@QEAU_Container_proxy@0@@Z
_TEXT	SEGMENT
_Al$ = 224
_Ptr$ = 232
??$_Delete_plain_internal@V?$allocator@U_Container_proxy@std@@@std@@@std@@YAXAEAV?$allocator@U_Container_proxy@std@@@0@QEAU_Container_proxy@0@@Z PROC ; std::_Delete_plain_internal<std::allocator<std::_Container_proxy> >, COMDAT

; 1026 : void _Delete_plain_internal(_Alloc& _Al, typename _Alloc::value_type* const _Ptr) noexcept {

$LN3:
	mov	QWORD PTR [rsp+16], rdx
	mov	QWORD PTR [rsp+8], rcx
	push	rbp
	push	rdi
	sub	rsp, 232				; 000000e8H
	lea	rbp, QWORD PTR [rsp+32]
	mov	rdi, rsp
	mov	ecx, 58					; 0000003aH
	mov	eax, -858993460				; ccccccccH
	rep stosd
	mov	rcx, QWORD PTR [rsp+264]
	lea	rcx, OFFSET FLAT:__A58979FC_xmemory
	call	__CheckForDebuggerJustMyCode

; 1027 :     // destroy *_Ptr in place, then deallocate _Ptr using _Al; used for internal container types the user didn't name
; 1028 :     using _Ty = typename _Alloc::value_type;
; 1029 :     _Ptr->~_Ty();
; 1030 :     _Deallocate_plain(_Al, _Ptr);

	mov	rdx, QWORD PTR _Ptr$[rbp]
	mov	rcx, QWORD PTR _Al$[rbp]
	call	??$_Deallocate_plain@V?$allocator@U_Container_proxy@std@@@std@@@std@@YAXAEAV?$allocator@U_Container_proxy@std@@@0@QEAU_Container_proxy@0@@Z ; std::_Deallocate_plain<std::allocator<std::_Container_proxy> >
	npad	1

; 1031 : }

	lea	rsp, QWORD PTR [rbp+200]
	pop	rdi
	pop	rbp
	ret	0
??$_Delete_plain_internal@V?$allocator@U_Container_proxy@std@@@std@@@std@@YAXAEAV?$allocator@U_Container_proxy@std@@@0@QEAU_Container_proxy@0@@Z ENDP ; std::_Delete_plain_internal<std::allocator<std::_Container_proxy> >
_TEXT	ENDS
; Function compile flags: /Odtp /RTCsu /ZI
; File C:\Program Files (x86)\Microsoft Visual Studio\2019\Community\VC\Tools\MSVC\14.27.29110\include\utility
;	COMDAT ??$exchange@PEAU_Container_proxy@std@@$$T@std@@YAPEAU_Container_proxy@0@AEAPEAU10@$$QEA$$T@Z
_TEXT	SEGMENT
_Old_val$ = 8
_Val$ = 256
_New_val$ = 264
??$exchange@PEAU_Container_proxy@std@@$$T@std@@YAPEAU_Container_proxy@0@AEAPEAU10@$$QEA$$T@Z PROC ; std::exchange<std::_Container_proxy *,std::nullptr_t>, COMDAT

; 597  :     conjunction_v<is_nothrow_move_constructible<_Ty>, is_nothrow_assignable<_Ty&, _Other>>) /* strengthened */ {

$LN3:
	mov	QWORD PTR [rsp+16], rdx
	mov	QWORD PTR [rsp+8], rcx
	push	rbp
	push	rdi
	sub	rsp, 264				; 00000108H
	lea	rbp, QWORD PTR [rsp+32]
	mov	rdi, rsp
	mov	ecx, 66					; 00000042H
	mov	eax, -858993460				; ccccccccH
	rep stosd
	mov	rcx, QWORD PTR [rsp+296]
	lea	rcx, OFFSET FLAT:__CF1C1A3F_utility
	call	__CheckForDebuggerJustMyCode

; 598  :     // assign _New_val to _Val, return previous _Val
; 599  :     _Ty _Old_val = static_cast<_Ty&&>(_Val);

	mov	rax, QWORD PTR _Val$[rbp]
	mov	rax, QWORD PTR [rax]
	mov	QWORD PTR _Old_val$[rbp], rax

; 600  :     _Val         = static_cast<_Other&&>(_New_val);

	mov	rax, QWORD PTR _Val$[rbp]
	mov	rcx, QWORD PTR _New_val$[rbp]
	mov	rcx, QWORD PTR [rcx]
	mov	QWORD PTR [rax], rcx

; 601  :     return _Old_val;

	mov	rax, QWORD PTR _Old_val$[rbp]

; 602  : }

	lea	rsp, QWORD PTR [rbp+232]
	pop	rdi
	pop	rbp
	ret	0
??$exchange@PEAU_Container_proxy@std@@$$T@std@@YAPEAU_Container_proxy@0@AEAPEAU10@$$QEA$$T@Z ENDP ; std::exchange<std::_Container_proxy *,std::nullptr_t>
_TEXT	ENDS
; Function compile flags: /Odtp /RTCsu /ZI
; File C:\Program Files (x86)\Microsoft Visual Studio\2019\Community\VC\Tools\MSVC\14.27.29110\include\memory
;	COMDAT ??$?0U?$default_delete@VProductHandler@Product@Domain@@@std@@$0A@@?$unique_ptr@VProductHandler@Product@Domain@@U?$default_delete@VProductHandler@Product@Domain@@@std@@@std@@QEAA@$$T@Z
_TEXT	SEGMENT
$T1 = 196
tv69 = 216
this$ = 256
__formal$ = 264
??$?0U?$default_delete@VProductHandler@Product@Domain@@@std@@$0A@@?$unique_ptr@VProductHandler@Product@Domain@@U?$default_delete@VProductHandler@Product@Domain@@@std@@@std@@QEAA@$$T@Z PROC ; std::unique_ptr<Domain::Product::ProductHandler,std::default_delete<Domain::Product::ProductHandler> >::unique_ptr<Domain::Product::ProductHandler,std::default_delete<Domain::Product::ProductHandler> ><std::default_delete<Domain::Product::ProductHandler>,0>, COMDAT

; 2447 :     constexpr unique_ptr(nullptr_t) noexcept : _Mypair(_Zero_then_variadic_args_t{}) {}

$LN3:
	mov	QWORD PTR [rsp+16], rdx
	mov	QWORD PTR [rsp+8], rcx
	push	rbp
	push	rdi
	sub	rsp, 264				; 00000108H
	lea	rbp, QWORD PTR [rsp+32]
	mov	rdi, rsp
	mov	ecx, 66					; 00000042H
	mov	eax, -858993460				; ccccccccH
	rep stosd
	mov	rcx, QWORD PTR [rsp+296]
	lea	rcx, OFFSET FLAT:__4E2906A2_memory
	call	__CheckForDebuggerJustMyCode
	mov	rax, QWORD PTR this$[rbp]
	mov	QWORD PTR tv69[rbp], rax
	movzx	edx, BYTE PTR $T1[rbp]
	mov	rcx, QWORD PTR tv69[rbp]
	call	??$?0$$V@?$_Compressed_pair@U?$default_delete@VProductHandler@Product@Domain@@@std@@PEAVProductHandler@Product@Domain@@$00@std@@QEAA@U_Zero_then_variadic_args_t@1@@Z ; std::_Compressed_pair<std::default_delete<Domain::Product::ProductHandler>,Domain::Product::ProductHandler *,1>::_Compressed_pair<std::default_delete<Domain::Product::ProductHandler>,Domain::Product::ProductHandler *,1><>
	mov	rax, QWORD PTR this$[rbp]
	lea	rsp, QWORD PTR [rbp+232]
	pop	rdi
	pop	rbp
	ret	0
??$?0U?$default_delete@VProductHandler@Product@Domain@@@std@@$0A@@?$unique_ptr@VProductHandler@Product@Domain@@U?$default_delete@VProductHandler@Product@Domain@@@std@@@std@@QEAA@$$T@Z ENDP ; std::unique_ptr<Domain::Product::ProductHandler,std::default_delete<Domain::Product::ProductHandler> >::unique_ptr<Domain::Product::ProductHandler,std::default_delete<Domain::Product::ProductHandler> ><std::default_delete<Domain::Product::ProductHandler>,0>
_TEXT	ENDS
; Function compile flags: /Odtp /RTCsu /ZI
; File C:\Program Files (x86)\Microsoft Visual Studio\2019\Community\VC\Tools\MSVC\14.27.29110\include\memory
;	COMDAT ??$?0UProductManagement@Product@Domain@@U?$default_delete@UProductManagement@Product@Domain@@@std@@$0A@@?$unique_ptr@VProductHandler@Product@Domain@@U?$default_delete@VProductHandler@Product@Domain@@@std@@@std@@QEAA@$$QEAV?$unique_ptr@UProductManagement@Product@Domain@@U?$default_delete@UProductManagement@Product@Domain@@@std@@@1@@Z
_TEXT	SEGMENT
$T1 = 200
$T2 = 228
$T3 = 260
tv80 = 280
tv78 = 288
this$ = 336
_Right$ = 344
??$?0UProductManagement@Product@Domain@@U?$default_delete@UProductManagement@Product@Domain@@@std@@$0A@@?$unique_ptr@VProductHandler@Product@Domain@@U?$default_delete@VProductHandler@Product@Domain@@@std@@@std@@QEAA@$$QEAV?$unique_ptr@UProductManagement@Product@Domain@@U?$default_delete@UProductManagement@Product@Domain@@@std@@@1@@Z PROC ; std::unique_ptr<Domain::Product::ProductHandler,std::default_delete<Domain::Product::ProductHandler> >::unique_ptr<Domain::Product::ProductHandler,std::default_delete<Domain::Product::ProductHandler> ><Domain::Product::ProductManagement,std::default_delete<Domain::Product::ProductManagement>,0>, COMDAT

; 2478 :         : _Mypair(_One_then_variadic_args_t{}, _STD forward<_Dx2>(_Right.get_deleter()), _Right.release()) {}

$LN3:
	mov	QWORD PTR [rsp+16], rdx
	mov	QWORD PTR [rsp+8], rcx
	push	rbp
	push	rdi
	sub	rsp, 344				; 00000158H
	lea	rbp, QWORD PTR [rsp+32]
	mov	rdi, rsp
	mov	ecx, 86					; 00000056H
	mov	eax, -858993460				; ccccccccH
	rep stosd
	mov	rcx, QWORD PTR [rsp+376]
	lea	rcx, OFFSET FLAT:__4E2906A2_memory
	call	__CheckForDebuggerJustMyCode
	mov	rax, QWORD PTR this$[rbp]
	mov	QWORD PTR tv80[rbp], rax
	mov	rcx, QWORD PTR _Right$[rbp]
	call	?release@?$unique_ptr@UProductManagement@Product@Domain@@U?$default_delete@UProductManagement@Product@Domain@@@std@@@std@@QEAAPEAUProductManagement@Product@Domain@@XZ ; std::unique_ptr<Domain::Product::ProductManagement,std::default_delete<Domain::Product::ProductManagement> >::release
	mov	QWORD PTR $T1[rbp], rax
	mov	rcx, QWORD PTR _Right$[rbp]
	call	?get_deleter@?$unique_ptr@UProductManagement@Product@Domain@@U?$default_delete@UProductManagement@Product@Domain@@@std@@@std@@QEAAAEAU?$default_delete@UProductManagement@Product@Domain@@@2@XZ ; std::unique_ptr<Domain::Product::ProductManagement,std::default_delete<Domain::Product::ProductManagement> >::get_deleter
	mov	rcx, rax
	call	??$forward@U?$default_delete@UProductManagement@Product@Domain@@@std@@@std@@YA$$QEAU?$default_delete@UProductManagement@Product@Domain@@@0@AEAU10@@Z ; std::forward<std::default_delete<Domain::Product::ProductManagement> >
	mov	QWORD PTR tv78[rbp], rax
	movzx	eax, BYTE PTR $T2[rbp]
	mov	BYTE PTR $T3[rbp], al
	lea	r9, QWORD PTR $T1[rbp]
	mov	r8, QWORD PTR tv78[rbp]
	movzx	edx, BYTE PTR $T3[rbp]
	mov	rcx, QWORD PTR tv80[rbp]
	call	??$?0U?$default_delete@UProductManagement@Product@Domain@@@std@@PEAUProductManagement@Product@Domain@@@?$_Compressed_pair@U?$default_delete@VProductHandler@Product@Domain@@@std@@PEAVProductHandler@Product@Domain@@$00@std@@QEAA@U_One_then_variadic_args_t@1@$$QEAU?$default_delete@UProductManagement@Product@Domain@@@1@$$QEAPEAUProductManagement@Product@Domain@@@Z ; std::_Compressed_pair<std::default_delete<Domain::Product::ProductHandler>,Domain::Product::ProductHandler *,1>::_Compressed_pair<std::default_delete<Domain::Product::ProductHandler>,Domain::Product::ProductHandler *,1><std::default_delete<Domain::Product::ProductManagement>,Domain::Product::ProductManagement *>
	mov	rax, QWORD PTR this$[rbp]
	lea	rsp, QWORD PTR [rbp+312]
	pop	rdi
	pop	rbp
	ret	0
??$?0UProductManagement@Product@Domain@@U?$default_delete@UProductManagement@Product@Domain@@@std@@$0A@@?$unique_ptr@VProductHandler@Product@Domain@@U?$default_delete@VProductHandler@Product@Domain@@@std@@@std@@QEAA@$$QEAV?$unique_ptr@UProductManagement@Product@Domain@@U?$default_delete@UProductManagement@Product@Domain@@@std@@@1@@Z ENDP ; std::unique_ptr<Domain::Product::ProductHandler,std::default_delete<Domain::Product::ProductHandler> >::unique_ptr<Domain::Product::ProductHandler,std::default_delete<Domain::Product::ProductHandler> ><Domain::Product::ProductManagement,std::default_delete<Domain::Product::ProductManagement>,0>
_TEXT	ENDS
; Function compile flags: /Odtp /RTCsu /ZI
; File C:\Program Files (x86)\Microsoft Visual Studio\2019\Community\VC\Tools\MSVC\14.27.29110\include\memory
;	COMDAT ??$?0UProductManagement@Product@Domain@@$0A@@?$default_delete@VProductHandler@Product@Domain@@@std@@QEAA@AEBU?$default_delete@UProductManagement@Product@Domain@@@1@@Z
_TEXT	SEGMENT
this$ = 224
__formal$ = 232
??$?0UProductManagement@Product@Domain@@$0A@@?$default_delete@VProductHandler@Product@Domain@@@std@@QEAA@AEBU?$default_delete@UProductManagement@Product@Domain@@@1@@Z PROC ; std::default_delete<Domain::Product::ProductHandler>::default_delete<Domain::Product::ProductHandler><Domain::Product::ProductManagement,0>, COMDAT

; 2398 :     default_delete(const default_delete<_Ty2>&) noexcept {}

$LN3:
	mov	QWORD PTR [rsp+16], rdx
	mov	QWORD PTR [rsp+8], rcx
	push	rbp
	push	rdi
	sub	rsp, 232				; 000000e8H
	lea	rbp, QWORD PTR [rsp+32]
	mov	rdi, rsp
	mov	ecx, 58					; 0000003aH
	mov	eax, -858993460				; ccccccccH
	rep stosd
	mov	rcx, QWORD PTR [rsp+264]
	lea	rcx, OFFSET FLAT:__4E2906A2_memory
	call	__CheckForDebuggerJustMyCode
	mov	rax, QWORD PTR this$[rbp]
	lea	rsp, QWORD PTR [rbp+200]
	pop	rdi
	pop	rbp
	ret	0
??$?0UProductManagement@Product@Domain@@$0A@@?$default_delete@VProductHandler@Product@Domain@@@std@@QEAA@AEBU?$default_delete@UProductManagement@Product@Domain@@@1@@Z ENDP ; std::default_delete<Domain::Product::ProductHandler>::default_delete<Domain::Product::ProductHandler><Domain::Product::ProductManagement,0>
_TEXT	ENDS
; Function compile flags: /Odtp /RTCsu /ZI
; File C:\Program Files (x86)\Microsoft Visual Studio\2019\Community\VC\Tools\MSVC\14.27.29110\include\xmemory
;	COMDAT ?_Get_first@?$_Compressed_pair@U?$default_delete@UProductManagement@Product@Domain@@@std@@PEAUProductManagement@Product@Domain@@$00@std@@QEAAAEAU?$default_delete@UProductManagement@Product@Domain@@@2@XZ
_TEXT	SEGMENT
this$ = 224
?_Get_first@?$_Compressed_pair@U?$default_delete@UProductManagement@Product@Domain@@@std@@PEAUProductManagement@Product@Domain@@$00@std@@QEAAAEAU?$default_delete@UProductManagement@Product@Domain@@@2@XZ PROC ; std::_Compressed_pair<std::default_delete<Domain::Product::ProductManagement>,Domain::Product::ProductManagement *,1>::_Get_first, COMDAT

; 1343 :     constexpr _Ty1& _Get_first() noexcept {

$LN3:
	mov	QWORD PTR [rsp+8], rcx
	push	rbp
	push	rdi
	sub	rsp, 232				; 000000e8H
	lea	rbp, QWORD PTR [rsp+32]
	mov	rdi, rsp
	mov	ecx, 58					; 0000003aH
	mov	eax, -858993460				; ccccccccH
	rep stosd
	mov	rcx, QWORD PTR [rsp+264]
	lea	rcx, OFFSET FLAT:__A58979FC_xmemory
	call	__CheckForDebuggerJustMyCode

; 1344 :         return *this;

	mov	rax, QWORD PTR this$[rbp]

; 1345 :     }

	lea	rsp, QWORD PTR [rbp+200]
	pop	rdi
	pop	rbp
	ret	0
?_Get_first@?$_Compressed_pair@U?$default_delete@UProductManagement@Product@Domain@@@std@@PEAUProductManagement@Product@Domain@@$00@std@@QEAAAEAU?$default_delete@UProductManagement@Product@Domain@@@2@XZ ENDP ; std::_Compressed_pair<std::default_delete<Domain::Product::ProductManagement>,Domain::Product::ProductManagement *,1>::_Get_first
_TEXT	ENDS
; Function compile flags: /Odtp /RTCsu /ZI
; File C:\Program Files (x86)\Microsoft Visual Studio\2019\Community\VC\Tools\MSVC\14.27.29110\include\memory
;	COMDAT ?release@?$unique_ptr@UProductManagement@Product@Domain@@U?$default_delete@UProductManagement@Product@Domain@@@std@@@std@@QEAAPEAUProductManagement@Product@Domain@@XZ
_TEXT	SEGMENT
$T1 = 200
this$ = 256
?release@?$unique_ptr@UProductManagement@Product@Domain@@U?$default_delete@UProductManagement@Product@Domain@@@std@@@std@@QEAAPEAUProductManagement@Product@Domain@@XZ PROC ; std::unique_ptr<Domain::Product::ProductManagement,std::default_delete<Domain::Product::ProductManagement> >::release, COMDAT

; 2540 :     pointer release() noexcept {

$LN3:
	mov	QWORD PTR [rsp+8], rcx
	push	rbp
	push	rdi
	sub	rsp, 264				; 00000108H
	lea	rbp, QWORD PTR [rsp+32]
	mov	rdi, rsp
	mov	ecx, 66					; 00000042H
	mov	eax, -858993460				; ccccccccH
	rep stosd
	mov	rcx, QWORD PTR [rsp+296]
	lea	rcx, OFFSET FLAT:__4E2906A2_memory
	call	__CheckForDebuggerJustMyCode

; 2541 :         return _STD exchange(_Mypair._Myval2, pointer());

	mov	QWORD PTR $T1[rbp], 0
	mov	rax, QWORD PTR this$[rbp]
	lea	rdx, QWORD PTR $T1[rbp]
	mov	rcx, rax
	call	??$exchange@PEAUProductManagement@Product@Domain@@PEAU123@@std@@YAPEAUProductManagement@Product@Domain@@AEAPEAU123@$$QEAPEAU123@@Z ; std::exchange<Domain::Product::ProductManagement *,Domain::Product::ProductManagement *>
	npad	1

; 2542 :     }

	lea	rsp, QWORD PTR [rbp+232]
	pop	rdi
	pop	rbp
	ret	0
?release@?$unique_ptr@UProductManagement@Product@Domain@@U?$default_delete@UProductManagement@Product@Domain@@@std@@@std@@QEAAPEAUProductManagement@Product@Domain@@XZ ENDP ; std::unique_ptr<Domain::Product::ProductManagement,std::default_delete<Domain::Product::ProductManagement> >::release
_TEXT	ENDS
; Function compile flags: /Odtp /RTCsu /ZI
; File C:\Program Files (x86)\Microsoft Visual Studio\2019\Community\VC\Tools\MSVC\14.27.29110\include\memory
;	COMDAT ?get_deleter@?$unique_ptr@UProductManagement@Product@Domain@@U?$default_delete@UProductManagement@Product@Domain@@@std@@@std@@QEAAAEAU?$default_delete@UProductManagement@Product@Domain@@@2@XZ
_TEXT	SEGMENT
this$ = 224
?get_deleter@?$unique_ptr@UProductManagement@Product@Domain@@U?$default_delete@UProductManagement@Product@Domain@@@std@@@std@@QEAAAEAU?$default_delete@UProductManagement@Product@Domain@@@2@XZ PROC ; std::unique_ptr<Domain::Product::ProductManagement,std::default_delete<Domain::Product::ProductManagement> >::get_deleter, COMDAT

; 2516 :     _NODISCARD _Dx& get_deleter() noexcept {

$LN3:
	mov	QWORD PTR [rsp+8], rcx
	push	rbp
	push	rdi
	sub	rsp, 232				; 000000e8H
	lea	rbp, QWORD PTR [rsp+32]
	mov	rdi, rsp
	mov	ecx, 58					; 0000003aH
	mov	eax, -858993460				; ccccccccH
	rep stosd
	mov	rcx, QWORD PTR [rsp+264]
	lea	rcx, OFFSET FLAT:__4E2906A2_memory
	call	__CheckForDebuggerJustMyCode

; 2517 :         return _Mypair._Get_first();

	mov	rax, QWORD PTR this$[rbp]
	mov	rcx, rax
	call	?_Get_first@?$_Compressed_pair@U?$default_delete@UProductManagement@Product@Domain@@@std@@PEAUProductManagement@Product@Domain@@$00@std@@QEAAAEAU?$default_delete@UProductManagement@Product@Domain@@@2@XZ ; std::_Compressed_pair<std::default_delete<Domain::Product::ProductManagement>,Domain::Product::ProductManagement *,1>::_Get_first
	npad	1

; 2518 :     }

	lea	rsp, QWORD PTR [rbp+200]
	pop	rdi
	pop	rbp
	ret	0
?get_deleter@?$unique_ptr@UProductManagement@Product@Domain@@U?$default_delete@UProductManagement@Product@Domain@@@std@@@std@@QEAAAEAU?$default_delete@UProductManagement@Product@Domain@@@2@XZ ENDP ; std::unique_ptr<Domain::Product::ProductManagement,std::default_delete<Domain::Product::ProductManagement> >::get_deleter
_TEXT	ENDS
; Function compile flags: /Odtp /RTCsu /ZI
; File C:\Program Files (x86)\Microsoft Visual Studio\2019\Community\VC\Tools\MSVC\14.27.29110\include\memory
;	COMDAT ??1?$unique_ptr@UProductManagement@Product@Domain@@U?$default_delete@UProductManagement@Product@Domain@@@std@@@std@@QEAA@XZ
_TEXT	SEGMENT
tv77 = 192
tv75 = 200
this$ = 240
??1?$unique_ptr@UProductManagement@Product@Domain@@U?$default_delete@UProductManagement@Product@Domain@@@std@@@std@@QEAA@XZ PROC ; std::unique_ptr<Domain::Product::ProductManagement,std::default_delete<Domain::Product::ProductManagement> >::~unique_ptr<Domain::Product::ProductManagement,std::default_delete<Domain::Product::ProductManagement> >, COMDAT

; 2510 :     ~unique_ptr() noexcept {

$LN4:
	mov	QWORD PTR [rsp+8], rcx
	push	rbp
	push	rdi
	sub	rsp, 248				; 000000f8H
	lea	rbp, QWORD PTR [rsp+32]
	mov	rdi, rsp
	mov	ecx, 62					; 0000003eH
	mov	eax, -858993460				; ccccccccH
	rep stosd
	mov	rcx, QWORD PTR [rsp+280]
	lea	rcx, OFFSET FLAT:__4E2906A2_memory
	call	__CheckForDebuggerJustMyCode

; 2511 :         if (_Mypair._Myval2) {

	mov	rax, QWORD PTR this$[rbp]
	cmp	QWORD PTR [rax], 0
	je	SHORT $LN2@unique_ptr

; 2512 :             _Mypair._Get_first()(_Mypair._Myval2);

	mov	rax, QWORD PTR this$[rbp]
	mov	rcx, rax
	call	?_Get_first@?$_Compressed_pair@U?$default_delete@UProductManagement@Product@Domain@@@std@@PEAUProductManagement@Product@Domain@@$00@std@@QEAAAEAU?$default_delete@UProductManagement@Product@Domain@@@2@XZ ; std::_Compressed_pair<std::default_delete<Domain::Product::ProductManagement>,Domain::Product::ProductManagement *,1>::_Get_first
	mov	QWORD PTR tv77[rbp], rax
	mov	rax, QWORD PTR this$[rbp]
	mov	rax, QWORD PTR [rax]
	mov	QWORD PTR tv75[rbp], rax
	mov	rdx, QWORD PTR tv75[rbp]
	mov	rcx, QWORD PTR tv77[rbp]
	call	??R?$default_delete@UProductManagement@Product@Domain@@@std@@QEBAXPEAUProductManagement@Product@Domain@@@Z ; std::default_delete<Domain::Product::ProductManagement>::operator()
	npad	1
$LN2@unique_ptr:

; 2513 :         }
; 2514 :     }

	lea	rsp, QWORD PTR [rbp+216]
	pop	rdi
	pop	rbp
	ret	0
??1?$unique_ptr@UProductManagement@Product@Domain@@U?$default_delete@UProductManagement@Product@Domain@@@std@@@std@@QEAA@XZ ENDP ; std::unique_ptr<Domain::Product::ProductManagement,std::default_delete<Domain::Product::ProductManagement> >::~unique_ptr<Domain::Product::ProductManagement,std::default_delete<Domain::Product::ProductManagement> >
_TEXT	ENDS
; Function compile flags: /Odtp /RTCsu /ZI
; File C:\Program Files (x86)\Microsoft Visual Studio\2019\Community\VC\Tools\MSVC\14.27.29110\include\memory
;	COMDAT ??R?$default_delete@UProductManagement@Product@Domain@@@std@@QEBAXPEAUProductManagement@Product@Domain@@@Z
_TEXT	SEGMENT
$T1 = 200
tv75 = 216
tv76 = 224
this$ = 272
_Ptr$ = 280
??R?$default_delete@UProductManagement@Product@Domain@@@std@@QEBAXPEAUProductManagement@Product@Domain@@@Z PROC ; std::default_delete<Domain::Product::ProductManagement>::operator(), COMDAT

; 2400 :     void operator()(_Ty* _Ptr) const noexcept /* strengthened */ { // delete a pointer

$LN5:
	mov	QWORD PTR [rsp+16], rdx
	mov	QWORD PTR [rsp+8], rcx
	push	rbp
	push	rdi
	sub	rsp, 280				; 00000118H
	lea	rbp, QWORD PTR [rsp+32]
	mov	rdi, rsp
	mov	ecx, 70					; 00000046H
	mov	eax, -858993460				; ccccccccH
	rep stosd
	mov	rcx, QWORD PTR [rsp+312]
	lea	rcx, OFFSET FLAT:__4E2906A2_memory
	call	__CheckForDebuggerJustMyCode

; 2401 :         static_assert(0 < sizeof(_Ty), "can't delete an incomplete type");
; 2402 :         delete _Ptr;

	mov	rax, QWORD PTR _Ptr$[rbp]
	mov	QWORD PTR $T1[rbp], rax
	cmp	QWORD PTR $T1[rbp], 0
	je	SHORT $LN3@operator
	mov	rax, QWORD PTR $T1[rbp]
	mov	rax, QWORD PTR [rax]
	mov	rax, QWORD PTR [rax+56]
	mov	QWORD PTR tv75[rbp], rax
	mov	edx, 1
	mov	rcx, QWORD PTR $T1[rbp]
	call	QWORD PTR tv75[rbp]
	mov	QWORD PTR tv76[rbp], rax
	jmp	SHORT $LN4@operator
$LN3@operator:
	mov	QWORD PTR tv76[rbp], 0
$LN4@operator:

; 2403 :     }

	lea	rsp, QWORD PTR [rbp+248]
	pop	rdi
	pop	rbp
	ret	0
??R?$default_delete@UProductManagement@Product@Domain@@@std@@QEBAXPEAUProductManagement@Product@Domain@@@Z ENDP ; std::default_delete<Domain::Product::ProductManagement>::operator()
_TEXT	ENDS
; Function compile flags: /Odtp /RTCsu /ZI
; File C:\Program Files (x86)\Microsoft Visual Studio\2019\Community\VC\Tools\MSVC\14.27.29110\include\memory
;	COMDAT ??$make_unique@UProductManagement@Product@Domain@@AEBUUserCredentials@Persistence@TechnicalServices@@$0A@@std@@YA?AV?$unique_ptr@UProductManagement@Product@Domain@@U?$default_delete@UProductManagement@Product@Domain@@@std@@@0@AEBUUserCredentials@Persistence@TechnicalServices@@@Z
_TEXT	SEGMENT
$T1 = 200
$T2 = 232
$T3 = 260
tv81 = 280
tv82 = 288
__$ReturnUdt$ = 336
<_Args_0>$ = 344
??$make_unique@UProductManagement@Product@Domain@@AEBUUserCredentials@Persistence@TechnicalServices@@$0A@@std@@YA?AV?$unique_ptr@UProductManagement@Product@Domain@@U?$default_delete@UProductManagement@Product@Domain@@@std@@@0@AEBUUserCredentials@Persistence@TechnicalServices@@@Z PROC ; std::make_unique<Domain::Product::ProductManagement,TechnicalServices::Persistence::UserCredentials const &,0>, COMDAT

; 2697 : _NODISCARD unique_ptr<_Ty> make_unique(_Types&&... _Args) { // make a unique_ptr

$LN8:
	mov	QWORD PTR [rsp+16], rdx
	mov	QWORD PTR [rsp+8], rcx
	push	rbp
	push	rdi
	sub	rsp, 344				; 00000158H
	lea	rbp, QWORD PTR [rsp+32]
	mov	rdi, rsp
	mov	ecx, 86					; 00000056H
	mov	eax, -858993460				; ccccccccH
	rep stosd
	mov	rcx, QWORD PTR [rsp+376]
	mov	DWORD PTR $T3[rbp], 0
	lea	rcx, OFFSET FLAT:__4E2906A2_memory
	call	__CheckForDebuggerJustMyCode

; 2698 :     return unique_ptr<_Ty>(new _Ty(_STD forward<_Types>(_Args)...));

	mov	ecx, 336				; 00000150H
	call	??2@YAPEAX_K@Z				; operator new
	mov	QWORD PTR $T2[rbp], rax
	cmp	QWORD PTR $T2[rbp], 0
	je	SHORT $LN3@make_uniqu
	mov	rcx, QWORD PTR <_Args_0>$[rbp]
	call	??$forward@AEBUUserCredentials@Persistence@TechnicalServices@@@std@@YAAEBUUserCredentials@Persistence@TechnicalServices@@AEBU123@@Z ; std::forward<TechnicalServices::Persistence::UserCredentials const &>
	mov	QWORD PTR tv81[rbp], rax
	mov	rdx, QWORD PTR tv81[rbp]
	mov	rcx, QWORD PTR $T2[rbp]
	call	??0ProductManagement@Product@Domain@@QEAA@AEBUUserCredentials@Persistence@TechnicalServices@@@Z ; Domain::Product::ProductManagement::ProductManagement
	mov	QWORD PTR tv82[rbp], rax
	jmp	SHORT $LN4@make_uniqu
$LN3@make_uniqu:
	mov	QWORD PTR tv82[rbp], 0
$LN4@make_uniqu:
	mov	rax, QWORD PTR tv82[rbp]
	mov	QWORD PTR $T1[rbp], rax
	mov	rdx, QWORD PTR $T1[rbp]
	mov	rcx, QWORD PTR __$ReturnUdt$[rbp]
	call	??$?0U?$default_delete@UProductManagement@Product@Domain@@@std@@$0A@@?$unique_ptr@UProductManagement@Product@Domain@@U?$default_delete@UProductManagement@Product@Domain@@@std@@@std@@QEAA@PEAUProductManagement@Product@Domain@@@Z ; std::unique_ptr<Domain::Product::ProductManagement,std::default_delete<Domain::Product::ProductManagement> >::unique_ptr<Domain::Product::ProductManagement,std::default_delete<Domain::Product::ProductManagement> ><std::default_delete<Domain::Product::ProductManagement>,0>
	mov	eax, DWORD PTR $T3[rbp]
	or	eax, 1
	mov	DWORD PTR $T3[rbp], eax
	mov	rax, QWORD PTR __$ReturnUdt$[rbp]

; 2699 : }

	lea	rsp, QWORD PTR [rbp+312]
	pop	rdi
	pop	rbp
	ret	0
??$make_unique@UProductManagement@Product@Domain@@AEBUUserCredentials@Persistence@TechnicalServices@@$0A@@std@@YA?AV?$unique_ptr@UProductManagement@Product@Domain@@U?$default_delete@UProductManagement@Product@Domain@@@std@@@0@AEBUUserCredentials@Persistence@TechnicalServices@@@Z ENDP ; std::make_unique<Domain::Product::ProductManagement,TechnicalServices::Persistence::UserCredentials const &,0>
_TEXT	ENDS
;	COMDAT text$x
text$x	SEGMENT
$T1 = 200
$T2 = 232
$T3 = 260
tv81 = 280
tv82 = 288
__$ReturnUdt$ = 336
<_Args_0>$ = 344
?dtor$0@?0???$make_unique@UProductManagement@Product@Domain@@AEBUUserCredentials@Persistence@TechnicalServices@@$0A@@std@@YA?AV?$unique_ptr@UProductManagement@Product@Domain@@U?$default_delete@UProductManagement@Product@Domain@@@std@@@0@AEBUUserCredentials@Persistence@TechnicalServices@@@Z@4HA PROC ; `std::make_unique<Domain::Product::ProductManagement,TechnicalServices::Persistence::UserCredentials const &,0>'::`1'::dtor$0
	mov	QWORD PTR [rsp+8], rcx
	mov	QWORD PTR [rsp+16], rdx
	push	rbp
	push	rdi
	sub	rsp, 40					; 00000028H
	lea	rbp, QWORD PTR [rdx+32]
	mov	edx, 336				; 00000150H
	mov	rcx, QWORD PTR $T2[rbp]
	call	??3@YAXPEAX_K@Z				; operator delete
	add	rsp, 40					; 00000028H
	pop	rdi
	pop	rbp
	ret	0
?dtor$0@?0???$make_unique@UProductManagement@Product@Domain@@AEBUUserCredentials@Persistence@TechnicalServices@@$0A@@std@@YA?AV?$unique_ptr@UProductManagement@Product@Domain@@U?$default_delete@UProductManagement@Product@Domain@@@std@@@0@AEBUUserCredentials@Persistence@TechnicalServices@@@Z@4HA ENDP ; `std::make_unique<Domain::Product::ProductManagement,TechnicalServices::Persistence::UserCredentials const &,0>'::`1'::dtor$0
text$x	ENDS
; Function compile flags: /Odtp /RTCsu /ZI
;	COMDAT text$x
text$x	SEGMENT
$T1 = 200
$T2 = 232
$T3 = 260
tv81 = 280
tv82 = 288
__$ReturnUdt$ = 336
<_Args_0>$ = 344
?dtor$0@?0???$make_unique@UProductManagement@Product@Domain@@AEBUUserCredentials@Persistence@TechnicalServices@@$0A@@std@@YA?AV?$unique_ptr@UProductManagement@Product@Domain@@U?$default_delete@UProductManagement@Product@Domain@@@std@@@0@AEBUUserCredentials@Persistence@TechnicalServices@@@Z@4HA PROC ; `std::make_unique<Domain::Product::ProductManagement,TechnicalServices::Persistence::UserCredentials const &,0>'::`1'::dtor$0
	mov	QWORD PTR [rsp+8], rcx
	mov	QWORD PTR [rsp+16], rdx
	push	rbp
	push	rdi
	sub	rsp, 40					; 00000028H
	lea	rbp, QWORD PTR [rdx+32]
	mov	edx, 336				; 00000150H
	mov	rcx, QWORD PTR $T2[rbp]
	call	??3@YAXPEAX_K@Z				; operator delete
	add	rsp, 40					; 00000028H
	pop	rdi
	pop	rbp
	ret	0
?dtor$0@?0???$make_unique@UProductManagement@Product@Domain@@AEBUUserCredentials@Persistence@TechnicalServices@@$0A@@std@@YA?AV?$unique_ptr@UProductManagement@Product@Domain@@U?$default_delete@UProductManagement@Product@Domain@@@std@@@0@AEBUUserCredentials@Persistence@TechnicalServices@@@Z@4HA ENDP ; `std::make_unique<Domain::Product::ProductManagement,TechnicalServices::Persistence::UserCredentials const &,0>'::`1'::dtor$0
text$x	ENDS
; Function compile flags: /Odtp /RTCsu /ZI
; File C:\Program Files (x86)\Microsoft Visual Studio\2019\Community\VC\Tools\MSVC\14.27.29110\include\xstring
;	COMDAT ??$?8DU?$char_traits@D@std@@V?$allocator@D@1@@std@@YA_NAEBV?$basic_string@DU?$char_traits@D@std@@V?$allocator@D@2@@0@QEBD@Z
_TEXT	SEGMENT
_Left$ = 224
_Right$ = 232
??$?8DU?$char_traits@D@std@@V?$allocator@D@1@@std@@YA_NAEBV?$basic_string@DU?$char_traits@D@std@@V?$allocator@D@2@@0@QEBD@Z PROC ; std::operator==<char,std::char_traits<char>,std::allocator<char> >, COMDAT

; 4480 : _NODISCARD bool operator==(const basic_string<_Elem, _Traits, _Alloc>& _Left, _In_z_ const _Elem* const _Right) {

$LN3:
	mov	QWORD PTR [rsp+16], rdx
	mov	QWORD PTR [rsp+8], rcx
	push	rbp
	push	rdi
	sub	rsp, 232				; 000000e8H
	lea	rbp, QWORD PTR [rsp+32]
	mov	rdi, rsp
	mov	ecx, 58					; 0000003aH
	mov	eax, -858993460				; ccccccccH
	rep stosd
	mov	rcx, QWORD PTR [rsp+264]
	lea	rcx, OFFSET FLAT:__D15AFF60_xstring
	call	__CheckForDebuggerJustMyCode

; 4481 :     return _Left._Equal(_Right);

	mov	rdx, QWORD PTR _Right$[rbp]
	mov	rcx, QWORD PTR _Left$[rbp]
	call	?_Equal@?$basic_string@DU?$char_traits@D@std@@V?$allocator@D@2@@std@@QEBA_NQEBD@Z ; std::basic_string<char,std::char_traits<char>,std::allocator<char> >::_Equal

; 4482 : }

	lea	rsp, QWORD PTR [rbp+200]
	pop	rdi
	pop	rbp
	ret	0
??$?8DU?$char_traits@D@std@@V?$allocator@D@1@@std@@YA_NAEBV?$basic_string@DU?$char_traits@D@std@@V?$allocator@D@2@@0@QEBD@Z ENDP ; std::operator==<char,std::char_traits<char>,std::allocator<char> >
_TEXT	ENDS
; Function compile flags: /Odtp /RTCsu /ZI
; File D:\\year2\CPSC 462\project\project\CPSC-462-GROUP-2\CPSC-462-GROUP-2-user\C++ Development Root\SourceCode\Domain\Product\ProductHandler.cpp
;	COMDAT ??1ProductHandler@Product@Domain@@UEAA@XZ
_TEXT	SEGMENT
this$ = 224
??1ProductHandler@Product@Domain@@UEAA@XZ PROC		; Domain::Product::ProductHandler::~ProductHandler, COMDAT

; 17   :     ProductHandler::~ProductHandler() noexcept = default;

$LN3:
	mov	QWORD PTR [rsp+8], rcx
	push	rbp
	push	rdi
	sub	rsp, 232				; 000000e8H
	lea	rbp, QWORD PTR [rsp+32]
	mov	rdi, rsp
	mov	ecx, 58					; 0000003aH
	mov	eax, -858993460				; ccccccccH
	rep stosd
	mov	rcx, QWORD PTR [rsp+264]
	lea	rcx, OFFSET FLAT:__8FBC3C8C_ProductHandler@cpp
	call	__CheckForDebuggerJustMyCode
	mov	rax, QWORD PTR this$[rbp]
	lea	rcx, OFFSET FLAT:??_7ProductHandler@Product@Domain@@6B@
	mov	QWORD PTR [rax], rcx
	lea	rsp, QWORD PTR [rbp+200]
	pop	rdi
	pop	rbp
	ret	0
??1ProductHandler@Product@Domain@@UEAA@XZ ENDP		; Domain::Product::ProductHandler::~ProductHandler
_TEXT	ENDS
; Function compile flags: /Odtp /RTCsu /ZI
; File D:\\year2\CPSC 462\project\project\CPSC-462-GROUP-2\CPSC-462-GROUP-2-user\C++ Development Root\SourceCode\Domain\Product\ProductHandler.cpp
;	COMDAT ?UseProductManagement@ProductHandler@Product@Domain@@SA?AV?$unique_ptr@VProductHandler@Product@Domain@@U?$default_delete@VProductHandler@Product@Domain@@@std@@@std@@AEBUUserCredentials@Persistence@TechnicalServices@@@Z
_TEXT	SEGMENT
persistentData$ = 8
credentialsFromDB$ = 48
$T4 = 424
$T5 = 452
tv131 = 472
tv73 = 472
__$ArrayPad$ = 480
__$ReturnUdt$ = 528
user$ = 536
?UseProductManagement@ProductHandler@Product@Domain@@SA?AV?$unique_ptr@VProductHandler@Product@Domain@@U?$default_delete@VProductHandler@Product@Domain@@@std@@@std@@AEBUUserCredentials@Persistence@TechnicalServices@@@Z PROC ; Domain::Product::ProductHandler::UseProductManagement, COMDAT

; 20   :     {

$LN8:
	mov	QWORD PTR [rsp+16], rdx
	mov	QWORD PTR [rsp+8], rcx
	push	rbp
	push	rdi
	sub	rsp, 536				; 00000218H
	lea	rbp, QWORD PTR [rsp+32]
	mov	rdi, rsp
	mov	ecx, 134				; 00000086H
	mov	eax, -858993460				; ccccccccH
	rep stosd
	mov	rcx, QWORD PTR [rsp+568]
	mov	rax, QWORD PTR __security_cookie
	xor	rax, rbp
	mov	QWORD PTR __$ArrayPad$[rbp], rax
	mov	DWORD PTR $T5[rbp], 0
	lea	rcx, OFFSET FLAT:__8FBC3C8C_ProductHandler@cpp
	call	__CheckForDebuggerJustMyCode

; 21   :         auto& persistentData = TechnicalServices::Persistence::PersistenceHandler::instance();

	call	?instance@PersistenceHandler@Persistence@TechnicalServices@@SAAEAV123@XZ ; TechnicalServices::Persistence::PersistenceHandler::instance
	mov	QWORD PTR persistentData$[rbp], rax

; 22   :         UserCredentials credentialsFromDB = persistentData.findCredentialsByName(user.userName);

	mov	rax, QWORD PTR persistentData$[rbp]
	mov	rax, QWORD PTR [rax]
	mov	rax, QWORD PTR [rax+8]
	mov	QWORD PTR tv73[rbp], rax
	mov	rax, QWORD PTR user$[rbp]
	add	rax, 8
	mov	r8, rax
	lea	rdx, QWORD PTR credentialsFromDB$[rbp]
	mov	rcx, QWORD PTR persistentData$[rbp]
	call	QWORD PTR tv73[rbp]
	npad	1

; 23   :         if (credentialsFromDB.roles[0] == "Salesperson") return std::make_unique<Domain::Product::ProductManagement>(user);

	xor	edx, edx
	lea	rcx, QWORD PTR credentialsFromDB$[rbp+88]
	call	??A?$vector@V?$basic_string@DU?$char_traits@D@std@@V?$allocator@D@2@@std@@V?$allocator@V?$basic_string@DU?$char_traits@D@std@@V?$allocator@D@2@@std@@@2@@std@@QEAAAEAV?$basic_string@DU?$char_traits@D@std@@V?$allocator@D@2@@1@_K@Z ; std::vector<std::basic_string<char,std::char_traits<char>,std::allocator<char> >,std::allocator<std::basic_string<char,std::char_traits<char>,std::allocator<char> > > >::operator[]
	lea	rdx, OFFSET FLAT:??_C@_0M@FHFJHGNJ@Salesperson@
	mov	rcx, rax
	call	??$?8DU?$char_traits@D@std@@V?$allocator@D@1@@std@@YA_NAEBV?$basic_string@DU?$char_traits@D@std@@V?$allocator@D@2@@0@QEBD@Z ; std::operator==<char,std::char_traits<char>,std::allocator<char> >
	movzx	eax, al
	test	eax, eax
	je	SHORT $LN2@UseProduct
	mov	rdx, QWORD PTR user$[rbp]
	lea	rcx, QWORD PTR $T4[rbp]
	call	??$make_unique@UProductManagement@Product@Domain@@AEBUUserCredentials@Persistence@TechnicalServices@@$0A@@std@@YA?AV?$unique_ptr@UProductManagement@Product@Domain@@U?$default_delete@UProductManagement@Product@Domain@@@std@@@0@AEBUUserCredentials@Persistence@TechnicalServices@@@Z ; std::make_unique<Domain::Product::ProductManagement,TechnicalServices::Persistence::UserCredentials const &,0>
	mov	QWORD PTR tv131[rbp], rax
	mov	rdx, QWORD PTR tv131[rbp]
	mov	rcx, QWORD PTR __$ReturnUdt$[rbp]
	call	??$?0UProductManagement@Product@Domain@@U?$default_delete@UProductManagement@Product@Domain@@@std@@$0A@@?$unique_ptr@VProductHandler@Product@Domain@@U?$default_delete@VProductHandler@Product@Domain@@@std@@@std@@QEAA@$$QEAV?$unique_ptr@UProductManagement@Product@Domain@@U?$default_delete@UProductManagement@Product@Domain@@@std@@@1@@Z ; std::unique_ptr<Domain::Product::ProductHandler,std::default_delete<Domain::Product::ProductHandler> >::unique_ptr<Domain::Product::ProductHandler,std::default_delete<Domain::Product::ProductHandler> ><Domain::Product::ProductManagement,std::default_delete<Domain::Product::ProductManagement>,0>
	mov	eax, DWORD PTR $T5[rbp]
	or	eax, 1
	mov	DWORD PTR $T5[rbp], eax
	lea	rcx, QWORD PTR $T4[rbp]
	call	??1?$unique_ptr@UProductManagement@Product@Domain@@U?$default_delete@UProductManagement@Product@Domain@@@std@@@std@@QEAA@XZ ; std::unique_ptr<Domain::Product::ProductManagement,std::default_delete<Domain::Product::ProductManagement> >::~unique_ptr<Domain::Product::ProductManagement,std::default_delete<Domain::Product::ProductManagement> >
	npad	1
	lea	rcx, QWORD PTR credentialsFromDB$[rbp]
	call	??1UserCredentials@Persistence@TechnicalServices@@QEAA@XZ
	mov	rax, QWORD PTR __$ReturnUdt$[rbp]
	jmp	SHORT $LN1@UseProduct
$LN2@UseProduct:

; 24   : 
; 25   :         return nullptr;

	xor	edx, edx
	mov	rcx, QWORD PTR __$ReturnUdt$[rbp]
	call	??$?0U?$default_delete@VProductHandler@Product@Domain@@@std@@$0A@@?$unique_ptr@VProductHandler@Product@Domain@@U?$default_delete@VProductHandler@Product@Domain@@@std@@@std@@QEAA@$$T@Z ; std::unique_ptr<Domain::Product::ProductHandler,std::default_delete<Domain::Product::ProductHandler> >::unique_ptr<Domain::Product::ProductHandler,std::default_delete<Domain::Product::ProductHandler> ><std::default_delete<Domain::Product::ProductHandler>,0>
	mov	eax, DWORD PTR $T5[rbp]
	or	eax, 1
	mov	DWORD PTR $T5[rbp], eax
	lea	rcx, QWORD PTR credentialsFromDB$[rbp]
	call	??1UserCredentials@Persistence@TechnicalServices@@QEAA@XZ
	mov	rax, QWORD PTR __$ReturnUdt$[rbp]
$LN1@UseProduct:

; 26   :     }

	mov	rdi, rax
	lea	rcx, QWORD PTR [rbp-32]
	lea	rdx, OFFSET FLAT:?UseProductManagement@ProductHandler@Product@Domain@@SA?AV?$unique_ptr@VProductHandler@Product@Domain@@U?$default_delete@VProductHandler@Product@Domain@@@std@@@std@@AEBUUserCredentials@Persistence@TechnicalServices@@@Z$rtcFrameData
	call	_RTC_CheckStackVars
	mov	rax, rdi
	mov	rcx, QWORD PTR __$ArrayPad$[rbp]
	xor	rcx, rbp
	call	__security_check_cookie
	lea	rsp, QWORD PTR [rbp+504]
	pop	rdi
	pop	rbp
	ret	0
?UseProductManagement@ProductHandler@Product@Domain@@SA?AV?$unique_ptr@VProductHandler@Product@Domain@@U?$default_delete@VProductHandler@Product@Domain@@@std@@@std@@AEBUUserCredentials@Persistence@TechnicalServices@@@Z ENDP ; Domain::Product::ProductHandler::UseProductManagement
_TEXT	ENDS
;	COMDAT text$x
text$x	SEGMENT
persistentData$ = 8
credentialsFromDB$ = 48
$T4 = 424
$T5 = 452
tv131 = 472
tv73 = 472
__$ArrayPad$ = 480
__$ReturnUdt$ = 528
user$ = 536
?dtor$0@?0??UseProductManagement@ProductHandler@Product@Domain@@SA?AV?$unique_ptr@VProductHandler@Product@Domain@@U?$default_delete@VProductHandler@Product@Domain@@@std@@@std@@AEBUUserCredentials@Persistence@TechnicalServices@@@Z@4HA PROC ; `Domain::Product::ProductHandler::UseProductManagement'::`1'::dtor$0
	mov	QWORD PTR [rsp+8], rcx
	mov	QWORD PTR [rsp+16], rdx
	push	rbp
	push	rdi
	sub	rsp, 40					; 00000028H
	lea	rbp, QWORD PTR [rdx+32]
	lea	rcx, QWORD PTR credentialsFromDB$[rbp]
	call	??1UserCredentials@Persistence@TechnicalServices@@QEAA@XZ
	add	rsp, 40					; 00000028H
	pop	rdi
	pop	rbp
	ret	0
?dtor$0@?0??UseProductManagement@ProductHandler@Product@Domain@@SA?AV?$unique_ptr@VProductHandler@Product@Domain@@U?$default_delete@VProductHandler@Product@Domain@@@std@@@std@@AEBUUserCredentials@Persistence@TechnicalServices@@@Z@4HA ENDP ; `Domain::Product::ProductHandler::UseProductManagement'::`1'::dtor$0
text$x	ENDS
; Function compile flags: /Odtp /RTCsu /ZI
;	COMDAT text$x
text$x	SEGMENT
persistentData$ = 8
credentialsFromDB$ = 48
$T4 = 424
$T5 = 452
tv131 = 472
tv73 = 472
__$ArrayPad$ = 480
__$ReturnUdt$ = 528
user$ = 536
?dtor$0@?0??UseProductManagement@ProductHandler@Product@Domain@@SA?AV?$unique_ptr@VProductHandler@Product@Domain@@U?$default_delete@VProductHandler@Product@Domain@@@std@@@std@@AEBUUserCredentials@Persistence@TechnicalServices@@@Z@4HA PROC ; `Domain::Product::ProductHandler::UseProductManagement'::`1'::dtor$0
	mov	QWORD PTR [rsp+8], rcx
	mov	QWORD PTR [rsp+16], rdx
	push	rbp
	push	rdi
	sub	rsp, 40					; 00000028H
	lea	rbp, QWORD PTR [rdx+32]
	lea	rcx, QWORD PTR credentialsFromDB$[rbp]
	call	??1UserCredentials@Persistence@TechnicalServices@@QEAA@XZ
	add	rsp, 40					; 00000028H
	pop	rdi
	pop	rbp
	ret	0
?dtor$0@?0??UseProductManagement@ProductHandler@Product@Domain@@SA?AV?$unique_ptr@VProductHandler@Product@Domain@@U?$default_delete@VProductHandler@Product@Domain@@@std@@@std@@AEBUUserCredentials@Persistence@TechnicalServices@@@Z@4HA ENDP ; `Domain::Product::ProductHandler::UseProductManagement'::`1'::dtor$0
text$x	ENDS
; Function compile flags: /Odtp /RTCsu /ZI
;	COMDAT ??1UserCredentials@Persistence@TechnicalServices@@QEAA@XZ
_TEXT	SEGMENT
this$ = 224
??1UserCredentials@Persistence@TechnicalServices@@QEAA@XZ PROC ; TechnicalServices::Persistence::UserCredentials::~UserCredentials, COMDAT
$LN3:
	mov	QWORD PTR [rsp+8], rcx
	push	rbp
	push	rdi
	sub	rsp, 232				; 000000e8H
	lea	rbp, QWORD PTR [rsp+32]
	mov	rdi, rsp
	mov	ecx, 58					; 0000003aH
	mov	eax, -858993460				; ccccccccH
	rep stosd
	mov	rcx, QWORD PTR [rsp+264]
	mov	rax, QWORD PTR this$[rbp]
	add	rax, 128				; 00000080H
	mov	rcx, rax
	call	??1?$vector@V?$basic_string@DU?$char_traits@D@std@@V?$allocator@D@2@@std@@V?$allocator@V?$basic_string@DU?$char_traits@D@std@@V?$allocator@D@2@@std@@@2@@std@@QEAA@XZ ; std::vector<std::basic_string<char,std::char_traits<char>,std::allocator<char> >,std::allocator<std::basic_string<char,std::char_traits<char>,std::allocator<char> > > >::~vector<std::basic_string<char,std::char_traits<char>,std::allocator<char> >,std::allocator<std::basic_string<char,std::char_traits<char>,std::allocator<char> > > >
	mov	rax, QWORD PTR this$[rbp]
	add	rax, 88					; 00000058H
	mov	rcx, rax
	call	??1?$vector@V?$basic_string@DU?$char_traits@D@std@@V?$allocator@D@2@@std@@V?$allocator@V?$basic_string@DU?$char_traits@D@std@@V?$allocator@D@2@@std@@@2@@std@@QEAA@XZ ; std::vector<std::basic_string<char,std::char_traits<char>,std::allocator<char> >,std::allocator<std::basic_string<char,std::char_traits<char>,std::allocator<char> > > >::~vector<std::basic_string<char,std::char_traits<char>,std::allocator<char> >,std::allocator<std::basic_string<char,std::char_traits<char>,std::allocator<char> > > >
	mov	rax, QWORD PTR this$[rbp]
	add	rax, 48					; 00000030H
	mov	rcx, rax
	call	??1?$basic_string@DU?$char_traits@D@std@@V?$allocator@D@2@@std@@QEAA@XZ ; std::basic_string<char,std::char_traits<char>,std::allocator<char> >::~basic_string<char,std::char_traits<char>,std::allocator<char> >
	mov	rax, QWORD PTR this$[rbp]
	add	rax, 8
	mov	rcx, rax
	call	??1?$basic_string@DU?$char_traits@D@std@@V?$allocator@D@2@@std@@QEAA@XZ ; std::basic_string<char,std::char_traits<char>,std::allocator<char> >::~basic_string<char,std::char_traits<char>,std::allocator<char> >
	lea	rsp, QWORD PTR [rbp+200]
	pop	rdi
	pop	rbp
	ret	0
??1UserCredentials@Persistence@TechnicalServices@@QEAA@XZ ENDP ; TechnicalServices::Persistence::UserCredentials::~UserCredentials
_TEXT	ENDS
; Function compile flags: /Odtp /RTCsu /ZI
; File C:\Program Files (x86)\Microsoft Visual Studio\2019\Community\VC\Tools\MSVC\14.27.29110\include\xmemory
;	COMDAT ?_Get_first@?$_Compressed_pair@V?$allocator@V?$basic_string@DU?$char_traits@D@std@@V?$allocator@D@2@@std@@@std@@V?$_Vector_val@U?$_Simple_types@V?$basic_string@DU?$char_traits@D@std@@V?$allocator@D@2@@std@@@std@@@2@$00@std@@QEAAAEAV?$allocator@V?$basic_string@DU?$char_traits@D@std@@V?$allocator@D@2@@std@@@2@XZ
_TEXT	SEGMENT
this$ = 224
?_Get_first@?$_Compressed_pair@V?$allocator@V?$basic_string@DU?$char_traits@D@std@@V?$allocator@D@2@@std@@@std@@V?$_Vector_val@U?$_Simple_types@V?$basic_string@DU?$char_traits@D@std@@V?$allocator@D@2@@std@@@std@@@2@$00@std@@QEAAAEAV?$allocator@V?$basic_string@DU?$char_traits@D@std@@V?$allocator@D@2@@std@@@2@XZ PROC ; std::_Compressed_pair<std::allocator<std::basic_string<char,std::char_traits<char>,std::allocator<char> > >,std::_Vector_val<std::_Simple_types<std::basic_string<char,std::char_traits<char>,std::allocator<char> > > >,1>::_Get_first, COMDAT

; 1343 :     constexpr _Ty1& _Get_first() noexcept {

$LN3:
	mov	QWORD PTR [rsp+8], rcx
	push	rbp
	push	rdi
	sub	rsp, 232				; 000000e8H
	lea	rbp, QWORD PTR [rsp+32]
	mov	rdi, rsp
	mov	ecx, 58					; 0000003aH
	mov	eax, -858993460				; ccccccccH
	rep stosd
	mov	rcx, QWORD PTR [rsp+264]
	lea	rcx, OFFSET FLAT:__A58979FC_xmemory
	call	__CheckForDebuggerJustMyCode

; 1344 :         return *this;

	mov	rax, QWORD PTR this$[rbp]

; 1345 :     }

	lea	rsp, QWORD PTR [rbp+200]
	pop	rdi
	pop	rbp
	ret	0
?_Get_first@?$_Compressed_pair@V?$allocator@V?$basic_string@DU?$char_traits@D@std@@V?$allocator@D@2@@std@@@std@@V?$_Vector_val@U?$_Simple_types@V?$basic_string@DU?$char_traits@D@std@@V?$allocator@D@2@@std@@@std@@@2@$00@std@@QEAAAEAV?$allocator@V?$basic_string@DU?$char_traits@D@std@@V?$allocator@D@2@@std@@@2@XZ ENDP ; std::_Compressed_pair<std::allocator<std::basic_string<char,std::char_traits<char>,std::allocator<char> > >,std::_Vector_val<std::_Simple_types<std::basic_string<char,std::char_traits<char>,std::allocator<char> > > >,1>::_Get_first
_TEXT	ENDS
; Function compile flags: /Odtp /RTCsu /ZI
; File C:\Program Files (x86)\Microsoft Visual Studio\2019\Community\VC\Tools\MSVC\14.27.29110\include\vector
;	COMDAT ?_Getal@?$vector@V?$basic_string@DU?$char_traits@D@std@@V?$allocator@D@2@@std@@V?$allocator@V?$basic_string@DU?$char_traits@D@std@@V?$allocator@D@2@@std@@@2@@std@@AEAAAEAV?$allocator@V?$basic_string@DU?$char_traits@D@std@@V?$allocator@D@2@@std@@@2@XZ
_TEXT	SEGMENT
this$ = 224
?_Getal@?$vector@V?$basic_string@DU?$char_traits@D@std@@V?$allocator@D@2@@std@@V?$allocator@V?$basic_string@DU?$char_traits@D@std@@V?$allocator@D@2@@std@@@2@@std@@AEAAAEAV?$allocator@V?$basic_string@DU?$char_traits@D@std@@V?$allocator@D@2@@std@@@2@XZ PROC ; std::vector<std::basic_string<char,std::char_traits<char>,std::allocator<char> >,std::allocator<std::basic_string<char,std::char_traits<char>,std::allocator<char> > > >::_Getal, COMDAT

; 1731 :     _Alty& _Getal() noexcept {

$LN3:
	mov	QWORD PTR [rsp+8], rcx
	push	rbp
	push	rdi
	sub	rsp, 232				; 000000e8H
	lea	rbp, QWORD PTR [rsp+32]
	mov	rdi, rsp
	mov	ecx, 58					; 0000003aH
	mov	eax, -858993460				; ccccccccH
	rep stosd
	mov	rcx, QWORD PTR [rsp+264]
	lea	rcx, OFFSET FLAT:__BF2A7ACC_vector
	call	__CheckForDebuggerJustMyCode

; 1732 :         return _Mypair._Get_first();

	mov	rax, QWORD PTR this$[rbp]
	mov	rcx, rax
	call	?_Get_first@?$_Compressed_pair@V?$allocator@V?$basic_string@DU?$char_traits@D@std@@V?$allocator@D@2@@std@@@std@@V?$_Vector_val@U?$_Simple_types@V?$basic_string@DU?$char_traits@D@std@@V?$allocator@D@2@@std@@@std@@@2@$00@std@@QEAAAEAV?$allocator@V?$basic_string@DU?$char_traits@D@std@@V?$allocator@D@2@@std@@@2@XZ ; std::_Compressed_pair<std::allocator<std::basic_string<char,std::char_traits<char>,std::allocator<char> > >,std::_Vector_val<std::_Simple_types<std::basic_string<char,std::char_traits<char>,std::allocator<char> > > >,1>::_Get_first
	npad	1

; 1733 :     }

	lea	rsp, QWORD PTR [rbp+200]
	pop	rdi
	pop	rbp
	ret	0
?_Getal@?$vector@V?$basic_string@DU?$char_traits@D@std@@V?$allocator@D@2@@std@@V?$allocator@V?$basic_string@DU?$char_traits@D@std@@V?$allocator@D@2@@std@@@2@@std@@AEAAAEAV?$allocator@V?$basic_string@DU?$char_traits@D@std@@V?$allocator@D@2@@std@@@2@XZ ENDP ; std::vector<std::basic_string<char,std::char_traits<char>,std::allocator<char> >,std::allocator<std::basic_string<char,std::char_traits<char>,std::allocator<char> > > >::_Getal
_TEXT	ENDS
; Function compile flags: /Odtp /RTCsu /ZI
; File C:\Program Files (x86)\Microsoft Visual Studio\2019\Community\VC\Tools\MSVC\14.27.29110\include\vector
;	COMDAT ?_Tidy@?$vector@V?$basic_string@DU?$char_traits@D@std@@V?$allocator@D@2@@std@@V?$allocator@V?$basic_string@DU?$char_traits@D@std@@V?$allocator@D@2@@std@@@2@@std@@AEAAXXZ
_TEXT	SEGMENT
_My_data$ = 8
_Myfirst$ = 40
_Mylast$ = 72
_Myend$ = 104
tv90 = 312
tv88 = 320
tv86 = 328
this$ = 368
?_Tidy@?$vector@V?$basic_string@DU?$char_traits@D@std@@V?$allocator@D@2@@std@@V?$allocator@V?$basic_string@DU?$char_traits@D@std@@V?$allocator@D@2@@std@@@2@@std@@AEAAXXZ PROC ; std::vector<std::basic_string<char,std::char_traits<char>,std::allocator<char> >,std::allocator<std::basic_string<char,std::char_traits<char>,std::allocator<char> > > >::_Tidy, COMDAT

; 1685 :     void _Tidy() noexcept { // free all storage

$LN4:
	mov	QWORD PTR [rsp+8], rcx
	push	rbp
	push	rdi
	sub	rsp, 376				; 00000178H
	lea	rbp, QWORD PTR [rsp+32]
	mov	rdi, rsp
	mov	ecx, 94					; 0000005eH
	mov	eax, -858993460				; ccccccccH
	rep stosd
	mov	rcx, QWORD PTR [rsp+408]
	lea	rcx, OFFSET FLAT:__BF2A7ACC_vector
	call	__CheckForDebuggerJustMyCode

; 1686 :         auto& _My_data    = _Mypair._Myval2;

	mov	rax, QWORD PTR this$[rbp]
	mov	QWORD PTR _My_data$[rbp], rax

; 1687 :         pointer& _Myfirst = _My_data._Myfirst;

	mov	rax, QWORD PTR _My_data$[rbp]
	add	rax, 8
	mov	QWORD PTR _Myfirst$[rbp], rax

; 1688 :         pointer& _Mylast  = _My_data._Mylast;

	mov	rax, QWORD PTR _My_data$[rbp]
	add	rax, 16
	mov	QWORD PTR _Mylast$[rbp], rax

; 1689 :         pointer& _Myend   = _My_data._Myend;

	mov	rax, QWORD PTR _My_data$[rbp]
	add	rax, 24
	mov	QWORD PTR _Myend$[rbp], rax

; 1690 : 
; 1691 :         _My_data._Orphan_all();

	mov	rcx, QWORD PTR _My_data$[rbp]
	call	?_Orphan_all@_Container_base12@std@@QEAAXXZ ; std::_Container_base12::_Orphan_all

; 1692 : 
; 1693 :         if (_Myfirst) { // destroy and deallocate old array

	mov	rax, QWORD PTR _Myfirst$[rbp]
	cmp	QWORD PTR [rax], 0
	je	$LN2@Tidy

; 1694 :             _Destroy(_Myfirst, _Mylast);

	mov	rax, QWORD PTR _Mylast$[rbp]
	mov	r8, QWORD PTR [rax]
	mov	rax, QWORD PTR _Myfirst$[rbp]
	mov	rdx, QWORD PTR [rax]
	mov	rcx, QWORD PTR this$[rbp]
	call	?_Destroy@?$vector@V?$basic_string@DU?$char_traits@D@std@@V?$allocator@D@2@@std@@V?$allocator@V?$basic_string@DU?$char_traits@D@std@@V?$allocator@D@2@@std@@@2@@std@@AEAAXPEAV?$basic_string@DU?$char_traits@D@std@@V?$allocator@D@2@@2@0@Z ; std::vector<std::basic_string<char,std::char_traits<char>,std::allocator<char> >,std::allocator<std::basic_string<char,std::char_traits<char>,std::allocator<char> > > >::_Destroy

; 1695 :             _Getal().deallocate(_Myfirst, static_cast<size_type>(_Myend - _Myfirst));

	mov	rcx, QWORD PTR this$[rbp]
	call	?_Getal@?$vector@V?$basic_string@DU?$char_traits@D@std@@V?$allocator@D@2@@std@@V?$allocator@V?$basic_string@DU?$char_traits@D@std@@V?$allocator@D@2@@std@@@2@@std@@AEAAAEAV?$allocator@V?$basic_string@DU?$char_traits@D@std@@V?$allocator@D@2@@std@@@2@XZ ; std::vector<std::basic_string<char,std::char_traits<char>,std::allocator<char> >,std::allocator<std::basic_string<char,std::char_traits<char>,std::allocator<char> > > >::_Getal
	mov	QWORD PTR tv90[rbp], rax
	mov	rax, QWORD PTR _Myend$[rbp]
	mov	rcx, QWORD PTR _Myfirst$[rbp]
	mov	rcx, QWORD PTR [rcx]
	mov	rax, QWORD PTR [rax]
	sub	rax, rcx
	cdq
	mov	ecx, 40					; 00000028H
	idiv	rcx
	mov	QWORD PTR tv88[rbp], rax
	mov	rax, QWORD PTR _Myfirst$[rbp]
	mov	rax, QWORD PTR [rax]
	mov	QWORD PTR tv86[rbp], rax
	mov	r8, QWORD PTR tv88[rbp]
	mov	rdx, QWORD PTR tv86[rbp]
	mov	rcx, QWORD PTR tv90[rbp]
	call	?deallocate@?$allocator@V?$basic_string@DU?$char_traits@D@std@@V?$allocator@D@2@@std@@@std@@QEAAXQEAV?$basic_string@DU?$char_traits@D@std@@V?$allocator@D@2@@2@_K@Z ; std::allocator<std::basic_string<char,std::char_traits<char>,std::allocator<char> > >::deallocate

; 1696 : 
; 1697 :             _Myfirst = pointer();

	mov	rax, QWORD PTR _Myfirst$[rbp]
	mov	QWORD PTR [rax], 0

; 1698 :             _Mylast  = pointer();

	mov	rax, QWORD PTR _Mylast$[rbp]
	mov	QWORD PTR [rax], 0

; 1699 :             _Myend   = pointer();

	mov	rax, QWORD PTR _Myend$[rbp]
	mov	QWORD PTR [rax], 0
$LN2@Tidy:

; 1700 :         }
; 1701 :     }

	lea	rsp, QWORD PTR [rbp+344]
	pop	rdi
	pop	rbp
	ret	0
?_Tidy@?$vector@V?$basic_string@DU?$char_traits@D@std@@V?$allocator@D@2@@std@@V?$allocator@V?$basic_string@DU?$char_traits@D@std@@V?$allocator@D@2@@std@@@2@@std@@AEAAXXZ ENDP ; std::vector<std::basic_string<char,std::char_traits<char>,std::allocator<char> >,std::allocator<std::basic_string<char,std::char_traits<char>,std::allocator<char> > > >::_Tidy
_TEXT	ENDS
; Function compile flags: /Odtp /RTCsu /ZI
; File C:\Program Files (x86)\Microsoft Visual Studio\2019\Community\VC\Tools\MSVC\14.27.29110\include\vector
;	COMDAT ?_Destroy@?$vector@V?$basic_string@DU?$char_traits@D@std@@V?$allocator@D@2@@std@@V?$allocator@V?$basic_string@DU?$char_traits@D@std@@V?$allocator@D@2@@std@@@2@@std@@AEAAXPEAV?$basic_string@DU?$char_traits@D@std@@V?$allocator@D@2@@2@0@Z
_TEXT	SEGMENT
this$ = 224
_First$ = 232
_Last$ = 240
?_Destroy@?$vector@V?$basic_string@DU?$char_traits@D@std@@V?$allocator@D@2@@std@@V?$allocator@V?$basic_string@DU?$char_traits@D@std@@V?$allocator@D@2@@std@@@2@@std@@AEAAXPEAV?$basic_string@DU?$char_traits@D@std@@V?$allocator@D@2@@2@0@Z PROC ; std::vector<std::basic_string<char,std::char_traits<char>,std::allocator<char> >,std::allocator<std::basic_string<char,std::char_traits<char>,std::allocator<char> > > >::_Destroy, COMDAT

; 1611 :     void _Destroy(pointer _First, pointer _Last) { // destroy [_First, _Last) using allocator

$LN3:
	mov	QWORD PTR [rsp+24], r8
	mov	QWORD PTR [rsp+16], rdx
	mov	QWORD PTR [rsp+8], rcx
	push	rbp
	push	rdi
	sub	rsp, 232				; 000000e8H
	lea	rbp, QWORD PTR [rsp+32]
	mov	rdi, rsp
	mov	ecx, 58					; 0000003aH
	mov	eax, -858993460				; ccccccccH
	rep stosd
	mov	rcx, QWORD PTR [rsp+264]
	lea	rcx, OFFSET FLAT:__BF2A7ACC_vector
	call	__CheckForDebuggerJustMyCode

; 1612 :         _Destroy_range(_First, _Last, _Getal());

	mov	rcx, QWORD PTR this$[rbp]
	call	?_Getal@?$vector@V?$basic_string@DU?$char_traits@D@std@@V?$allocator@D@2@@std@@V?$allocator@V?$basic_string@DU?$char_traits@D@std@@V?$allocator@D@2@@std@@@2@@std@@AEAAAEAV?$allocator@V?$basic_string@DU?$char_traits@D@std@@V?$allocator@D@2@@std@@@2@XZ ; std::vector<std::basic_string<char,std::char_traits<char>,std::allocator<char> >,std::allocator<std::basic_string<char,std::char_traits<char>,std::allocator<char> > > >::_Getal
	mov	r8, rax
	mov	rdx, QWORD PTR _Last$[rbp]
	mov	rcx, QWORD PTR _First$[rbp]
	call	??$_Destroy_range@V?$allocator@V?$basic_string@DU?$char_traits@D@std@@V?$allocator@D@2@@std@@@std@@@std@@YAXPEAV?$basic_string@DU?$char_traits@D@std@@V?$allocator@D@2@@0@QEAV10@AEAV?$allocator@V?$basic_string@DU?$char_traits@D@std@@V?$allocator@D@2@@std@@@0@@Z ; std::_Destroy_range<std::allocator<std::basic_string<char,std::char_traits<char>,std::allocator<char> > > >

; 1613 :     }

	lea	rsp, QWORD PTR [rbp+200]
	pop	rdi
	pop	rbp
	ret	0
?_Destroy@?$vector@V?$basic_string@DU?$char_traits@D@std@@V?$allocator@D@2@@std@@V?$allocator@V?$basic_string@DU?$char_traits@D@std@@V?$allocator@D@2@@std@@@2@@std@@AEAAXPEAV?$basic_string@DU?$char_traits@D@std@@V?$allocator@D@2@@2@0@Z ENDP ; std::vector<std::basic_string<char,std::char_traits<char>,std::allocator<char> >,std::allocator<std::basic_string<char,std::char_traits<char>,std::allocator<char> > > >::_Destroy
_TEXT	ENDS
; Function compile flags: /Odtp /RTCsu /ZI
; File C:\Program Files (x86)\Microsoft Visual Studio\2019\Community\VC\Tools\MSVC\14.27.29110\include\vector
;	COMDAT ??A?$vector@V?$basic_string@DU?$char_traits@D@std@@V?$allocator@D@2@@std@@V?$allocator@V?$basic_string@DU?$char_traits@D@std@@V?$allocator@D@2@@std@@@2@@std@@QEAAAEAV?$basic_string@DU?$char_traits@D@std@@V?$allocator@D@2@@1@_K@Z
_TEXT	SEGMENT
_My_data$ = 8
this$ = 256
_Pos$ = 264
??A?$vector@V?$basic_string@DU?$char_traits@D@std@@V?$allocator@D@2@@std@@V?$allocator@V?$basic_string@DU?$char_traits@D@std@@V?$allocator@D@2@@std@@@2@@std@@QEAAAEAV?$basic_string@DU?$char_traits@D@std@@V?$allocator@D@2@@1@_K@Z PROC ; std::vector<std::basic_string<char,std::char_traits<char>,std::allocator<char> >,std::allocator<std::basic_string<char,std::char_traits<char>,std::allocator<char> > > >::operator[], COMDAT

; 1497 :     _NODISCARD _Ty& operator[](const size_type _Pos) noexcept /* strengthened */ {

$LN12:
	mov	QWORD PTR [rsp+16], rdx
	mov	QWORD PTR [rsp+8], rcx
	push	rbp
	push	rdi
	sub	rsp, 280				; 00000118H
	lea	rbp, QWORD PTR [rsp+48]
	mov	rdi, rsp
	mov	ecx, 70					; 00000046H
	mov	eax, -858993460				; ccccccccH
	rep stosd
	mov	rcx, QWORD PTR [rsp+312]
	lea	rcx, OFFSET FLAT:__BF2A7ACC_vector
	call	__CheckForDebuggerJustMyCode

; 1498 :         auto& _My_data = _Mypair._Myval2;

	mov	rax, QWORD PTR this$[rbp]
	mov	QWORD PTR _My_data$[rbp], rax
$LN4@operator:

; 1499 : #if _CONTAINER_DEBUG_LEVEL > 0
; 1500 :         _STL_VERIFY(

	mov	rax, QWORD PTR _My_data$[rbp]
	mov	rcx, QWORD PTR _My_data$[rbp]
	mov	rcx, QWORD PTR [rcx+8]
	mov	rax, QWORD PTR [rax+16]
	sub	rax, rcx
	cdq
	mov	ecx, 40					; 00000028H
	idiv	rcx
	cmp	QWORD PTR _Pos$[rbp], rax
	jae	SHORT $LN7@operator
	jmp	SHORT $LN9@operator
$LN7@operator:
	lea	rax, OFFSET FLAT:??_C@_0BO@PFKOHNJC@vector?5subscript?5out?5of?5range@
	mov	QWORD PTR [rsp+40], rax
	lea	rax, OFFSET FLAT:??_C@_02DKCKIIND@?$CFs@
	mov	QWORD PTR [rsp+32], rax
	xor	r9d, r9d
	mov	r8d, 1501				; 000005ddH
	lea	rdx, OFFSET FLAT:??_C@_0GH@HACIOKNJ@C?3?2Program?5Files?5?$CIx86?$CJ?2Microsof@
	mov	ecx, 2
	call	QWORD PTR __imp__CrtDbgReport
	cmp	eax, 1
	jne	SHORT $LN11@operator
	int	3
	xor	eax, eax
$LN11@operator:
	mov	QWORD PTR [rsp+32], 0
	mov	r9d, 1501				; 000005ddH
	lea	r8, OFFSET FLAT:??_C@_1MO@KFAGNMIJ@?$AAC?$AA?3?$AA?2?$AAP?$AAr?$AAo?$AAg?$AAr?$AAa?$AAm?$AA?5?$AAF?$AAi?$AAl?$AAe@
	lea	rdx, OFFSET FLAT:??_C@_1BME@NCIPHHDN@?$AAs?$AAt?$AAd?$AA?3?$AA?3?$AAv?$AAe?$AAc?$AAt?$AAo?$AAr?$AA?$DM?$AAc?$AAl?$AAa@
	lea	rcx, OFFSET FLAT:??_C@_1EA@LEKOKFNB@?$AA?$CC?$AAv?$AAe?$AAc?$AAt?$AAo?$AAr?$AA?5?$AAs?$AAu?$AAb?$AAs?$AAc?$AAr?$AAi@
	call	QWORD PTR __imp__invalid_parameter
	xor	eax, eax
	test	eax, eax
	jne	SHORT $LN7@operator
$LN9@operator:
	xor	eax, eax
	test	eax, eax
	jne	$LN4@operator

; 1501 :             _Pos < static_cast<size_type>(_My_data._Mylast - _My_data._Myfirst), "vector subscript out of range");
; 1502 : #endif // _CONTAINER_DEBUG_LEVEL > 0
; 1503 : 
; 1504 :         return _My_data._Myfirst[_Pos];

	imul	rax, QWORD PTR _Pos$[rbp], 40		; 00000028H
	mov	rcx, QWORD PTR _My_data$[rbp]
	add	rax, QWORD PTR [rcx+8]

; 1505 :     }

	lea	rsp, QWORD PTR [rbp+232]
	pop	rdi
	pop	rbp
	ret	0
??A?$vector@V?$basic_string@DU?$char_traits@D@std@@V?$allocator@D@2@@std@@V?$allocator@V?$basic_string@DU?$char_traits@D@std@@V?$allocator@D@2@@std@@@2@@std@@QEAAAEAV?$basic_string@DU?$char_traits@D@std@@V?$allocator@D@2@@1@_K@Z ENDP ; std::vector<std::basic_string<char,std::char_traits<char>,std::allocator<char> >,std::allocator<std::basic_string<char,std::char_traits<char>,std::allocator<char> > > >::operator[]
_TEXT	ENDS
; Function compile flags: /Odtp /RTCsu /ZI
; File C:\Program Files (x86)\Microsoft Visual Studio\2019\Community\VC\Tools\MSVC\14.27.29110\include\vector
;	COMDAT ??1?$vector@V?$basic_string@DU?$char_traits@D@std@@V?$allocator@D@2@@std@@V?$allocator@V?$basic_string@DU?$char_traits@D@std@@V?$allocator@D@2@@std@@@2@@std@@QEAA@XZ
_TEXT	SEGMENT
_Alproxy$ = 8
$S3$ = 36
$T4 = 260
__$ArrayPad$ = 280
this$ = 320
??1?$vector@V?$basic_string@DU?$char_traits@D@std@@V?$allocator@D@2@@std@@V?$allocator@V?$basic_string@DU?$char_traits@D@std@@V?$allocator@D@2@@std@@@2@@std@@QEAA@XZ PROC ; std::vector<std::basic_string<char,std::char_traits<char>,std::allocator<char> >,std::allocator<std::basic_string<char,std::char_traits<char>,std::allocator<char> > > >::~vector<std::basic_string<char,std::char_traits<char>,std::allocator<char> >,std::allocator<std::basic_string<char,std::char_traits<char>,std::allocator<char> > > >, COMDAT

; 672  :     ~vector() noexcept {

$LN3:
	mov	QWORD PTR [rsp+8], rcx
	push	rbp
	push	rdi
	sub	rsp, 328				; 00000148H
	lea	rbp, QWORD PTR [rsp+32]
	mov	rdi, rsp
	mov	ecx, 82					; 00000052H
	mov	eax, -858993460				; ccccccccH
	rep stosd
	mov	rcx, QWORD PTR [rsp+360]
	mov	rax, QWORD PTR __security_cookie
	xor	rax, rbp
	mov	QWORD PTR __$ArrayPad$[rbp], rax
	lea	rcx, OFFSET FLAT:__BF2A7ACC_vector
	call	__CheckForDebuggerJustMyCode

; 673  :         _Tidy();

	mov	rcx, QWORD PTR this$[rbp]
	call	?_Tidy@?$vector@V?$basic_string@DU?$char_traits@D@std@@V?$allocator@D@2@@std@@V?$allocator@V?$basic_string@DU?$char_traits@D@std@@V?$allocator@D@2@@std@@@2@@std@@AEAAXXZ ; std::vector<std::basic_string<char,std::char_traits<char>,std::allocator<char> >,std::allocator<std::basic_string<char,std::char_traits<char>,std::allocator<char> > > >::_Tidy

; 674  : #if _ITERATOR_DEBUG_LEVEL != 0
; 675  :         auto&& _Alproxy = _GET_PROXY_ALLOCATOR(_Alty, _Getal());

	mov	rcx, QWORD PTR this$[rbp]
	call	?_Getal@?$vector@V?$basic_string@DU?$char_traits@D@std@@V?$allocator@D@2@@std@@V?$allocator@V?$basic_string@DU?$char_traits@D@std@@V?$allocator@D@2@@std@@@2@@std@@AEAAAEAV?$allocator@V?$basic_string@DU?$char_traits@D@std@@V?$allocator@D@2@@std@@@2@XZ ; std::vector<std::basic_string<char,std::char_traits<char>,std::allocator<char> >,std::allocator<std::basic_string<char,std::char_traits<char>,std::allocator<char> > > >::_Getal
	mov	rdx, rax
	lea	rcx, QWORD PTR $S3$[rbp]
	call	??$?0V?$basic_string@DU?$char_traits@D@std@@V?$allocator@D@2@@std@@@?$allocator@U_Container_proxy@std@@@std@@QEAA@AEBV?$allocator@V?$basic_string@DU?$char_traits@D@std@@V?$allocator@D@2@@std@@@1@@Z ; std::allocator<std::_Container_proxy>::allocator<std::_Container_proxy><std::basic_string<char,std::char_traits<char>,std::allocator<char> > >
	lea	rax, QWORD PTR $S3$[rbp]
	mov	QWORD PTR _Alproxy$[rbp], rax

; 676  :         _Delete_plain_internal(_Alproxy, _STD exchange(_Mypair._Myval2._Myproxy, nullptr));

	mov	QWORD PTR $T4[rbp], 0
	mov	rax, QWORD PTR this$[rbp]
	lea	rdx, QWORD PTR $T4[rbp]
	mov	rcx, rax
	call	??$exchange@PEAU_Container_proxy@std@@$$T@std@@YAPEAU_Container_proxy@0@AEAPEAU10@$$QEA$$T@Z ; std::exchange<std::_Container_proxy *,std::nullptr_t>
	mov	rdx, rax
	mov	rcx, QWORD PTR _Alproxy$[rbp]
	call	??$_Delete_plain_internal@V?$allocator@U_Container_proxy@std@@@std@@@std@@YAXAEAV?$allocator@U_Container_proxy@std@@@0@QEAU_Container_proxy@0@@Z ; std::_Delete_plain_internal<std::allocator<std::_Container_proxy> >

; 677  : #endif // _ITERATOR_DEBUG_LEVEL != 0
; 678  :     }

	lea	rcx, QWORD PTR [rbp-32]
	lea	rdx, OFFSET FLAT:??1?$vector@V?$basic_string@DU?$char_traits@D@std@@V?$allocator@D@2@@std@@V?$allocator@V?$basic_string@DU?$char_traits@D@std@@V?$allocator@D@2@@std@@@2@@std@@QEAA@XZ$rtcFrameData
	call	_RTC_CheckStackVars
	npad	1
	mov	rcx, QWORD PTR __$ArrayPad$[rbp]
	xor	rcx, rbp
	call	__security_check_cookie
	lea	rsp, QWORD PTR [rbp+296]
	pop	rdi
	pop	rbp
	ret	0
??1?$vector@V?$basic_string@DU?$char_traits@D@std@@V?$allocator@D@2@@std@@V?$allocator@V?$basic_string@DU?$char_traits@D@std@@V?$allocator@D@2@@std@@@2@@std@@QEAA@XZ ENDP ; std::vector<std::basic_string<char,std::char_traits<char>,std::allocator<char> >,std::allocator<std::basic_string<char,std::char_traits<char>,std::allocator<char> > > >::~vector<std::basic_string<char,std::char_traits<char>,std::allocator<char> >,std::allocator<std::basic_string<char,std::char_traits<char>,std::allocator<char> > > >
_TEXT	ENDS
; Function compile flags: /Odtp /RTCsu /ZI
; File C:\Program Files (x86)\Microsoft Visual Studio\2019\Community\VC\Tools\MSVC\14.27.29110\include\xmemory
;	COMDAT ?deallocate@?$allocator@V?$basic_string@DU?$char_traits@D@std@@V?$allocator@D@2@@std@@@std@@QEAAXQEAV?$basic_string@DU?$char_traits@D@std@@V?$allocator@D@2@@2@_K@Z
_TEXT	SEGMENT
this$ = 224
_Ptr$ = 232
_Count$ = 240
?deallocate@?$allocator@V?$basic_string@DU?$char_traits@D@std@@V?$allocator@D@2@@std@@@std@@QEAAXQEAV?$basic_string@DU?$char_traits@D@std@@V?$allocator@D@2@@2@_K@Z PROC ; std::allocator<std::basic_string<char,std::char_traits<char>,std::allocator<char> > >::deallocate, COMDAT

; 801  :     void deallocate(_Ty* const _Ptr, const size_t _Count) {

$LN3:
	mov	QWORD PTR [rsp+24], r8
	mov	QWORD PTR [rsp+16], rdx
	mov	QWORD PTR [rsp+8], rcx
	push	rbp
	push	rdi
	sub	rsp, 232				; 000000e8H
	lea	rbp, QWORD PTR [rsp+32]
	mov	rdi, rsp
	mov	ecx, 58					; 0000003aH
	mov	eax, -858993460				; ccccccccH
	rep stosd
	mov	rcx, QWORD PTR [rsp+264]
	lea	rcx, OFFSET FLAT:__A58979FC_xmemory
	call	__CheckForDebuggerJustMyCode

; 802  :         // no overflow check on the following multiply; we assume _Allocate did that check
; 803  :         _Deallocate<_New_alignof<_Ty>>(_Ptr, sizeof(_Ty) * _Count);

	imul	rax, QWORD PTR _Count$[rbp], 40		; 00000028H
	mov	rdx, rax
	mov	rcx, QWORD PTR _Ptr$[rbp]
	call	??$_Deallocate@$0BA@$0A@@std@@YAXPEAX_K@Z ; std::_Deallocate<16,0>

; 804  :     }

	lea	rsp, QWORD PTR [rbp+200]
	pop	rdi
	pop	rbp
	ret	0
?deallocate@?$allocator@V?$basic_string@DU?$char_traits@D@std@@V?$allocator@D@2@@std@@@std@@QEAAXQEAV?$basic_string@DU?$char_traits@D@std@@V?$allocator@D@2@@2@_K@Z ENDP ; std::allocator<std::basic_string<char,std::char_traits<char>,std::allocator<char> > >::deallocate
_TEXT	ENDS
; Function compile flags: /Odtp /RTCsu /ZI
;	COMDAT ??_G?$basic_string@DU?$char_traits@D@std@@V?$allocator@D@2@@std@@QEAAPEAXI@Z
_TEXT	SEGMENT
this$ = 224
__flags$ = 232
??_G?$basic_string@DU?$char_traits@D@std@@V?$allocator@D@2@@std@@QEAAPEAXI@Z PROC ; std::basic_string<char,std::char_traits<char>,std::allocator<char> >::`scalar deleting destructor', COMDAT
$LN4:
	mov	DWORD PTR [rsp+16], edx
	mov	QWORD PTR [rsp+8], rcx
	push	rbp
	push	rdi
	sub	rsp, 232				; 000000e8H
	lea	rbp, QWORD PTR [rsp+32]
	mov	rdi, rsp
	mov	ecx, 58					; 0000003aH
	mov	eax, -858993460				; ccccccccH
	rep stosd
	mov	rcx, QWORD PTR [rsp+264]
	mov	rcx, QWORD PTR this$[rbp]
	call	??1?$basic_string@DU?$char_traits@D@std@@V?$allocator@D@2@@std@@QEAA@XZ ; std::basic_string<char,std::char_traits<char>,std::allocator<char> >::~basic_string<char,std::char_traits<char>,std::allocator<char> >
	mov	eax, DWORD PTR __flags$[rbp]
	and	eax, 1
	test	eax, eax
	je	SHORT $LN2@scalar
	mov	edx, 40					; 00000028H
	mov	rcx, QWORD PTR this$[rbp]
	call	??3@YAXPEAX_K@Z				; operator delete
$LN2@scalar:
	mov	rax, QWORD PTR this$[rbp]
	lea	rsp, QWORD PTR [rbp+200]
	pop	rdi
	pop	rbp
	ret	0
??_G?$basic_string@DU?$char_traits@D@std@@V?$allocator@D@2@@std@@QEAAPEAXI@Z ENDP ; std::basic_string<char,std::char_traits<char>,std::allocator<char> >::`scalar deleting destructor'
_TEXT	ENDS
; Function compile flags: /Odtp /RTCsu /ZI
;	COMDAT ??1?$_Compressed_pair@V?$allocator@D@std@@V?$_String_val@U?$_Simple_types@D@std@@@2@$00@std@@QEAA@XZ
_TEXT	SEGMENT
this$ = 224
??1?$_Compressed_pair@V?$allocator@D@std@@V?$_String_val@U?$_Simple_types@D@std@@@2@$00@std@@QEAA@XZ PROC ; std::_Compressed_pair<std::allocator<char>,std::_String_val<std::_Simple_types<char> >,1>::~_Compressed_pair<std::allocator<char>,std::_String_val<std::_Simple_types<char> >,1>, COMDAT
$LN3:
	mov	QWORD PTR [rsp+8], rcx
	push	rbp
	push	rdi
	sub	rsp, 232				; 000000e8H
	lea	rbp, QWORD PTR [rsp+32]
	mov	rdi, rsp
	mov	ecx, 58					; 0000003aH
	mov	eax, -858993460				; ccccccccH
	rep stosd
	mov	rcx, QWORD PTR [rsp+264]
	mov	rax, QWORD PTR this$[rbp]
	mov	rcx, rax
	call	??1?$_String_val@U?$_Simple_types@D@std@@@std@@QEAA@XZ
	lea	rsp, QWORD PTR [rbp+200]
	pop	rdi
	pop	rbp
	ret	0
??1?$_Compressed_pair@V?$allocator@D@std@@V?$_String_val@U?$_Simple_types@D@std@@@2@$00@std@@QEAA@XZ ENDP ; std::_Compressed_pair<std::allocator<char>,std::_String_val<std::_Simple_types<char> >,1>::~_Compressed_pair<std::allocator<char>,std::_String_val<std::_Simple_types<char> >,1>
_TEXT	ENDS
; Function compile flags: /Odtp /RTCsu /ZI
; File C:\Program Files (x86)\Microsoft Visual Studio\2019\Community\VC\Tools\MSVC\14.27.29110\include\xmemory
;	COMDAT ?_Get_first@?$_Compressed_pair@V?$allocator@D@std@@V?$_String_val@U?$_Simple_types@D@std@@@2@$00@std@@QEAAAEAV?$allocator@D@2@XZ
_TEXT	SEGMENT
this$ = 224
?_Get_first@?$_Compressed_pair@V?$allocator@D@std@@V?$_String_val@U?$_Simple_types@D@std@@@2@$00@std@@QEAAAEAV?$allocator@D@2@XZ PROC ; std::_Compressed_pair<std::allocator<char>,std::_String_val<std::_Simple_types<char> >,1>::_Get_first, COMDAT

; 1343 :     constexpr _Ty1& _Get_first() noexcept {

$LN3:
	mov	QWORD PTR [rsp+8], rcx
	push	rbp
	push	rdi
	sub	rsp, 232				; 000000e8H
	lea	rbp, QWORD PTR [rsp+32]
	mov	rdi, rsp
	mov	ecx, 58					; 0000003aH
	mov	eax, -858993460				; ccccccccH
	rep stosd
	mov	rcx, QWORD PTR [rsp+264]
	lea	rcx, OFFSET FLAT:__A58979FC_xmemory
	call	__CheckForDebuggerJustMyCode

; 1344 :         return *this;

	mov	rax, QWORD PTR this$[rbp]

; 1345 :     }

	lea	rsp, QWORD PTR [rbp+200]
	pop	rdi
	pop	rbp
	ret	0
?_Get_first@?$_Compressed_pair@V?$allocator@D@std@@V?$_String_val@U?$_Simple_types@D@std@@@2@$00@std@@QEAAAEAV?$allocator@D@2@XZ ENDP ; std::_Compressed_pair<std::allocator<char>,std::_String_val<std::_Simple_types<char> >,1>::_Get_first
_TEXT	ENDS
; Function compile flags: /Odtp /RTCsu /ZI
; File C:\Program Files (x86)\Microsoft Visual Studio\2019\Community\VC\Tools\MSVC\14.27.29110\include\xstring
;	COMDAT ?_Getal@?$basic_string@DU?$char_traits@D@std@@V?$allocator@D@2@@std@@AEAAAEAV?$allocator@D@2@XZ
_TEXT	SEGMENT
this$ = 224
?_Getal@?$basic_string@DU?$char_traits@D@std@@V?$allocator@D@2@@std@@AEAAAEAV?$allocator@D@2@XZ PROC ; std::basic_string<char,std::char_traits<char>,std::allocator<char> >::_Getal, COMDAT

; 4324 :     _Alty& _Getal() noexcept {

$LN3:
	mov	QWORD PTR [rsp+8], rcx
	push	rbp
	push	rdi
	sub	rsp, 232				; 000000e8H
	lea	rbp, QWORD PTR [rsp+32]
	mov	rdi, rsp
	mov	ecx, 58					; 0000003aH
	mov	eax, -858993460				; ccccccccH
	rep stosd
	mov	rcx, QWORD PTR [rsp+264]
	lea	rcx, OFFSET FLAT:__D15AFF60_xstring
	call	__CheckForDebuggerJustMyCode

; 4325 :         return _Mypair._Get_first();

	mov	rax, QWORD PTR this$[rbp]
	mov	rcx, rax
	call	?_Get_first@?$_Compressed_pair@V?$allocator@D@std@@V?$_String_val@U?$_Simple_types@D@std@@@2@$00@std@@QEAAAEAV?$allocator@D@2@XZ ; std::_Compressed_pair<std::allocator<char>,std::_String_val<std::_Simple_types<char> >,1>::_Get_first
	npad	1

; 4326 :     }

	lea	rsp, QWORD PTR [rbp+200]
	pop	rdi
	pop	rbp
	ret	0
?_Getal@?$basic_string@DU?$char_traits@D@std@@V?$allocator@D@2@@std@@AEAAAEAV?$allocator@D@2@XZ ENDP ; std::basic_string<char,std::char_traits<char>,std::allocator<char> >::_Getal
_TEXT	ENDS
; Function compile flags: /Odtp /RTCsu /ZI
; File C:\Program Files (x86)\Microsoft Visual Studio\2019\Community\VC\Tools\MSVC\14.27.29110\include\xstring
;	COMDAT ?_Tidy_deallocate@?$basic_string@DU?$char_traits@D@std@@V?$allocator@D@2@@std@@AEAAXXZ
_TEXT	SEGMENT
_Ptr$1 = 8
_Al$2 = 40
$T3 = 260
this$ = 320
?_Tidy_deallocate@?$basic_string@DU?$char_traits@D@std@@V?$allocator@D@2@@std@@AEAAXXZ PROC ; std::basic_string<char,std::char_traits<char>,std::allocator<char> >::_Tidy_deallocate, COMDAT

; 4299 :     void _Tidy_deallocate() noexcept { // initialize buffer, deallocating any storage

$LN4:
	mov	QWORD PTR [rsp+8], rcx
	push	rbp
	push	rdi
	sub	rsp, 328				; 00000148H
	lea	rbp, QWORD PTR [rsp+32]
	mov	rdi, rsp
	mov	ecx, 82					; 00000052H
	mov	eax, -858993460				; ccccccccH
	rep stosd
	mov	rcx, QWORD PTR [rsp+360]
	lea	rcx, OFFSET FLAT:__D15AFF60_xstring
	call	__CheckForDebuggerJustMyCode

; 4300 :         _Mypair._Myval2._Orphan_all();

	mov	rax, QWORD PTR this$[rbp]
	mov	rcx, rax
	call	?_Orphan_all@_Container_base12@std@@QEAAXXZ ; std::_Container_base12::_Orphan_all

; 4301 :         if (_Mypair._Myval2._Large_string_engaged()) {

	mov	rax, QWORD PTR this$[rbp]
	mov	rcx, rax
	call	?_Large_string_engaged@?$_String_val@U?$_Simple_types@D@std@@@std@@QEBA_NXZ ; std::_String_val<std::_Simple_types<char> >::_Large_string_engaged
	movzx	eax, al
	test	eax, eax
	je	SHORT $LN2@Tidy_deall

; 4302 :             const pointer _Ptr = _Mypair._Myval2._Bx._Ptr;

	mov	rax, QWORD PTR this$[rbp]
	mov	rax, QWORD PTR [rax+8]
	mov	QWORD PTR _Ptr$1[rbp], rax

; 4303 :             auto& _Al          = _Getal();

	mov	rcx, QWORD PTR this$[rbp]
	call	?_Getal@?$basic_string@DU?$char_traits@D@std@@V?$allocator@D@2@@std@@AEAAAEAV?$allocator@D@2@XZ ; std::basic_string<char,std::char_traits<char>,std::allocator<char> >::_Getal
	mov	QWORD PTR _Al$2[rbp], rax

; 4304 :             _Destroy_in_place(_Mypair._Myval2._Bx._Ptr);

	mov	rax, QWORD PTR this$[rbp]
	add	rax, 8
	mov	rcx, rax
	call	??$_Destroy_in_place@PEAD@std@@YAXAEAPEAD@Z ; std::_Destroy_in_place<char *>

; 4305 :             _Al.deallocate(_Ptr, _Mypair._Myval2._Myres + 1);

	mov	rax, QWORD PTR this$[rbp]
	mov	rax, QWORD PTR [rax+32]
	inc	rax
	mov	r8, rax
	mov	rdx, QWORD PTR _Ptr$1[rbp]
	mov	rcx, QWORD PTR _Al$2[rbp]
	call	?deallocate@?$allocator@D@std@@QEAAXQEAD_K@Z ; std::allocator<char>::deallocate
$LN2@Tidy_deall:

; 4306 :         }
; 4307 : 
; 4308 :         _Mypair._Myval2._Mysize = 0;

	mov	rax, QWORD PTR this$[rbp]
	mov	QWORD PTR [rax+24], 0

; 4309 :         _Mypair._Myval2._Myres  = _BUF_SIZE - 1;

	mov	rax, QWORD PTR this$[rbp]
	mov	QWORD PTR [rax+32], 15

; 4310 :         // the _Traits::assign is last so the codegen doesn't think the char write can alias this
; 4311 :         _Traits::assign(_Mypair._Myval2._Bx._Buf[0], _Elem());

	mov	BYTE PTR $T3[rbp], 0
	mov	eax, 1
	imul	rax, rax, 0
	mov	rcx, QWORD PTR this$[rbp]
	lea	rax, QWORD PTR [rcx+rax+8]
	lea	rdx, QWORD PTR $T3[rbp]
	mov	rcx, rax
	call	?assign@?$_Narrow_char_traits@DH@std@@SAXAEADAEBD@Z ; std::_Narrow_char_traits<char,int>::assign
	npad	1

; 4312 :     }

	lea	rsp, QWORD PTR [rbp+296]
	pop	rdi
	pop	rbp
	ret	0
?_Tidy_deallocate@?$basic_string@DU?$char_traits@D@std@@V?$allocator@D@2@@std@@AEAAXXZ ENDP ; std::basic_string<char,std::char_traits<char>,std::allocator<char> >::_Tidy_deallocate
_TEXT	ENDS
; Function compile flags: /Odtp /RTCsu /ZI
; File C:\Program Files (x86)\Microsoft Visual Studio\2019\Community\VC\Tools\MSVC\14.27.29110\include\xstring
;	COMDAT ?_Equal@?$basic_string@DU?$char_traits@D@std@@V?$allocator@D@2@@std@@QEBA_NQEBD@Z
_TEXT	SEGMENT
tv83 = 192
tv81 = 200
tv79 = 208
this$ = 256
_Ptr$ = 264
?_Equal@?$basic_string@DU?$char_traits@D@std@@V?$allocator@D@2@@std@@QEBA_NQEBD@Z PROC ; std::basic_string<char,std::char_traits<char>,std::allocator<char> >::_Equal, COMDAT

; 4095 :     bool _Equal(_In_z_ const _Elem* const _Ptr) const noexcept { // compare [0, size()) with _Ptr for equality

$LN3:
	mov	QWORD PTR [rsp+16], rdx
	mov	QWORD PTR [rsp+8], rcx
	push	rbp
	push	rdi
	sub	rsp, 264				; 00000108H
	lea	rbp, QWORD PTR [rsp+32]
	mov	rdi, rsp
	mov	ecx, 66					; 00000042H
	mov	eax, -858993460				; ccccccccH
	rep stosd
	mov	rcx, QWORD PTR [rsp+296]
	lea	rcx, OFFSET FLAT:__D15AFF60_xstring
	call	__CheckForDebuggerJustMyCode

; 4096 :         return _Traits_equal<_Traits>(_Mypair._Myval2._Myptr(), _Mypair._Myval2._Mysize, _Ptr, _Traits::length(_Ptr));

	mov	rcx, QWORD PTR _Ptr$[rbp]
	call	?length@?$_Narrow_char_traits@DH@std@@SA_KQEBD@Z ; std::_Narrow_char_traits<char,int>::length
	mov	QWORD PTR tv83[rbp], rax
	mov	rax, QWORD PTR this$[rbp]
	mov	rax, QWORD PTR [rax+24]
	mov	QWORD PTR tv81[rbp], rax
	mov	rax, QWORD PTR this$[rbp]
	mov	rcx, rax
	call	?_Myptr@?$_String_val@U?$_Simple_types@D@std@@@std@@QEBAPEBDXZ ; std::_String_val<std::_Simple_types<char> >::_Myptr
	mov	QWORD PTR tv79[rbp], rax
	mov	r9, QWORD PTR tv83[rbp]
	mov	r8, QWORD PTR _Ptr$[rbp]
	mov	rdx, QWORD PTR tv81[rbp]
	mov	rcx, QWORD PTR tv79[rbp]
	call	??$_Traits_equal@U?$char_traits@D@std@@@std@@YA_NQEBD_K01@Z ; std::_Traits_equal<std::char_traits<char> >
	npad	1

; 4097 :     }

	lea	rsp, QWORD PTR [rbp+232]
	pop	rdi
	pop	rbp
	ret	0
?_Equal@?$basic_string@DU?$char_traits@D@std@@V?$allocator@D@2@@std@@QEBA_NQEBD@Z ENDP ; std::basic_string<char,std::char_traits<char>,std::allocator<char> >::_Equal
_TEXT	ENDS
; Function compile flags: /Odtp /RTCsu /ZI
; File C:\Program Files (x86)\Microsoft Visual Studio\2019\Community\VC\Tools\MSVC\14.27.29110\include\xstring
;	COMDAT ??1?$basic_string@DU?$char_traits@D@std@@V?$allocator@D@2@@std@@QEAA@XZ
_TEXT	SEGMENT
_Alproxy$ = 8
$S11$ = 36
_To_delete$ = 72
__$ArrayPad$ = 280
this$ = 320
??1?$basic_string@DU?$char_traits@D@std@@V?$allocator@D@2@@std@@QEAA@XZ PROC ; std::basic_string<char,std::char_traits<char>,std::allocator<char> >::~basic_string<char,std::char_traits<char>,std::allocator<char> >, COMDAT

; 2722 :     ~basic_string() noexcept {

$LN3:
	mov	QWORD PTR [rsp+8], rcx
	push	rbp
	push	rdi
	sub	rsp, 328				; 00000148H
	lea	rbp, QWORD PTR [rsp+32]
	mov	rdi, rsp
	mov	ecx, 82					; 00000052H
	mov	eax, -858993460				; ccccccccH
	rep stosd
	mov	rcx, QWORD PTR [rsp+360]
	mov	rax, QWORD PTR __security_cookie
	xor	rax, rbp
	mov	QWORD PTR __$ArrayPad$[rbp], rax
	lea	rcx, OFFSET FLAT:__D15AFF60_xstring
	call	__CheckForDebuggerJustMyCode

; 2723 :         _Tidy_deallocate();

	mov	rcx, QWORD PTR this$[rbp]
	call	?_Tidy_deallocate@?$basic_string@DU?$char_traits@D@std@@V?$allocator@D@2@@std@@AEAAXXZ ; std::basic_string<char,std::char_traits<char>,std::allocator<char> >::_Tidy_deallocate

; 2724 : #if _ITERATOR_DEBUG_LEVEL != 0
; 2725 :         auto&& _Alproxy          = _GET_PROXY_ALLOCATOR(_Alty, _Getal());

	mov	rcx, QWORD PTR this$[rbp]
	call	?_Getal@?$basic_string@DU?$char_traits@D@std@@V?$allocator@D@2@@std@@AEAAAEAV?$allocator@D@2@XZ ; std::basic_string<char,std::char_traits<char>,std::allocator<char> >::_Getal
	mov	rdx, rax
	lea	rcx, QWORD PTR $S11$[rbp]
	call	??$?0D@?$allocator@U_Container_proxy@std@@@std@@QEAA@AEBV?$allocator@D@1@@Z ; std::allocator<std::_Container_proxy>::allocator<std::_Container_proxy><char>
	lea	rax, QWORD PTR $S11$[rbp]
	mov	QWORD PTR _Alproxy$[rbp], rax

; 2726 :         const auto _To_delete    = _Mypair._Myval2._Myproxy;

	mov	rax, QWORD PTR this$[rbp]
	mov	rax, QWORD PTR [rax]
	mov	QWORD PTR _To_delete$[rbp], rax

; 2727 :         _Mypair._Myval2._Myproxy = nullptr;

	mov	rax, QWORD PTR this$[rbp]
	mov	QWORD PTR [rax], 0

; 2728 :         _Delete_plain_internal(_Alproxy, _To_delete);

	mov	rdx, QWORD PTR _To_delete$[rbp]
	mov	rcx, QWORD PTR _Alproxy$[rbp]
	call	??$_Delete_plain_internal@V?$allocator@U_Container_proxy@std@@@std@@@std@@YAXAEAV?$allocator@U_Container_proxy@std@@@0@QEAU_Container_proxy@0@@Z ; std::_Delete_plain_internal<std::allocator<std::_Container_proxy> >

; 2729 : #endif // _ITERATOR_DEBUG_LEVEL != 0
; 2730 :     }

	mov	rax, QWORD PTR this$[rbp]
	mov	rcx, rax
	call	??1?$_Compressed_pair@V?$allocator@D@std@@V?$_String_val@U?$_Simple_types@D@std@@@2@$00@std@@QEAA@XZ
	lea	rcx, QWORD PTR [rbp-32]
	lea	rdx, OFFSET FLAT:??1?$basic_string@DU?$char_traits@D@std@@V?$allocator@D@2@@std@@QEAA@XZ$rtcFrameData
	call	_RTC_CheckStackVars
	npad	1
	mov	rcx, QWORD PTR __$ArrayPad$[rbp]
	xor	rcx, rbp
	call	__security_check_cookie
	lea	rsp, QWORD PTR [rbp+296]
	pop	rdi
	pop	rbp
	ret	0
??1?$basic_string@DU?$char_traits@D@std@@V?$allocator@D@2@@std@@QEAA@XZ ENDP ; std::basic_string<char,std::char_traits<char>,std::allocator<char> >::~basic_string<char,std::char_traits<char>,std::allocator<char> >
_TEXT	ENDS
; Function compile flags: /Odtp /RTCsu /ZI
;	COMDAT ??1?$_String_val@U?$_Simple_types@D@std@@@std@@QEAA@XZ
_TEXT	SEGMENT
this$ = 224
??1?$_String_val@U?$_Simple_types@D@std@@@std@@QEAA@XZ PROC ; std::_String_val<std::_Simple_types<char> >::~_String_val<std::_Simple_types<char> >, COMDAT
$LN3:
	mov	QWORD PTR [rsp+8], rcx
	push	rbp
	push	rdi
	sub	rsp, 232				; 000000e8H
	lea	rbp, QWORD PTR [rsp+32]
	mov	rdi, rsp
	mov	ecx, 58					; 0000003aH
	mov	eax, -858993460				; ccccccccH
	rep stosd
	mov	rcx, QWORD PTR [rsp+264]
	mov	rax, QWORD PTR this$[rbp]
	add	rax, 8
	mov	rcx, rax
	call	??1_Bxty@?$_String_val@U?$_Simple_types@D@std@@@std@@QEAA@XZ ; std::_String_val<std::_Simple_types<char> >::_Bxty::~_Bxty
	lea	rsp, QWORD PTR [rbp+200]
	pop	rdi
	pop	rbp
	ret	0
??1?$_String_val@U?$_Simple_types@D@std@@@std@@QEAA@XZ ENDP ; std::_String_val<std::_Simple_types<char> >::~_String_val<std::_Simple_types<char> >
_TEXT	ENDS
; Function compile flags: /Odtp /RTCsu /ZI
; File C:\Program Files (x86)\Microsoft Visual Studio\2019\Community\VC\Tools\MSVC\14.27.29110\include\xstring
;	COMDAT ??1_Bxty@?$_String_val@U?$_Simple_types@D@std@@@std@@QEAA@XZ
_TEXT	SEGMENT
this$ = 224
??1_Bxty@?$_String_val@U?$_Simple_types@D@std@@@std@@QEAA@XZ PROC ; std::_String_val<std::_Simple_types<char> >::_Bxty::~_Bxty, COMDAT

; 2180 :         ~_Bxty() noexcept {} // user-provided, for fancy pointers

$LN3:
	mov	QWORD PTR [rsp+8], rcx
	push	rbp
	push	rdi
	sub	rsp, 232				; 000000e8H
	lea	rbp, QWORD PTR [rsp+32]
	mov	rdi, rsp
	mov	ecx, 58					; 0000003aH
	mov	eax, -858993460				; ccccccccH
	rep stosd
	mov	rcx, QWORD PTR [rsp+264]
	lea	rcx, OFFSET FLAT:__D15AFF60_xstring
	call	__CheckForDebuggerJustMyCode
	npad	1
	lea	rsp, QWORD PTR [rbp+200]
	pop	rdi
	pop	rbp
	ret	0
??1_Bxty@?$_String_val@U?$_Simple_types@D@std@@@std@@QEAA@XZ ENDP ; std::_String_val<std::_Simple_types<char> >::_Bxty::~_Bxty
_TEXT	ENDS
; Function compile flags: /Odtp /RTCsu /ZI
; File C:\Program Files (x86)\Microsoft Visual Studio\2019\Community\VC\Tools\MSVC\14.27.29110\include\xstring
;	COMDAT ?_Large_string_engaged@?$_String_val@U?$_Simple_types@D@std@@@std@@QEBA_NXZ
_TEXT	SEGMENT
tv66 = 192
this$ = 240
?_Large_string_engaged@?$_String_val@U?$_Simple_types@D@std@@@std@@QEBA_NXZ PROC ; std::_String_val<std::_Simple_types<char> >::_Large_string_engaged, COMDAT

; 2152 :     bool _Large_string_engaged() const noexcept {

$LN5:
	mov	QWORD PTR [rsp+8], rcx
	push	rbp
	push	rdi
	sub	rsp, 248				; 000000f8H
	lea	rbp, QWORD PTR [rsp+32]
	mov	rdi, rsp
	mov	ecx, 62					; 0000003eH
	mov	eax, -858993460				; ccccccccH
	rep stosd
	mov	rcx, QWORD PTR [rsp+280]
	lea	rcx, OFFSET FLAT:__D15AFF60_xstring
	call	__CheckForDebuggerJustMyCode

; 2153 :         return _BUF_SIZE <= _Myres;

	mov	rax, QWORD PTR this$[rbp]
	cmp	QWORD PTR [rax+32], 16
	jb	SHORT $LN3@Large_stri
	mov	DWORD PTR tv66[rbp], 1
	jmp	SHORT $LN4@Large_stri
$LN3@Large_stri:
	mov	DWORD PTR tv66[rbp], 0
$LN4@Large_stri:
	movzx	eax, BYTE PTR tv66[rbp]

; 2154 :     }

	lea	rsp, QWORD PTR [rbp+216]
	pop	rdi
	pop	rbp
	ret	0
?_Large_string_engaged@?$_String_val@U?$_Simple_types@D@std@@@std@@QEBA_NXZ ENDP ; std::_String_val<std::_Simple_types<char> >::_Large_string_engaged
_TEXT	ENDS
; Function compile flags: /Odtp /RTCsu /ZI
; File C:\Program Files (x86)\Microsoft Visual Studio\2019\Community\VC\Tools\MSVC\14.27.29110\include\xstring
;	COMDAT ?_Myptr@?$_String_val@U?$_Simple_types@D@std@@@std@@QEBAPEBDXZ
_TEXT	SEGMENT
_Result$ = 8
this$ = 256
?_Myptr@?$_String_val@U?$_Simple_types@D@std@@@std@@QEBAPEBDXZ PROC ; std::_String_val<std::_Simple_types<char> >::_Myptr, COMDAT

; 2143 :     const value_type* _Myptr() const noexcept {

$LN4:
	mov	QWORD PTR [rsp+8], rcx
	push	rbp
	push	rdi
	sub	rsp, 264				; 00000108H
	lea	rbp, QWORD PTR [rsp+32]
	mov	rdi, rsp
	mov	ecx, 66					; 00000042H
	mov	eax, -858993460				; ccccccccH
	rep stosd
	mov	rcx, QWORD PTR [rsp+296]
	lea	rcx, OFFSET FLAT:__D15AFF60_xstring
	call	__CheckForDebuggerJustMyCode

; 2144 :         const value_type* _Result = _Bx._Buf;

	mov	rax, QWORD PTR this$[rbp]
	add	rax, 8
	mov	QWORD PTR _Result$[rbp], rax

; 2145 :         if (_Large_string_engaged()) {

	mov	rcx, QWORD PTR this$[rbp]
	call	?_Large_string_engaged@?$_String_val@U?$_Simple_types@D@std@@@std@@QEBA_NXZ ; std::_String_val<std::_Simple_types<char> >::_Large_string_engaged
	movzx	eax, al
	test	eax, eax
	je	SHORT $LN2@Myptr

; 2146 :             _Result = _Unfancy(_Bx._Ptr);

	mov	rax, QWORD PTR this$[rbp]
	mov	rcx, QWORD PTR [rax+8]
	call	??$_Unfancy@D@std@@YAPEADPEAD@Z		; std::_Unfancy<char>
	mov	QWORD PTR _Result$[rbp], rax
$LN2@Myptr:

; 2147 :         }
; 2148 : 
; 2149 :         return _Result;

	mov	rax, QWORD PTR _Result$[rbp]

; 2150 :     }

	lea	rsp, QWORD PTR [rbp+232]
	pop	rdi
	pop	rbp
	ret	0
?_Myptr@?$_String_val@U?$_Simple_types@D@std@@@std@@QEBAPEBDXZ ENDP ; std::_String_val<std::_Simple_types<char> >::_Myptr
_TEXT	ENDS
; Function compile flags: /Odtp /RTCsu /ZI
; File C:\Program Files (x86)\Microsoft Visual Studio\2019\Community\VC\Tools\MSVC\14.27.29110\include\xstring
;	COMDAT ?assign@?$_Narrow_char_traits@DH@std@@SAXAEADAEBD@Z
_TEXT	SEGMENT
_Left$ = 224
_Right$ = 232
?assign@?$_Narrow_char_traits@DH@std@@SAXAEADAEBD@Z PROC ; std::_Narrow_char_traits<char,int>::assign, COMDAT

; 372  :     static _CONSTEXPR17 void assign(_Elem& _Left, const _Elem& _Right) noexcept {

$LN3:
	mov	QWORD PTR [rsp+16], rdx
	mov	QWORD PTR [rsp+8], rcx
	push	rbp
	push	rdi
	sub	rsp, 232				; 000000e8H
	lea	rbp, QWORD PTR [rsp+32]
	mov	rdi, rsp
	mov	ecx, 58					; 0000003aH
	mov	eax, -858993460				; ccccccccH
	rep stosd
	mov	rcx, QWORD PTR [rsp+264]
	lea	rcx, OFFSET FLAT:__D15AFF60_xstring
	call	__CheckForDebuggerJustMyCode

; 373  :         _Left = _Right;

	mov	rax, QWORD PTR _Left$[rbp]
	mov	rcx, QWORD PTR _Right$[rbp]
	movzx	ecx, BYTE PTR [rcx]
	mov	BYTE PTR [rax], cl

; 374  :     }

	lea	rsp, QWORD PTR [rbp+200]
	pop	rdi
	pop	rbp
	ret	0
?assign@?$_Narrow_char_traits@DH@std@@SAXAEADAEBD@Z ENDP ; std::_Narrow_char_traits<char,int>::assign
_TEXT	ENDS
; Function compile flags: /Odtp /RTCsu /ZI
; File C:\Program Files (x86)\Microsoft Visual Studio\2019\Community\VC\Tools\MSVC\14.27.29110\include\xstring
;	COMDAT ?length@?$_Narrow_char_traits@DH@std@@SA_KQEBD@Z
_TEXT	SEGMENT
tv68 = 192
tv69 = 200
_First$ = 240
?length@?$_Narrow_char_traits@DH@std@@SA_KQEBD@Z PROC	; std::_Narrow_char_traits<char,int>::length, COMDAT

; 305  :     _NODISCARD static _CONSTEXPR17 size_t length(_In_z_ const _Elem* const _First) noexcept /* strengthened */ {

$LN4:
	mov	QWORD PTR [rsp+8], rcx
	push	rbp
	push	rdi
	sub	rsp, 248				; 000000f8H
	lea	rbp, QWORD PTR [rsp+32]
	mov	rdi, rsp
	mov	ecx, 62					; 0000003eH
	mov	eax, -858993460				; ccccccccH
	rep stosd
	mov	rcx, QWORD PTR [rsp+280]
	lea	rcx, OFFSET FLAT:__D15AFF60_xstring
	call	__CheckForDebuggerJustMyCode

; 306  :         // find length of null-terminated string
; 307  : #if _HAS_CXX17
; 308  : #ifdef __cpp_char8_t
; 309  :         if constexpr (is_same_v<_Elem, char8_t>) {
; 310  : #if _HAS_U8_INTRINSICS
; 311  :             return __builtin_u8strlen(_First);
; 312  : #else // ^^^ use u8 intrinsics / no u8 intrinsics vvv
; 313  :             return _Char_traits<_Elem, _Int_type>::length(_First);
; 314  : #endif // _HAS_U8_INTRINSICS
; 315  :         } else
; 316  : #endif // __cpp_char8_t
; 317  :         {
; 318  :             return __builtin_strlen(_First);

	mov	rax, QWORD PTR _First$[rbp]
	mov	QWORD PTR tv68[rbp], rax
	mov	QWORD PTR tv69[rbp], -1
$LL3@length:
	inc	QWORD PTR tv69[rbp]
	mov	rax, QWORD PTR tv68[rbp]
	mov	rcx, QWORD PTR tv69[rbp]
	cmp	BYTE PTR [rax+rcx], 0
	jne	SHORT $LL3@length
	mov	rax, QWORD PTR tv69[rbp]

; 319  :         }
; 320  : #else // _HAS_CXX17
; 321  :         return _CSTD strlen(reinterpret_cast<const char*>(_First));
; 322  : #endif // _HAS_CXX17
; 323  :     }

	lea	rsp, QWORD PTR [rbp+216]
	pop	rdi
	pop	rbp
	ret	0
?length@?$_Narrow_char_traits@DH@std@@SA_KQEBD@Z ENDP	; std::_Narrow_char_traits<char,int>::length
_TEXT	ENDS
; Function compile flags: /Odtp /RTCsu /ZI
; File C:\Program Files (x86)\Microsoft Visual Studio\2019\Community\VC\Tools\MSVC\14.27.29110\include\xstring
;	COMDAT ?compare@?$_Narrow_char_traits@DH@std@@SAHQEBD0_K@Z
_TEXT	SEGMENT
_First1$ = 224
_First2$ = 232
_Count$ = 240
?compare@?$_Narrow_char_traits@DH@std@@SAHQEBD0_K@Z PROC ; std::_Narrow_char_traits<char,int>::compare, COMDAT

; 289  :         _In_reads_(_Count) const _Elem* const _First2, const size_t _Count) noexcept /* strengthened */ {

$LN3:
	mov	QWORD PTR [rsp+24], r8
	mov	QWORD PTR [rsp+16], rdx
	mov	QWORD PTR [rsp+8], rcx
	push	rbp
	push	rdi
	sub	rsp, 232				; 000000e8H
	lea	rbp, QWORD PTR [rsp+32]
	mov	rdi, rsp
	mov	ecx, 58					; 0000003aH
	mov	eax, -858993460				; ccccccccH
	rep stosd
	mov	rcx, QWORD PTR [rsp+264]
	lea	rcx, OFFSET FLAT:__D15AFF60_xstring
	call	__CheckForDebuggerJustMyCode

; 290  :         // compare [_First1, _First1 + _Count) with [_First2, ...)
; 291  : #if _HAS_CXX17
; 292  : #if _HAS_U8_INTRINSICS
; 293  :         if constexpr (is_same_v<_Elem, char8_t>) {
; 294  :             return __builtin_u8memcmp(_First1, _First2, _Count);
; 295  :         } else
; 296  : #endif // _HAS_U8_INTRINSICS
; 297  :         {
; 298  :             return __builtin_memcmp(_First1, _First2, _Count);

	mov	r8, QWORD PTR _Count$[rbp]
	mov	rdx, QWORD PTR _First2$[rbp]
	mov	rcx, QWORD PTR _First1$[rbp]
	call	memcmp
	npad	1

; 299  :         }
; 300  : #else // _HAS_CXX17
; 301  :         return _CSTD memcmp(_First1, _First2, _Count);
; 302  : #endif // _HAS_CXX17
; 303  :     }

	lea	rsp, QWORD PTR [rbp+200]
	pop	rdi
	pop	rbp
	ret	0
?compare@?$_Narrow_char_traits@DH@std@@SAHQEBD0_K@Z ENDP ; std::_Narrow_char_traits<char,int>::compare
_TEXT	ENDS
; Function compile flags: /Odtp /RTCsu /ZI
; File C:\Program Files (x86)\Microsoft Visual Studio\2019\Community\VC\Tools\MSVC\14.27.29110\include\xmemory
;	COMDAT ?deallocate@?$allocator@D@std@@QEAAXQEAD_K@Z
_TEXT	SEGMENT
this$ = 224
_Ptr$ = 232
_Count$ = 240
?deallocate@?$allocator@D@std@@QEAAXQEAD_K@Z PROC	; std::allocator<char>::deallocate, COMDAT

; 801  :     void deallocate(_Ty* const _Ptr, const size_t _Count) {

$LN3:
	mov	QWORD PTR [rsp+24], r8
	mov	QWORD PTR [rsp+16], rdx
	mov	QWORD PTR [rsp+8], rcx
	push	rbp
	push	rdi
	sub	rsp, 232				; 000000e8H
	lea	rbp, QWORD PTR [rsp+32]
	mov	rdi, rsp
	mov	ecx, 58					; 0000003aH
	mov	eax, -858993460				; ccccccccH
	rep stosd
	mov	rcx, QWORD PTR [rsp+264]
	lea	rcx, OFFSET FLAT:__A58979FC_xmemory
	call	__CheckForDebuggerJustMyCode

; 802  :         // no overflow check on the following multiply; we assume _Allocate did that check
; 803  :         _Deallocate<_New_alignof<_Ty>>(_Ptr, sizeof(_Ty) * _Count);

	mov	rdx, QWORD PTR _Count$[rbp]
	mov	rcx, QWORD PTR _Ptr$[rbp]
	call	??$_Deallocate@$0BA@$0A@@std@@YAXPEAX_K@Z ; std::_Deallocate<16,0>

; 804  :     }

	lea	rsp, QWORD PTR [rbp+200]
	pop	rdi
	pop	rbp
	ret	0
?deallocate@?$allocator@D@std@@QEAAXQEAD_K@Z ENDP	; std::allocator<char>::deallocate
_TEXT	ENDS
; Function compile flags: /Odtp /RTCsu /ZI
; File C:\Program Files (x86)\Microsoft Visual Studio\2019\Community\VC\Tools\MSVC\14.27.29110\include\xmemory
;	COMDAT ?_Orphan_all@_Container_base12@std@@QEAAXXZ
_TEXT	SEGMENT
_Lock$4 = 4
_Pnext$5 = 40
__$ArrayPad$ = 248
this$ = 288
?_Orphan_all@_Container_base12@std@@QEAAXXZ PROC	; std::_Container_base12::_Orphan_all, COMDAT

; 1205 : inline void _Container_base12::_Orphan_all() noexcept {

$LN7:
	mov	QWORD PTR [rsp+8], rcx
	push	rbp
	push	rdi
	sub	rsp, 296				; 00000128H
	lea	rbp, QWORD PTR [rsp+32]
	mov	rdi, rsp
	mov	ecx, 74					; 0000004aH
	mov	eax, -858993460				; ccccccccH
	rep stosd
	mov	rcx, QWORD PTR [rsp+328]
	mov	rax, QWORD PTR __security_cookie
	xor	rax, rbp
	mov	QWORD PTR __$ArrayPad$[rbp], rax
	lea	rcx, OFFSET FLAT:__A58979FC_xmemory
	call	__CheckForDebuggerJustMyCode

; 1206 : #if _ITERATOR_DEBUG_LEVEL == 2
; 1207 :     if (_Myproxy) { // proxy allocated, drain it

	mov	rax, QWORD PTR this$[rbp]
	cmp	QWORD PTR [rax], 0
	je	SHORT $LN5@Orphan_all

; 1208 :         _Lockit _Lock(_LOCK_DEBUG);

	mov	edx, 3
	lea	rcx, QWORD PTR _Lock$4[rbp]
	call	QWORD PTR __imp_??0_Lockit@std@@QEAA@H@Z

; 1209 : 
; 1210 :         for (auto _Pnext = &_Myproxy->_Myfirstiter; *_Pnext; *_Pnext = (*_Pnext)->_Mynextiter) {

	mov	rax, QWORD PTR this$[rbp]
	mov	rax, QWORD PTR [rax]
	add	rax, 8
	mov	QWORD PTR _Pnext$5[rbp], rax
	jmp	SHORT $LN4@Orphan_all
$LN2@Orphan_all:
	mov	rax, QWORD PTR _Pnext$5[rbp]
	mov	rax, QWORD PTR [rax]
	mov	rcx, QWORD PTR _Pnext$5[rbp]
	mov	rax, QWORD PTR [rax+8]
	mov	QWORD PTR [rcx], rax
$LN4@Orphan_all:
	mov	rax, QWORD PTR _Pnext$5[rbp]
	cmp	QWORD PTR [rax], 0
	je	SHORT $LN3@Orphan_all

; 1211 :             (*_Pnext)->_Myproxy = nullptr;

	mov	rax, QWORD PTR _Pnext$5[rbp]
	mov	rax, QWORD PTR [rax]
	mov	QWORD PTR [rax], 0

; 1212 :         }

	jmp	SHORT $LN2@Orphan_all
$LN3@Orphan_all:

; 1213 : 
; 1214 :         _Myproxy->_Myfirstiter = nullptr;

	mov	rax, QWORD PTR this$[rbp]
	mov	rax, QWORD PTR [rax]
	mov	QWORD PTR [rax+8], 0

; 1215 :     }

	lea	rcx, QWORD PTR _Lock$4[rbp]
	call	QWORD PTR __imp_??1_Lockit@std@@QEAA@XZ
$LN5@Orphan_all:

; 1216 : #endif // _ITERATOR_DEBUG_LEVEL == 2
; 1217 : }

	lea	rcx, QWORD PTR [rbp-32]
	lea	rdx, OFFSET FLAT:?_Orphan_all@_Container_base12@std@@QEAAXXZ$rtcFrameData
	call	_RTC_CheckStackVars
	npad	1
	mov	rcx, QWORD PTR __$ArrayPad$[rbp]
	xor	rcx, rbp
	call	__security_check_cookie
	lea	rsp, QWORD PTR [rbp+264]
	pop	rdi
	pop	rbp
	ret	0
?_Orphan_all@_Container_base12@std@@QEAAXXZ ENDP	; std::_Container_base12::_Orphan_all
_TEXT	ENDS
; Function compile flags: /Odtp /RTCsu /ZI
; File C:\Program Files (x86)\Microsoft Visual Studio\2019\Community\VC\Tools\MSVC\14.27.29110\include\xmemory
;	COMDAT ?_Adjust_manually_vector_aligned@std@@YAXAEAPEAXAEA_K@Z
_TEXT	SEGMENT
_Ptr_user$ = 8
_Ptr_container$ = 40
_Min_back_shift$ = 72
_Back_shift$ = 104
_Ptr$ = 352
_Bytes$ = 360
?_Adjust_manually_vector_aligned@std@@YAXAEAPEAXAEA_K@Z PROC ; std::_Adjust_manually_vector_aligned, COMDAT

; 132  : inline void _Adjust_manually_vector_aligned(void*& _Ptr, size_t& _Bytes) {

$LN21:
	mov	QWORD PTR [rsp+16], rdx
	mov	QWORD PTR [rsp+8], rcx
	push	rbp
	push	rdi
	sub	rsp, 376				; 00000178H
	lea	rbp, QWORD PTR [rsp+48]
	mov	rdi, rsp
	mov	ecx, 94					; 0000005eH
	mov	eax, -858993460				; ccccccccH
	rep stosd
	mov	rcx, QWORD PTR [rsp+408]
	lea	rcx, OFFSET FLAT:__A58979FC_xmemory
	call	__CheckForDebuggerJustMyCode

; 133  :     // adjust parameters from _Allocate_manually_vector_aligned to pass to operator delete
; 134  :     _Bytes += _Non_user_size;

	mov	rax, QWORD PTR _Bytes$[rbp]
	mov	rax, QWORD PTR [rax]
	add	rax, 47					; 0000002fH
	mov	rcx, QWORD PTR _Bytes$[rbp]
	mov	QWORD PTR [rcx], rax

; 135  : 
; 136  :     const uintptr_t* const _Ptr_user = reinterpret_cast<uintptr_t*>(_Ptr);

	mov	rax, QWORD PTR _Ptr$[rbp]
	mov	rax, QWORD PTR [rax]
	mov	QWORD PTR _Ptr_user$[rbp], rax

; 137  :     const uintptr_t _Ptr_container   = _Ptr_user[-1];

	mov	eax, 8
	imul	rax, rax, -1
	mov	rcx, QWORD PTR _Ptr_user$[rbp]
	mov	rax, QWORD PTR [rcx+rax]
	mov	QWORD PTR _Ptr_container$[rbp], rax
$LN4@Adjust_man:

; 138  : 
; 139  :     // If the following asserts, it likely means that we are performing
; 140  :     // an aligned delete on memory coming from an unaligned allocation.
; 141  :     _STL_ASSERT(_Ptr_user[-2] == _Big_allocation_sentinel, "invalid argument");

	mov	eax, 8
	imul	rax, rax, -2
	mov	rcx, QWORD PTR _Ptr_user$[rbp]
	mov	rdx, -361700864190383366		; fafafafafafafafaH
	cmp	QWORD PTR [rcx+rax], rdx
	jne	SHORT $LN14@Adjust_man
	jmp	SHORT $LN15@Adjust_man
$LN14@Adjust_man:
$LN7@Adjust_man:
	mov	eax, DWORD PTR ?__LINE__Var@?0??_Adjust_manually_vector_aligned@std@@YAXAEAPEAXAEA_K@Z@4JA
	add	eax, 9
	lea	rcx, OFFSET FLAT:??_C@_0BB@FCMFBGOM@invalid?5argument@
	mov	QWORD PTR [rsp+40], rcx
	lea	rcx, OFFSET FLAT:??_C@_02DKCKIIND@?$CFs@
	mov	QWORD PTR [rsp+32], rcx
	xor	r9d, r9d
	mov	r8d, eax
	lea	rdx, OFFSET FLAT:??_C@_0GI@JMEOMKJO@C?3?2Program?5Files?5?$CIx86?$CJ?2Microsof@
	mov	ecx, 2
	call	QWORD PTR __imp__CrtDbgReport
	cmp	eax, 1
	jne	SHORT $LN19@Adjust_man
	int	3
	xor	eax, eax
$LN19@Adjust_man:
	mov	eax, DWORD PTR ?__LINE__Var@?0??_Adjust_manually_vector_aligned@std@@YAXAEAPEAXAEA_K@Z@4JA
	add	eax, 9
	mov	QWORD PTR [rsp+32], 0
	mov	r9d, eax
	lea	r8, OFFSET FLAT:??_C@_1NA@FEEOBALC@?$AAC?$AA?3?$AA?2?$AAP?$AAr?$AAo?$AAg?$AAr?$AAa?$AAm?$AA?5?$AAF?$AAi?$AAl?$AAe@
	lea	rdx, OFFSET FLAT:??_C@_1EK@NIFDJFDG@?$AAs?$AAt?$AAd?$AA?3?$AA?3?$AA_?$AAA?$AAd?$AAj?$AAu?$AAs?$AAt?$AA_?$AAm?$AAa@
	lea	rcx, OFFSET FLAT:??_C@_1CG@JNLFBNGN@?$AA?$CC?$AAi?$AAn?$AAv?$AAa?$AAl?$AAi?$AAd?$AA?5?$AAa?$AAr?$AAg?$AAu?$AAm?$AAe@
	call	QWORD PTR __imp__invalid_parameter
	xor	eax, eax
	test	eax, eax
	jne	SHORT $LN7@Adjust_man
$LN15@Adjust_man:
	xor	eax, eax
	test	eax, eax
	jne	$LN4@Adjust_man

; 142  : 
; 143  :     // Extra paranoia on aligned allocation/deallocation; ensure _Ptr_container is
; 144  :     // in range [_Min_back_shift, _Non_user_size]
; 145  : #ifdef _DEBUG
; 146  :     constexpr uintptr_t _Min_back_shift = 2 * sizeof(void*);

	mov	QWORD PTR _Min_back_shift$[rbp], 16

; 147  : #else // ^^^ _DEBUG ^^^ // vvv !_DEBUG vvv
; 148  :     constexpr uintptr_t _Min_back_shift = sizeof(void*);
; 149  : #endif // _DEBUG
; 150  :     const uintptr_t _Back_shift = reinterpret_cast<uintptr_t>(_Ptr) - _Ptr_container;

	mov	rax, QWORD PTR _Ptr$[rbp]
	mov	rcx, QWORD PTR _Ptr_container$[rbp]
	mov	rax, QWORD PTR [rax]
	sub	rax, rcx
	mov	QWORD PTR _Back_shift$[rbp], rax
$LN10@Adjust_man:

; 151  :     _STL_VERIFY(_Back_shift >= _Min_back_shift && _Back_shift <= _Non_user_size, "invalid argument");

	cmp	QWORD PTR _Back_shift$[rbp], 16
	jb	SHORT $LN16@Adjust_man
	cmp	QWORD PTR _Back_shift$[rbp], 47		; 0000002fH
	ja	SHORT $LN16@Adjust_man
	jmp	SHORT $LN17@Adjust_man
$LN16@Adjust_man:
$LN13@Adjust_man:
	mov	eax, DWORD PTR ?__LINE__Var@?0??_Adjust_manually_vector_aligned@std@@YAXAEAPEAXAEA_K@Z@4JA
