; Listing generated by Microsoft (R) Optimizing Compiler Version 19.28.29333.0 

include listing.inc

INCLUDELIB MSVCRTD
INCLUDELIB OLDNAMES

msvcjmc	SEGMENT
__2B31710D_vcruntime_new@h DB 01H
__09340588_corecrt_math@h DB 01H
__24E9E95F_stdlib@h DB 01H
__ACEB72CA_cstdlib DB 01H
__F66CEB67_corecrt_stdio_config@h DB 01H
__101834BA_corecrt_wstdio@h DB 01H
__AD6A91B7_stdio@h DB 01H
__367CC694_corecrt_memcpy_s@h DB 01H
__5467428D_corecrt_wconio@h DB 01H
__4442441F_corecrt_wio@h DB 01H
__DC9673E3_corecrt_wstring@h DB 01H
__45F4AF76_corecrt_wtime@h DB 01H
__186FF47F_stat@h DB 01H
__534C724A_wchar@h DB 01H
__0920A867_cstddef DB 01H
__D63D5DDA_limits DB 01H
__2D26A21E_type_traits DB 01H
__B0C4CEA9_malloc@h DB 01H
__49CBC5C5_vcruntime_exception@h DB 01H
__8B12B611_exception DB 01H
__35D7DDB3_corecrt_memory@h DB 01H
__A29A7DFB_string@h DB 01H
__F4CD6065_xutility DB 01H
__F1739482_xmemory DB 01H
__61DEF4C5_algorithm DB 01H
__B68D2755_vcruntime_typeinfo@h DB 01H
__8412937C_typeinfo DB 01H
__6A935154_memory DB 01H
__A298E223_tuple DB 01H
__B8402D15_xpolymorphic_allocator@h DB 01H
__85A0121E_xstring DB 01H
__025C8C4C_stdexcept DB 01H
__7242C389_ctype@h DB 01H
__1E40D7C8_string DB 01H
__563C2410_any DB 01H
__0D920760_xtree DB 01H
__04BBFB62_cmath DB 01H
__127BCABE_xcall_once@h DB 01H
__8AA3BE86_time@h DB 01H
__0E11DA62_xthreads@h DB 01H
__BD080118_atomic DB 01H
__AD26D89E_system_error DB 01H
__46D6065B_xfacet DB 01H
__9B9B70B4_xlocinfo DB 01H
__5A9E662F_xlocale DB 01H
__A27E07A7_xiosbase DB 01H
__C4190038_xlocnum DB 01H
__A1E1ADF7_ios DB 01H
__E988FD3D_LoggerHandler@hpp DB 01H
__89F77DF8_SubscriptionHandler@cpp DB 01H
__2A5E89D1_istream DB 01H
__498EBCEB_ostream DB 01H
__00FC34F0_streambuf DB 01H
__1AD4885C_iosfwd DB 01H
__9BE6F741_utility DB 01H
__E561D725_iterator DB 01H
__6CF96053_xstddef DB 01H
__811E3AC7_xatomic@h DB 01H
msvcjmc	ENDS
PUBLIC	?__empty_global_delete@@YAXPEAX@Z		; __empty_global_delete
PUBLIC	?__empty_global_delete@@YAXPEAX_K@Z		; __empty_global_delete
PUBLIC	?__empty_global_delete@@YAXPEAXW4align_val_t@std@@@Z ; __empty_global_delete
PUBLIC	?__empty_global_delete@@YAXPEAX_KW4align_val_t@std@@@Z ; __empty_global_delete
PUBLIC	?_Adjust_manually_vector_aligned@std@@YAXAEAPEAXAEA_K@Z ; std::_Adjust_manually_vector_aligned
PUBLIC	?_Orphan_all@_Container_base12@std@@QEAAXXZ	; std::_Container_base12::_Orphan_all
PUBLIC	?deallocate@?$allocator@D@std@@QEAAXQEAD_K@Z	; std::allocator<char>::deallocate
PUBLIC	?assign@?$_Narrow_char_traits@DH@std@@SAXAEADAEBD@Z ; std::_Narrow_char_traits<char,int>::assign
PUBLIC	?_Large_string_engaged@?$_String_val@U?$_Simple_types@D@std@@@std@@QEBA_NXZ ; std::_String_val<std::_Simple_types<char> >::_Large_string_engaged
PUBLIC	??1_Bxty@?$_String_val@U?$_Simple_types@D@std@@@std@@QEAA@XZ ; std::_String_val<std::_Simple_types<char> >::_Bxty::~_Bxty
PUBLIC	??1?$_String_val@U?$_Simple_types@D@std@@@std@@QEAA@XZ ; std::_String_val<std::_Simple_types<char> >::~_String_val<std::_Simple_types<char> >
PUBLIC	??1?$basic_string@DU?$char_traits@D@std@@V?$allocator@D@2@@std@@QEAA@XZ ; std::basic_string<char,std::char_traits<char>,std::allocator<char> >::~basic_string<char,std::char_traits<char>,std::allocator<char> >
PUBLIC	?_Tidy_deallocate@?$basic_string@DU?$char_traits@D@std@@V?$allocator@D@2@@std@@AEAAXXZ ; std::basic_string<char,std::char_traits<char>,std::allocator<char> >::_Tidy_deallocate
PUBLIC	?_Getal@?$basic_string@DU?$char_traits@D@std@@V?$allocator@D@2@@std@@AEAAAEAV?$allocator@D@2@XZ ; std::basic_string<char,std::char_traits<char>,std::allocator<char> >::_Getal
PUBLIC	?_Get_first@?$_Compressed_pair@V?$allocator@D@std@@V?$_String_val@U?$_Simple_types@D@std@@@2@$00@std@@QEAAAEAV?$allocator@D@2@XZ ; std::_Compressed_pair<std::allocator<char>,std::_String_val<std::_Simple_types<char> >,1>::_Get_first
PUBLIC	??1?$_Compressed_pair@V?$allocator@D@std@@V?$_String_val@U?$_Simple_types@D@std@@@2@$00@std@@QEAA@XZ ; std::_Compressed_pair<std::allocator<char>,std::_String_val<std::_Simple_types<char> >,1>::~_Compressed_pair<std::allocator<char>,std::_String_val<std::_Simple_types<char> >,1>
PUBLIC	??1SubscriptionStatus@Persistence@TechnicalServices@@QEAA@XZ ; TechnicalServices::Persistence::SubscriptionStatus::~SubscriptionStatus
PUBLIC	?MaintainSubscription@SubscriptionHandler@Subscription@Domain@@SA?AV?$unique_ptr@VSubscriptionHandler@Subscription@Domain@@U?$default_delete@VSubscriptionHandler@Subscription@Domain@@@std@@@std@@AEBUUserCredentials@Persistence@TechnicalServices@@@Z ; Domain::Subscription::SubscriptionHandler::MaintainSubscription
PUBLIC	??1SubscriptionHandler@Subscription@Domain@@UEAA@XZ ; Domain::Subscription::SubscriptionHandler::~SubscriptionHandler
PUBLIC	??$make_unique@USubcriptionsInUse@Subscription@Domain@@AEBUUserCredentials@Persistence@TechnicalServices@@$0A@@std@@YA?AV?$unique_ptr@USubcriptionsInUse@Subscription@Domain@@U?$default_delete@USubcriptionsInUse@Subscription@Domain@@@std@@@0@AEBUUserCredentials@Persistence@TechnicalServices@@@Z ; std::make_unique<Domain::Subscription::SubcriptionsInUse,TechnicalServices::Persistence::UserCredentials const &,0>
PUBLIC	??R?$default_delete@USubcriptionsInUse@Subscription@Domain@@@std@@QEBAXPEAUSubcriptionsInUse@Subscription@Domain@@@Z ; std::default_delete<Domain::Subscription::SubcriptionsInUse>::operator()
PUBLIC	??1?$unique_ptr@USubcriptionsInUse@Subscription@Domain@@U?$default_delete@USubcriptionsInUse@Subscription@Domain@@@std@@@std@@QEAA@XZ ; std::unique_ptr<Domain::Subscription::SubcriptionsInUse,std::default_delete<Domain::Subscription::SubcriptionsInUse> >::~unique_ptr<Domain::Subscription::SubcriptionsInUse,std::default_delete<Domain::Subscription::SubcriptionsInUse> >
PUBLIC	?get_deleter@?$unique_ptr@USubcriptionsInUse@Subscription@Domain@@U?$default_delete@USubcriptionsInUse@Subscription@Domain@@@std@@@std@@QEAAAEAU?$default_delete@USubcriptionsInUse@Subscription@Domain@@@2@XZ ; std::unique_ptr<Domain::Subscription::SubcriptionsInUse,std::default_delete<Domain::Subscription::SubcriptionsInUse> >::get_deleter
PUBLIC	?release@?$unique_ptr@USubcriptionsInUse@Subscription@Domain@@U?$default_delete@USubcriptionsInUse@Subscription@Domain@@@std@@@std@@QEAAPEAUSubcriptionsInUse@Subscription@Domain@@XZ ; std::unique_ptr<Domain::Subscription::SubcriptionsInUse,std::default_delete<Domain::Subscription::SubcriptionsInUse> >::release
PUBLIC	?_Get_first@?$_Compressed_pair@U?$default_delete@USubcriptionsInUse@Subscription@Domain@@@std@@PEAUSubcriptionsInUse@Subscription@Domain@@$00@std@@QEAAAEAU?$default_delete@USubcriptionsInUse@Subscription@Domain@@@2@XZ ; std::_Compressed_pair<std::default_delete<Domain::Subscription::SubcriptionsInUse>,Domain::Subscription::SubcriptionsInUse *,1>::_Get_first
PUBLIC	??$?0USubcriptionsInUse@Subscription@Domain@@$0A@@?$default_delete@VSubscriptionHandler@Subscription@Domain@@@std@@QEAA@AEBU?$default_delete@USubcriptionsInUse@Subscription@Domain@@@1@@Z ; std::default_delete<Domain::Subscription::SubscriptionHandler>::default_delete<Domain::Subscription::SubscriptionHandler><Domain::Subscription::SubcriptionsInUse,0>
PUBLIC	??$?0USubcriptionsInUse@Subscription@Domain@@U?$default_delete@USubcriptionsInUse@Subscription@Domain@@@std@@$0A@@?$unique_ptr@VSubscriptionHandler@Subscription@Domain@@U?$default_delete@VSubscriptionHandler@Subscription@Domain@@@std@@@std@@QEAA@$$QEAV?$unique_ptr@USubcriptionsInUse@Subscription@Domain@@U?$default_delete@USubcriptionsInUse@Subscription@Domain@@@std@@@1@@Z ; std::unique_ptr<Domain::Subscription::SubscriptionHandler,std::default_delete<Domain::Subscription::SubscriptionHandler> >::unique_ptr<Domain::Subscription::SubscriptionHandler,std::default_delete<Domain::Subscription::SubscriptionHandler> ><Domain::Subscription::SubcriptionsInUse,std::default_delete<Domain::Subscription::SubcriptionsInUse>,0>
PUBLIC	??$?0U?$default_delete@VSubscriptionHandler@Subscription@Domain@@@std@@$0A@@?$unique_ptr@VSubscriptionHandler@Subscription@Domain@@U?$default_delete@VSubscriptionHandler@Subscription@Domain@@@std@@@std@@QEAA@$$T@Z ; std::unique_ptr<Domain::Subscription::SubscriptionHandler,std::default_delete<Domain::Subscription::SubscriptionHandler> >::unique_ptr<Domain::Subscription::SubscriptionHandler,std::default_delete<Domain::Subscription::SubscriptionHandler> ><std::default_delete<Domain::Subscription::SubscriptionHandler>,0>
PUBLIC	??$_Delete_plain_internal@V?$allocator@U_Container_proxy@std@@@std@@@std@@YAXAEAV?$allocator@U_Container_proxy@std@@@0@QEAU_Container_proxy@0@@Z ; std::_Delete_plain_internal<std::allocator<std::_Container_proxy> >
PUBLIC	??$?0D@?$allocator@U_Container_proxy@std@@@std@@QEAA@AEBV?$allocator@D@1@@Z ; std::allocator<std::_Container_proxy>::allocator<std::_Container_proxy><char>
PUBLIC	??$_Destroy_in_place@PEAD@std@@YAXAEAPEAD@Z	; std::_Destroy_in_place<char *>
PUBLIC	??$_Deallocate@$0BA@$0A@@std@@YAXPEAX_K@Z	; std::_Deallocate<16,0>
PUBLIC	??$forward@AEBUUserCredentials@Persistence@TechnicalServices@@@std@@YAAEBUUserCredentials@Persistence@TechnicalServices@@AEBU123@@Z ; std::forward<TechnicalServices::Persistence::UserCredentials const &>
PUBLIC	??$?0U?$default_delete@USubcriptionsInUse@Subscription@Domain@@@std@@$0A@@?$unique_ptr@USubcriptionsInUse@Subscription@Domain@@U?$default_delete@USubcriptionsInUse@Subscription@Domain@@@std@@@std@@QEAA@PEAUSubcriptionsInUse@Subscription@Domain@@@Z ; std::unique_ptr<Domain::Subscription::SubcriptionsInUse,std::default_delete<Domain::Subscription::SubcriptionsInUse> >::unique_ptr<Domain::Subscription::SubcriptionsInUse,std::default_delete<Domain::Subscription::SubcriptionsInUse> ><std::default_delete<Domain::Subscription::SubcriptionsInUse>,0>
PUBLIC	??$forward@U?$default_delete@USubcriptionsInUse@Subscription@Domain@@@std@@@std@@YA$$QEAU?$default_delete@USubcriptionsInUse@Subscription@Domain@@@0@AEAU10@@Z ; std::forward<std::default_delete<Domain::Subscription::SubcriptionsInUse> >
PUBLIC	??$?0U?$default_delete@USubcriptionsInUse@Subscription@Domain@@@std@@PEAUSubcriptionsInUse@Subscription@Domain@@@?$_Compressed_pair@U?$default_delete@VSubscriptionHandler@Subscription@Domain@@@std@@PEAVSubscriptionHandler@Subscription@Domain@@$00@std@@QEAA@U_One_then_variadic_args_t@1@$$QEAU?$default_delete@USubcriptionsInUse@Subscription@Domain@@@1@$$QEAPEAUSubcriptionsInUse@Subscription@Domain@@@Z ; std::_Compressed_pair<std::default_delete<Domain::Subscription::SubscriptionHandler>,Domain::Subscription::SubscriptionHandler *,1>::_Compressed_pair<std::default_delete<Domain::Subscription::SubscriptionHandler>,Domain::Subscription::SubscriptionHandler *,1><std::default_delete<Domain::Subscription::SubcriptionsInUse>,Domain::Subscription::SubcriptionsInUse *>
PUBLIC	??$?0$$V@?$_Compressed_pair@U?$default_delete@VSubscriptionHandler@Subscription@Domain@@@std@@PEAVSubscriptionHandler@Subscription@Domain@@$00@std@@QEAA@U_Zero_then_variadic_args_t@1@@Z ; std::_Compressed_pair<std::default_delete<Domain::Subscription::SubscriptionHandler>,Domain::Subscription::SubscriptionHandler *,1>::_Compressed_pair<std::default_delete<Domain::Subscription::SubscriptionHandler>,Domain::Subscription::SubscriptionHandler *,1><>
PUBLIC	??$_Deallocate_plain@V?$allocator@U_Container_proxy@std@@@std@@@std@@YAXAEAV?$allocator@U_Container_proxy@std@@@0@QEAU_Container_proxy@0@@Z ; std::_Deallocate_plain<std::allocator<std::_Container_proxy> >
PUBLIC	??$exchange@PEAUSubcriptionsInUse@Subscription@Domain@@PEAU123@@std@@YAPEAUSubcriptionsInUse@Subscription@Domain@@AEAPEAU123@$$QEAPEAU123@@Z ; std::exchange<Domain::Subscription::SubcriptionsInUse *,Domain::Subscription::SubcriptionsInUse *>
PUBLIC	??$?0AEAPEAUSubcriptionsInUse@Subscription@Domain@@@?$_Compressed_pair@U?$default_delete@USubcriptionsInUse@Subscription@Domain@@@std@@PEAUSubcriptionsInUse@Subscription@Domain@@$00@std@@QEAA@U_Zero_then_variadic_args_t@1@AEAPEAUSubcriptionsInUse@Subscription@Domain@@@Z ; std::_Compressed_pair<std::default_delete<Domain::Subscription::SubcriptionsInUse>,Domain::Subscription::SubcriptionsInUse *,1>::_Compressed_pair<std::default_delete<Domain::Subscription::SubcriptionsInUse>,Domain::Subscription::SubcriptionsInUse *,1><Domain::Subscription::SubcriptionsInUse * &>
PUBLIC	??$forward@PEAUSubcriptionsInUse@Subscription@Domain@@@std@@YA$$QEAPEAUSubcriptionsInUse@Subscription@Domain@@AEAPEAU123@@Z ; std::forward<Domain::Subscription::SubcriptionsInUse *>
PUBLIC	?deallocate@?$_Default_allocator_traits@V?$allocator@U_Container_proxy@std@@@std@@@std@@SAXAEAV?$allocator@U_Container_proxy@std@@@2@QEAU_Container_proxy@2@_K@Z ; std::_Default_allocator_traits<std::allocator<std::_Container_proxy> >::deallocate
PUBLIC	??$forward@AEAPEAUSubcriptionsInUse@Subscription@Domain@@@std@@YAAEAPEAUSubcriptionsInUse@Subscription@Domain@@AEAPEAU123@@Z ; std::forward<Domain::Subscription::SubcriptionsInUse * &>
PUBLIC	__JustMyCode_Default
PUBLIC	?__LINE__Var@?0??_Adjust_manually_vector_aligned@std@@YAXAEAPEAXAEA_K@Z@4JA ; `std::_Adjust_manually_vector_aligned'::`1'::__LINE__Var
PUBLIC	??_C@_0BB@FCMFBGOM@invalid?5argument@		; `string'
PUBLIC	??_C@_02DKCKIIND@?$CFs@				; `string'
PUBLIC	??_C@_0GI@CLKHGMEI@C?3?2Program?5Files?5?$CIx86?$CJ?2Microsof@ ; `string'
PUBLIC	??_C@_1NA@PDNNFCLD@?$AAC?$AA?3?$AA?2?$AAP?$AAr?$AAo?$AAg?$AAr?$AAa?$AAm?$AA?5?$AAF?$AAi?$AAl?$AAe@ ; `string'
PUBLIC	??_C@_1EK@NIFDJFDG@?$AAs?$AAt?$AAd?$AA?3?$AA?3?$AA_?$AAA?$AAd?$AAj?$AAu?$AAs?$AAt?$AA_?$AAm?$AAa@ ; `string'
PUBLIC	??_C@_1CG@JNLFBNGN@?$AA?$CC?$AAi?$AAn?$AAv?$AAa?$AAl?$AAi?$AAd?$AA?5?$AAa?$AAr?$AAg?$AAu?$AAm?$AAe@ ; `string'
PUBLIC	??_7SubscriptionHandler@Subscription@Domain@@6B@ ; Domain::Subscription::SubscriptionHandler::`vftable'
PUBLIC	??_R4SubscriptionHandler@Subscription@Domain@@6B@ ; Domain::Subscription::SubscriptionHandler::`RTTI Complete Object Locator'
PUBLIC	??_R0?AVSubscriptionHandler@Subscription@Domain@@@8 ; Domain::Subscription::SubscriptionHandler `RTTI Type Descriptor'
PUBLIC	??_R3SubscriptionHandler@Subscription@Domain@@8	; Domain::Subscription::SubscriptionHandler::`RTTI Class Hierarchy Descriptor'
PUBLIC	??_R2SubscriptionHandler@Subscription@Domain@@8	; Domain::Subscription::SubscriptionHandler::`RTTI Base Class Array'
PUBLIC	??_R1A@?0A@EA@SubscriptionHandler@Subscription@Domain@@8 ; Domain::Subscription::SubscriptionHandler::`RTTI Base Class Descriptor at (0,-1,0,64)'
EXTRN	_purecall:PROC
EXTRN	??2@YAPEAX_K@Z:PROC				; operator new
EXTRN	??3@YAXPEAX_K@Z:PROC				; operator delete
EXTRN	__imp__invalid_parameter:PROC
EXTRN	__imp__CrtDbgReport:PROC
EXTRN	__imp_??0_Lockit@std@@QEAA@H@Z:PROC
EXTRN	__imp_??1_Lockit@std@@QEAA@XZ:PROC
EXTRN	?instance@PersistenceHandler@Persistence@TechnicalServices@@SAAEAV123@XZ:PROC ; TechnicalServices::Persistence::PersistenceHandler::instance
EXTRN	??0SubcriptionsInUse@Subscription@Domain@@QEAA@AEBUUserCredentials@Persistence@TechnicalServices@@@Z:PROC ; Domain::Subscription::SubcriptionsInUse::SubcriptionsInUse
EXTRN	_RTC_CheckStackVars:PROC
EXTRN	_RTC_InitBase:PROC
EXTRN	_RTC_Shutdown:PROC
EXTRN	__CheckForDebuggerJustMyCode:PROC
EXTRN	__CxxFrameHandler4:PROC
EXTRN	__GSHandlerCheck:PROC
EXTRN	__GSHandlerCheck_EH4:PROC
EXTRN	__security_check_cookie:PROC
EXTRN	??_7type_info@@6B@:BYTE				; type_info::`vftable'
EXTRN	__security_cookie:QWORD
;	COMDAT pdata
pdata	SEGMENT
$pdata$?__empty_global_delete@@YAXPEAX@Z DD imagerel $LN3
	DD	imagerel $LN3+64
	DD	imagerel $unwind$?__empty_global_delete@@YAXPEAX@Z
pdata	ENDS
;	COMDAT pdata
pdata	SEGMENT
$pdata$?__empty_global_delete@@YAXPEAX_K@Z DD imagerel $LN3
	DD	imagerel $LN3+69
	DD	imagerel $unwind$?__empty_global_delete@@YAXPEAX_K@Z
pdata	ENDS
;	COMDAT pdata
pdata	SEGMENT
$pdata$?__empty_global_delete@@YAXPEAXW4align_val_t@std@@@Z DD imagerel $LN3
	DD	imagerel $LN3+69
	DD	imagerel $unwind$?__empty_global_delete@@YAXPEAXW4align_val_t@std@@@Z
pdata	ENDS
;	COMDAT pdata
pdata	SEGMENT
$pdata$?__empty_global_delete@@YAXPEAX_KW4align_val_t@std@@@Z DD imagerel $LN3
	DD	imagerel $LN3+74
	DD	imagerel $unwind$?__empty_global_delete@@YAXPEAX_KW4align_val_t@std@@@Z
pdata	ENDS
;	COMDAT pdata
pdata	SEGMENT
$pdata$?_Adjust_manually_vector_aligned@std@@YAXAEAPEAXAEA_K@Z DD imagerel $LN21
	DD	imagerel $LN21+476
	DD	imagerel $unwind$?_Adjust_manually_vector_aligned@std@@YAXAEAPEAXAEA_K@Z
pdata	ENDS
;	COMDAT pdata
pdata	SEGMENT
$pdata$?_Orphan_all@_Container_base12@std@@QEAAXXZ DD imagerel $LN7
	DD	imagerel $LN7+232
	DD	imagerel $unwind$?_Orphan_all@_Container_base12@std@@QEAAXXZ
pdata	ENDS
;	COMDAT pdata
pdata	SEGMENT
$pdata$?deallocate@?$allocator@D@std@@QEAAXQEAD_K@Z DD imagerel $LN3
	DD	imagerel $LN3+93
	DD	imagerel $unwind$?deallocate@?$allocator@D@std@@QEAAXQEAD_K@Z
pdata	ENDS
;	COMDAT pdata
pdata	SEGMENT
$pdata$?assign@?$_Narrow_char_traits@DH@std@@SAXAEADAEBD@Z DD imagerel $LN3
	DD	imagerel $LN3+88
	DD	imagerel $unwind$?assign@?$_Narrow_char_traits@DH@std@@SAXAEADAEBD@Z
pdata	ENDS
;	COMDAT pdata
pdata	SEGMENT
$pdata$?_Large_string_engaged@?$_String_val@U?$_Simple_types@D@std@@@std@@QEBA_NXZ DD imagerel $LN5
	DD	imagerel $LN5+107
	DD	imagerel $unwind$?_Large_string_engaged@?$_String_val@U?$_Simple_types@D@std@@@std@@QEBA_NXZ
pdata	ENDS
;	COMDAT pdata
pdata	SEGMENT
$pdata$??1_Bxty@?$_String_val@U?$_Simple_types@D@std@@@std@@QEAA@XZ DD imagerel $LN3
	DD	imagerel $LN3+64
	DD	imagerel $unwind$??1_Bxty@?$_String_val@U?$_Simple_types@D@std@@@std@@QEAA@XZ
pdata	ENDS
;	COMDAT pdata
pdata	SEGMENT
$pdata$??1?$_String_val@U?$_Simple_types@D@std@@@std@@QEAA@XZ DD imagerel $LN3
	DD	imagerel $LN3+71
	DD	imagerel $unwind$??1?$_String_val@U?$_Simple_types@D@std@@@std@@QEAA@XZ
pdata	ENDS
;	COMDAT pdata
pdata	SEGMENT
$pdata$??1?$basic_string@DU?$char_traits@D@std@@V?$allocator@D@2@@std@@QEAA@XZ DD imagerel $LN3
	DD	imagerel $LN3+212
	DD	imagerel $unwind$??1?$basic_string@DU?$char_traits@D@std@@V?$allocator@D@2@@std@@QEAA@XZ
pdata	ENDS
;	COMDAT pdata
pdata	SEGMENT
$pdata$?_Tidy_deallocate@?$basic_string@DU?$char_traits@D@std@@V?$allocator@D@2@@std@@AEAAXXZ DD imagerel $LN4
	DD	imagerel $LN4+255
	DD	imagerel $unwind$?_Tidy_deallocate@?$basic_string@DU?$char_traits@D@std@@V?$allocator@D@2@@std@@AEAAXXZ
pdata	ENDS
;	COMDAT pdata
pdata	SEGMENT
$pdata$?_Getal@?$basic_string@DU?$char_traits@D@std@@V?$allocator@D@2@@std@@AEAAAEAV?$allocator@D@2@XZ DD imagerel $LN3
	DD	imagerel $LN3+79
	DD	imagerel $unwind$?_Getal@?$basic_string@DU?$char_traits@D@std@@V?$allocator@D@2@@std@@AEAAAEAV?$allocator@D@2@XZ
pdata	ENDS
;	COMDAT pdata
pdata	SEGMENT
$pdata$?_Get_first@?$_Compressed_pair@V?$allocator@D@std@@V?$_String_val@U?$_Simple_types@D@std@@@2@$00@std@@QEAAAEAV?$allocator@D@2@XZ DD imagerel $LN3
	DD	imagerel $LN3+71
	DD	imagerel $unwind$?_Get_first@?$_Compressed_pair@V?$allocator@D@std@@V?$_String_val@U?$_Simple_types@D@std@@@2@$00@std@@QEAAAEAV?$allocator@D@2@XZ
pdata	ENDS
;	COMDAT pdata
pdata	SEGMENT
$pdata$??1?$_Compressed_pair@V?$allocator@D@std@@V?$_String_val@U?$_Simple_types@D@std@@@2@$00@std@@QEAA@XZ DD imagerel $LN3
	DD	imagerel $LN3+67
	DD	imagerel $unwind$??1?$_Compressed_pair@V?$allocator@D@std@@V?$_String_val@U?$_Simple_types@D@std@@@2@$00@std@@QEAA@XZ
pdata	ENDS
;	COMDAT pdata
pdata	SEGMENT
$pdata$??1SubscriptionStatus@Persistence@TechnicalServices@@QEAA@XZ DD imagerel $LN3
	DD	imagerel $LN3+109
	DD	imagerel $unwind$??1SubscriptionStatus@Persistence@TechnicalServices@@QEAA@XZ
pdata	ENDS
;	COMDAT pdata
pdata	SEGMENT
$pdata$?MaintainSubscription@SubscriptionHandler@Subscription@Domain@@SA?AV?$unique_ptr@VSubscriptionHandler@Subscription@Domain@@U?$default_delete@VSubscriptionHandler@Subscription@Domain@@@std@@@std@@AEBUUserCredentials@Persistence@TechnicalServices@@@Z DD imagerel $LN8
	DD	imagerel $LN8+317
	DD	imagerel $unwind$?MaintainSubscription@SubscriptionHandler@Subscription@Domain@@SA?AV?$unique_ptr@VSubscriptionHandler@Subscription@Domain@@U?$default_delete@VSubscriptionHandler@Subscription@Domain@@@std@@@std@@AEBUUserCredentials@Persistence@TechnicalServices@@@Z
pdata	ENDS
;	COMDAT pdata
pdata	SEGMENT
$pdata$?dtor$0@?0??MaintainSubscription@SubscriptionHandler@Subscription@Domain@@SA?AV?$unique_ptr@VSubscriptionHandler@Subscription@Domain@@U?$default_delete@VSubscriptionHandler@Subscription@Domain@@@std@@@std@@AEBUUserCredentials@Persistence@TechnicalServices@@@Z@4HA DD imagerel ?dtor$0@?0??MaintainSubscription@SubscriptionHandler@Subscription@Domain@@SA?AV?$unique_ptr@VSubscriptionHandler@Subscription@Domain@@U?$default_delete@VSubscriptionHandler@Subscription@Domain@@@std@@@std@@AEBUUserCredentials@Persistence@TechnicalServices@@@Z@4HA
	DD	imagerel ?dtor$0@?0??MaintainSubscription@SubscriptionHandler@Subscription@Domain@@SA?AV?$unique_ptr@VSubscriptionHandler@Subscription@Domain@@U?$default_delete@VSubscriptionHandler@Subscription@Domain@@@std@@@std@@AEBUUserCredentials@Persistence@TechnicalServices@@@Z@4HA+36
	DD	imagerel $unwind$?dtor$0@?0??MaintainSubscription@SubscriptionHandler@Subscription@Domain@@SA?AV?$unique_ptr@VSubscriptionHandler@Subscription@Domain@@U?$default_delete@VSubscriptionHandler@Subscription@Domain@@@std@@@std@@AEBUUserCredentials@Persistence@TechnicalServices@@@Z@4HA
pdata	ENDS
;	COMDAT pdata
pdata	SEGMENT
$pdata$??1SubscriptionHandler@Subscription@Domain@@UEAA@XZ DD imagerel $LN3
	DD	imagerel $LN3+81
	DD	imagerel $unwind$??1SubscriptionHandler@Subscription@Domain@@UEAA@XZ
pdata	ENDS
;	COMDAT pdata
pdata	SEGMENT
$pdata$??$make_unique@USubcriptionsInUse@Subscription@Domain@@AEBUUserCredentials@Persistence@TechnicalServices@@$0A@@std@@YA?AV?$unique_ptr@USubcriptionsInUse@Subscription@Domain@@U?$default_delete@USubcriptionsInUse@Subscription@Domain@@@std@@@0@AEBUUserCredentials@Persistence@TechnicalServices@@@Z DD imagerel $LN8
	DD	imagerel $LN8+219
	DD	imagerel $unwind$??$make_unique@USubcriptionsInUse@Subscription@Domain@@AEBUUserCredentials@Persistence@TechnicalServices@@$0A@@std@@YA?AV?$unique_ptr@USubcriptionsInUse@Subscription@Domain@@U?$default_delete@USubcriptionsInUse@Subscription@Domain@@@std@@@0@AEBUUserCredentials@Persistence@TechnicalServices@@@Z
pdata	ENDS
;	COMDAT pdata
pdata	SEGMENT
$pdata$?dtor$0@?0???$make_unique@USubcriptionsInUse@Subscription@Domain@@AEBUUserCredentials@Persistence@TechnicalServices@@$0A@@std@@YA?AV?$unique_ptr@USubcriptionsInUse@Subscription@Domain@@U?$default_delete@USubcriptionsInUse@Subscription@Domain@@@std@@@0@AEBUUserCredentials@Persistence@TechnicalServices@@@Z@4HA DD imagerel ?dtor$0@?0???$make_unique@USubcriptionsInUse@Subscription@Domain@@AEBUUserCredentials@Persistence@TechnicalServices@@$0A@@std@@YA?AV?$unique_ptr@USubcriptionsInUse@Subscription@Domain@@U?$default_delete@USubcriptionsInUse@Subscription@Domain@@@std@@@0@AEBUUserCredentials@Persistence@TechnicalServices@@@Z@4HA
	DD	imagerel ?dtor$0@?0???$make_unique@USubcriptionsInUse@Subscription@Domain@@AEBUUserCredentials@Persistence@TechnicalServices@@$0A@@std@@YA?AV?$unique_ptr@USubcriptionsInUse@Subscription@Domain@@U?$default_delete@USubcriptionsInUse@Subscription@Domain@@@std@@@0@AEBUUserCredentials@Persistence@TechnicalServices@@@Z@4HA+44
	DD	imagerel $unwind$?dtor$0@?0???$make_unique@USubcriptionsInUse@Subscription@Domain@@AEBUUserCredentials@Persistence@TechnicalServices@@$0A@@std@@YA?AV?$unique_ptr@USubcriptionsInUse@Subscription@Domain@@U?$default_delete@USubcriptionsInUse@Subscription@Domain@@@std@@@0@AEBUUserCredentials@Persistence@TechnicalServices@@@Z@4HA
pdata	ENDS
;	COMDAT pdata
pdata	SEGMENT
$pdata$??R?$default_delete@USubcriptionsInUse@Subscription@Domain@@@std@@QEBAXPEAUSubcriptionsInUse@Subscription@Domain@@@Z DD imagerel $LN5
	DD	imagerel $LN5+152
	DD	imagerel $unwind$??R?$default_delete@USubcriptionsInUse@Subscription@Domain@@@std@@QEBAXPEAUSubcriptionsInUse@Subscription@Domain@@@Z
pdata	ENDS
;	COMDAT pdata
pdata	SEGMENT
$pdata$??1?$unique_ptr@USubcriptionsInUse@Subscription@Domain@@U?$default_delete@USubcriptionsInUse@Subscription@Domain@@@std@@@std@@QEAA@XZ DD imagerel $LN4
	DD	imagerel $LN4+135
	DD	imagerel $unwind$??1?$unique_ptr@USubcriptionsInUse@Subscription@Domain@@U?$default_delete@USubcriptionsInUse@Subscription@Domain@@@std@@@std@@QEAA@XZ
pdata	ENDS
;	COMDAT pdata
pdata	SEGMENT
$pdata$?get_deleter@?$unique_ptr@USubcriptionsInUse@Subscription@Domain@@U?$default_delete@USubcriptionsInUse@Subscription@Domain@@@std@@@std@@QEAAAEAU?$default_delete@USubcriptionsInUse@Subscription@Domain@@@2@XZ DD imagerel $LN3
	DD	imagerel $LN3+79
	DD	imagerel $unwind$?get_deleter@?$unique_ptr@USubcriptionsInUse@Subscription@Domain@@U?$default_delete@USubcriptionsInUse@Subscription@Domain@@@std@@@std@@QEAAAEAU?$default_delete@USubcriptionsInUse@Subscription@Domain@@@2@XZ
pdata	ENDS
;	COMDAT pdata
pdata	SEGMENT
$pdata$?release@?$unique_ptr@USubcriptionsInUse@Subscription@Domain@@U?$default_delete@USubcriptionsInUse@Subscription@Domain@@@std@@@std@@QEAAPEAUSubcriptionsInUse@Subscription@Domain@@XZ DD imagerel $LN3
	DD	imagerel $LN3+97
	DD	imagerel $unwind$?release@?$unique_ptr@USubcriptionsInUse@Subscription@Domain@@U?$default_delete@USubcriptionsInUse@Subscription@Domain@@@std@@@std@@QEAAPEAUSubcriptionsInUse@Subscription@Domain@@XZ
pdata	ENDS
;	COMDAT pdata
pdata	SEGMENT
$pdata$?_Get_first@?$_Compressed_pair@U?$default_delete@USubcriptionsInUse@Subscription@Domain@@@std@@PEAUSubcriptionsInUse@Subscription@Domain@@$00@std@@QEAAAEAU?$default_delete@USubcriptionsInUse@Subscription@Domain@@@2@XZ DD imagerel $LN3
	DD	imagerel $LN3+71
	DD	imagerel $unwind$?_Get_first@?$_Compressed_pair@U?$default_delete@USubcriptionsInUse@Subscription@Domain@@@std@@PEAUSubcriptionsInUse@Subscription@Domain@@$00@std@@QEAAAEAU?$default_delete@USubcriptionsInUse@Subscription@Domain@@@2@XZ
pdata	ENDS
;	COMDAT pdata
pdata	SEGMENT
$pdata$??$?0USubcriptionsInUse@Subscription@Domain@@$0A@@?$default_delete@VSubscriptionHandler@Subscription@Domain@@@std@@QEAA@AEBU?$default_delete@USubcriptionsInUse@Subscription@Domain@@@1@@Z DD imagerel $LN3
	DD	imagerel $LN3+76
	DD	imagerel $unwind$??$?0USubcriptionsInUse@Subscription@Domain@@$0A@@?$default_delete@VSubscriptionHandler@Subscription@Domain@@@std@@QEAA@AEBU?$default_delete@USubcriptionsInUse@Subscription@Domain@@@1@@Z
pdata	ENDS
;	COMDAT pdata
pdata	SEGMENT
$pdata$??$?0USubcriptionsInUse@Subscription@Domain@@U?$default_delete@USubcriptionsInUse@Subscription@Domain@@@std@@$0A@@?$unique_ptr@VSubscriptionHandler@Subscription@Domain@@U?$default_delete@VSubscriptionHandler@Subscription@Domain@@@std@@@std@@QEAA@$$QEAV?$unique_ptr@USubcriptionsInUse@Subscription@Domain@@U?$default_delete@USubcriptionsInUse@Subscription@Domain@@@std@@@1@@Z DD imagerel $LN3
	DD	imagerel $LN3+182
	DD	imagerel $unwind$??$?0USubcriptionsInUse@Subscription@Domain@@U?$default_delete@USubcriptionsInUse@Subscription@Domain@@@std@@$0A@@?$unique_ptr@VSubscriptionHandler@Subscription@Domain@@U?$default_delete@VSubscriptionHandler@Subscription@Domain@@@std@@@std@@QEAA@$$QEAV?$unique_ptr@USubcriptionsInUse@Subscription@Domain@@U?$default_delete@USubcriptionsInUse@Subscription@Domain@@@std@@@1@@Z
pdata	ENDS
;	COMDAT pdata
pdata	SEGMENT
$pdata$??$?0U?$default_delete@VSubscriptionHandler@Subscription@Domain@@@std@@$0A@@?$unique_ptr@VSubscriptionHandler@Subscription@Domain@@U?$default_delete@VSubscriptionHandler@Subscription@Domain@@@std@@@std@@QEAA@$$T@Z DD imagerel $LN3
	DD	imagerel $LN3+109
	DD	imagerel $unwind$??$?0U?$default_delete@VSubscriptionHandler@Subscription@Domain@@@std@@$0A@@?$unique_ptr@VSubscriptionHandler@Subscription@Domain@@U?$default_delete@VSubscriptionHandler@Subscription@Domain@@@std@@@std@@QEAA@$$T@Z
pdata	ENDS
;	COMDAT pdata
pdata	SEGMENT
$pdata$??$_Delete_plain_internal@V?$allocator@U_Container_proxy@std@@@std@@@std@@YAXAEAV?$allocator@U_Container_proxy@std@@@0@QEAU_Container_proxy@0@@Z DD imagerel $LN3
	DD	imagerel $LN3+88
	DD	imagerel $unwind$??$_Delete_plain_internal@V?$allocator@U_Container_proxy@std@@@std@@@std@@YAXAEAV?$allocator@U_Container_proxy@std@@@0@QEAU_Container_proxy@0@@Z
pdata	ENDS
;	COMDAT pdata
pdata	SEGMENT
$pdata$??$?0D@?$allocator@U_Container_proxy@std@@@std@@QEAA@AEBV?$allocator@D@1@@Z DD imagerel $LN3
	DD	imagerel $LN3+76
	DD	imagerel $unwind$??$?0D@?$allocator@U_Container_proxy@std@@@std@@QEAA@AEBV?$allocator@D@1@@Z
pdata	ENDS
;	COMDAT pdata
pdata	SEGMENT
$pdata$??$_Destroy_in_place@PEAD@std@@YAXAEAPEAD@Z DD imagerel $LN3
	DD	imagerel $LN3+64
	DD	imagerel $unwind$??$_Destroy_in_place@PEAD@std@@YAXAEAPEAD@Z
pdata	ENDS
;	COMDAT pdata
pdata	SEGMENT
$pdata$??$_Deallocate@$0BA@$0A@@std@@YAXPEAX_K@Z DD imagerel $LN4
	DD	imagerel $LN4+121
	DD	imagerel $unwind$??$_Deallocate@$0BA@$0A@@std@@YAXPEAX_K@Z
pdata	ENDS
;	COMDAT pdata
pdata	SEGMENT
$pdata$??$forward@AEBUUserCredentials@Persistence@TechnicalServices@@@std@@YAAEBUUserCredentials@Persistence@TechnicalServices@@AEBU123@@Z DD imagerel $LN3
	DD	imagerel $LN3+71
	DD	imagerel $unwind$??$forward@AEBUUserCredentials@Persistence@TechnicalServices@@@std@@YAAEBUUserCredentials@Persistence@TechnicalServices@@AEBU123@@Z
pdata	ENDS
;	COMDAT pdata
pdata	SEGMENT
$pdata$??$?0U?$default_delete@USubcriptionsInUse@Subscription@Domain@@@std@@$0A@@?$unique_ptr@USubcriptionsInUse@Subscription@Domain@@U?$default_delete@USubcriptionsInUse@Subscription@Domain@@@std@@@std@@QEAA@PEAUSubcriptionsInUse@Subscription@Domain@@@Z DD imagerel $LN3
	DD	imagerel $LN3+116
	DD	imagerel $unwind$??$?0U?$default_delete@USubcriptionsInUse@Subscription@Domain@@@std@@$0A@@?$unique_ptr@USubcriptionsInUse@Subscription@Domain@@U?$default_delete@USubcriptionsInUse@Subscription@Domain@@@std@@@std@@QEAA@PEAUSubcriptionsInUse@Subscription@Domain@@@Z
pdata	ENDS
;	COMDAT pdata
pdata	SEGMENT
$pdata$??$forward@U?$default_delete@USubcriptionsInUse@Subscription@Domain@@@std@@@std@@YA$$QEAU?$default_delete@USubcriptionsInUse@Subscription@Domain@@@0@AEAU10@@Z DD imagerel $LN3
	DD	imagerel $LN3+71
	DD	imagerel $unwind$??$forward@U?$default_delete@USubcriptionsInUse@Subscription@Domain@@@std@@@std@@YA$$QEAU?$default_delete@USubcriptionsInUse@Subscription@Domain@@@0@AEAU10@@Z
pdata	ENDS
;	COMDAT pdata
pdata	SEGMENT
$pdata$??$?0U?$default_delete@USubcriptionsInUse@Subscription@Domain@@@std@@PEAUSubcriptionsInUse@Subscription@Domain@@@?$_Compressed_pair@U?$default_delete@VSubscriptionHandler@Subscription@Domain@@@std@@PEAVSubscriptionHandler@Subscription@Domain@@$00@std@@QEAA@U_One_then_variadic_args_t@1@$$QEAU?$default_delete@USubcriptionsInUse@Subscription@Domain@@@1@$$QEAPEAUSubcriptionsInUse@Subscription@Domain@@@Z DD imagerel $LN3
	DD	imagerel $LN3+137
	DD	imagerel $unwind$??$?0U?$default_delete@USubcriptionsInUse@Subscription@Domain@@@std@@PEAUSubcriptionsInUse@Subscription@Domain@@@?$_Compressed_pair@U?$default_delete@VSubscriptionHandler@Subscription@Domain@@@std@@PEAVSubscriptionHandler@Subscription@Domain@@$00@std@@QEAA@U_One_then_variadic_args_t@1@$$QEAU?$default_delete@USubcriptionsInUse@Subscription@Domain@@@1@$$QEAPEAUSubcriptionsInUse@Subscription@Domain@@@Z
pdata	ENDS
;	COMDAT pdata
pdata	SEGMENT
$pdata$??$?0$$V@?$_Compressed_pair@U?$default_delete@VSubscriptionHandler@Subscription@Domain@@@std@@PEAVSubscriptionHandler@Subscription@Domain@@$00@std@@QEAA@U_Zero_then_variadic_args_t@1@@Z DD imagerel $LN3
	DD	imagerel $LN3+89
	DD	imagerel $unwind$??$?0$$V@?$_Compressed_pair@U?$default_delete@VSubscriptionHandler@Subscription@Domain@@@std@@PEAVSubscriptionHandler@Subscription@Domain@@$00@std@@QEAA@U_Zero_then_variadic_args_t@1@@Z
pdata	ENDS
;	COMDAT pdata
pdata	SEGMENT
$pdata$??$_Deallocate_plain@V?$allocator@U_Container_proxy@std@@@std@@@std@@YAXAEAV?$allocator@U_Container_proxy@std@@@0@QEAU_Container_proxy@0@@Z DD imagerel $LN3
	DD	imagerel $LN3+95
	DD	imagerel $unwind$??$_Deallocate_plain@V?$allocator@U_Container_proxy@std@@@std@@@std@@YAXAEAV?$allocator@U_Container_proxy@std@@@0@QEAU_Container_proxy@0@@Z
pdata	ENDS
;	COMDAT pdata
pdata	SEGMENT
$pdata$??$exchange@PEAUSubcriptionsInUse@Subscription@Domain@@PEAU123@@std@@YAPEAUSubcriptionsInUse@Subscription@Domain@@AEAPEAU123@$$QEAPEAU123@@Z DD imagerel $LN3
	DD	imagerel $LN3+107
	DD	imagerel $unwind$??$exchange@PEAUSubcriptionsInUse@Subscription@Domain@@PEAU123@@std@@YAPEAUSubcriptionsInUse@Subscription@Domain@@AEAPEAU123@$$QEAPEAU123@@Z
pdata	ENDS
;	COMDAT pdata
pdata	SEGMENT
$pdata$??$?0AEAPEAUSubcriptionsInUse@Subscription@Domain@@@?$_Compressed_pair@U?$default_delete@USubcriptionsInUse@Subscription@Domain@@@std@@PEAUSubcriptionsInUse@Subscription@Domain@@$00@std@@QEAA@U_Zero_then_variadic_args_t@1@AEAPEAUSubcriptionsInUse@Subscription@Domain@@@Z DD imagerel $LN3
	DD	imagerel $LN3+105
	DD	imagerel $unwind$??$?0AEAPEAUSubcriptionsInUse@Subscription@Domain@@@?$_Compressed_pair@U?$default_delete@USubcriptionsInUse@Subscription@Domain@@@std@@PEAUSubcriptionsInUse@Subscription@Domain@@$00@std@@QEAA@U_Zero_then_variadic_args_t@1@AEAPEAUSubcriptionsInUse@Subscription@Domain@@@Z
pdata	ENDS
;	COMDAT pdata
pdata	SEGMENT
$pdata$??$forward@PEAUSubcriptionsInUse@Subscription@Domain@@@std@@YA$$QEAPEAUSubcriptionsInUse@Subscription@Domain@@AEAPEAU123@@Z DD imagerel $LN3
	DD	imagerel $LN3+71
	DD	imagerel $unwind$??$forward@PEAUSubcriptionsInUse@Subscription@Domain@@@std@@YA$$QEAPEAUSubcriptionsInUse@Subscription@Domain@@AEAPEAU123@@Z
pdata	ENDS
;	COMDAT pdata
pdata	SEGMENT
$pdata$?deallocate@?$_Default_allocator_traits@V?$allocator@U_Container_proxy@std@@@std@@@std@@SAXAEAV?$allocator@U_Container_proxy@std@@@2@QEAU_Container_proxy@2@_K@Z DD imagerel $LN3
	DD	imagerel $LN3+97
	DD	imagerel $unwind$?deallocate@?$_Default_allocator_traits@V?$allocator@U_Container_proxy@std@@@std@@@std@@SAXAEAV?$allocator@U_Container_proxy@std@@@2@QEAU_Container_proxy@2@_K@Z
pdata	ENDS
;	COMDAT pdata
pdata	SEGMENT
$pdata$??$forward@AEAPEAUSubcriptionsInUse@Subscription@Domain@@@std@@YAAEAPEAUSubcriptionsInUse@Subscription@Domain@@AEAPEAU123@@Z DD imagerel $LN3
	DD	imagerel $LN3+71
	DD	imagerel $unwind$??$forward@AEAPEAUSubcriptionsInUse@Subscription@Domain@@@std@@YAAEAPEAUSubcriptionsInUse@Subscription@Domain@@AEAPEAU123@@Z
pdata	ENDS
;	COMDAT rtc$TMZ
rtc$TMZ	SEGMENT
_RTC_Shutdown.rtc$TMZ DQ FLAT:_RTC_Shutdown
rtc$TMZ	ENDS
;	COMDAT rtc$IMZ
rtc$IMZ	SEGMENT
_RTC_InitBase.rtc$IMZ DQ FLAT:_RTC_InitBase
rtc$IMZ	ENDS
;	COMDAT ??_R1A@?0A@EA@SubscriptionHandler@Subscription@Domain@@8
rdata$r	SEGMENT
??_R1A@?0A@EA@SubscriptionHandler@Subscription@Domain@@8 DD imagerel ??_R0?AVSubscriptionHandler@Subscription@Domain@@@8 ; Domain::Subscription::SubscriptionHandler::`RTTI Base Class Descriptor at (0,-1,0,64)'
	DD	00H
	DD	00H
	DD	0ffffffffH
	DD	00H
	DD	040H
	DD	imagerel ??_R3SubscriptionHandler@Subscription@Domain@@8
rdata$r	ENDS
;	COMDAT ??_R2SubscriptionHandler@Subscription@Domain@@8
rdata$r	SEGMENT
??_R2SubscriptionHandler@Subscription@Domain@@8 DD imagerel ??_R1A@?0A@EA@SubscriptionHandler@Subscription@Domain@@8 ; Domain::Subscription::SubscriptionHandler::`RTTI Base Class Array'
	ORG $+3
rdata$r	ENDS
;	COMDAT ??_R3SubscriptionHandler@Subscription@Domain@@8
rdata$r	SEGMENT
??_R3SubscriptionHandler@Subscription@Domain@@8 DD 00H	; Domain::Subscription::SubscriptionHandler::`RTTI Class Hierarchy Descriptor'
	DD	00H
	DD	01H
	DD	imagerel ??_R2SubscriptionHandler@Subscription@Domain@@8
rdata$r	ENDS
;	COMDAT ??_R0?AVSubscriptionHandler@Subscription@Domain@@@8
data$rs	SEGMENT
??_R0?AVSubscriptionHandler@Subscription@Domain@@@8 DQ FLAT:??_7type_info@@6B@ ; Domain::Subscription::SubscriptionHandler `RTTI Type Descriptor'
	DQ	0000000000000000H
	DB	'.?AVSubscriptionHandler@Subscription@Domain@@', 00H
data$rs	ENDS
;	COMDAT ??_R4SubscriptionHandler@Subscription@Domain@@6B@
rdata$r	SEGMENT
??_R4SubscriptionHandler@Subscription@Domain@@6B@ DD 01H ; Domain::Subscription::SubscriptionHandler::`RTTI Complete Object Locator'
	DD	00H
	DD	00H
	DD	imagerel ??_R0?AVSubscriptionHandler@Subscription@Domain@@@8
	DD	imagerel ??_R3SubscriptionHandler@Subscription@Domain@@8
	DD	imagerel ??_R4SubscriptionHandler@Subscription@Domain@@6B@
rdata$r	ENDS
;	COMDAT ??_7SubscriptionHandler@Subscription@Domain@@6B@
CONST	SEGMENT
??_7SubscriptionHandler@Subscription@Domain@@6B@ DQ FLAT:??_R4SubscriptionHandler@Subscription@Domain@@6B@ ; Domain::Subscription::SubscriptionHandler::`vftable'
	DQ	FLAT:_purecall
	DQ	FLAT:_purecall
	DQ	FLAT:_purecall
	DQ	FLAT:_purecall
	DQ	FLAT:_purecall
	DQ	FLAT:_purecall
	DQ	FLAT:_purecall
CONST	ENDS
;	COMDAT ??_C@_1CG@JNLFBNGN@?$AA?$CC?$AAi?$AAn?$AAv?$AAa?$AAl?$AAi?$AAd?$AA?5?$AAa?$AAr?$AAg?$AAu?$AAm?$AAe@
CONST	SEGMENT
??_C@_1CG@JNLFBNGN@?$AA?$CC?$AAi?$AAn?$AAv?$AAa?$AAl?$AAi?$AAd?$AA?5?$AAa?$AAr?$AAg?$AAu?$AAm?$AAe@ DB '"'
	DB	00H, 'i', 00H, 'n', 00H, 'v', 00H, 'a', 00H, 'l', 00H, 'i', 00H
	DB	'd', 00H, ' ', 00H, 'a', 00H, 'r', 00H, 'g', 00H, 'u', 00H, 'm'
	DB	00H, 'e', 00H, 'n', 00H, 't', 00H, '"', 00H, 00H, 00H ; `string'
CONST	ENDS
;	COMDAT ??_C@_1EK@NIFDJFDG@?$AAs?$AAt?$AAd?$AA?3?$AA?3?$AA_?$AAA?$AAd?$AAj?$AAu?$AAs?$AAt?$AA_?$AAm?$AAa@
CONST	SEGMENT
??_C@_1EK@NIFDJFDG@?$AAs?$AAt?$AAd?$AA?3?$AA?3?$AA_?$AAA?$AAd?$AAj?$AAu?$AAs?$AAt?$AA_?$AAm?$AAa@ DB 's'
	DB	00H, 't', 00H, 'd', 00H, ':', 00H, ':', 00H, '_', 00H, 'A', 00H
	DB	'd', 00H, 'j', 00H, 'u', 00H, 's', 00H, 't', 00H, '_', 00H, 'm'
	DB	00H, 'a', 00H, 'n', 00H, 'u', 00H, 'a', 00H, 'l', 00H, 'l', 00H
	DB	'y', 00H, '_', 00H, 'v', 00H, 'e', 00H, 'c', 00H, 't', 00H, 'o'
	DB	00H, 'r', 00H, '_', 00H, 'a', 00H, 'l', 00H, 'i', 00H, 'g', 00H
	DB	'n', 00H, 'e', 00H, 'd', 00H, 00H, 00H	; `string'
CONST	ENDS
;	COMDAT ??_C@_1NA@PDNNFCLD@?$AAC?$AA?3?$AA?2?$AAP?$AAr?$AAo?$AAg?$AAr?$AAa?$AAm?$AA?5?$AAF?$AAi?$AAl?$AAe@
CONST	SEGMENT
??_C@_1NA@PDNNFCLD@?$AAC?$AA?3?$AA?2?$AAP?$AAr?$AAo?$AAg?$AAr?$AAa?$AAm?$AA?5?$AAF?$AAi?$AAl?$AAe@ DB 'C'
	DB	00H, ':', 00H, '\', 00H, 'P', 00H, 'r', 00H, 'o', 00H, 'g', 00H
	DB	'r', 00H, 'a', 00H, 'm', 00H, ' ', 00H, 'F', 00H, 'i', 00H, 'l'
	DB	00H, 'e', 00H, 's', 00H, ' ', 00H, '(', 00H, 'x', 00H, '8', 00H
	DB	'6', 00H, ')', 00H, '\', 00H, 'M', 00H, 'i', 00H, 'c', 00H, 'r'
	DB	00H, 'o', 00H, 's', 00H, 'o', 00H, 'f', 00H, 't', 00H, ' ', 00H
	DB	'V', 00H, 'i', 00H, 's', 00H, 'u', 00H, 'a', 00H, 'l', 00H, ' '
	DB	00H, 'S', 00H, 't', 00H, 'u', 00H, 'd', 00H, 'i', 00H, 'o', 00H
	DB	'\', 00H, '2', 00H, '0', 00H, '1', 00H, '9', 00H, '\', 00H, 'C'
	DB	00H, 'o', 00H, 'm', 00H, 'm', 00H, 'u', 00H, 'n', 00H, 'i', 00H
	DB	't', 00H, 'y', 00H, '\', 00H, 'V', 00H, 'C', 00H, '\', 00H, 'T'
	DB	00H, 'o', 00H, 'o', 00H, 'l', 00H, 's', 00H, '\', 00H, 'M', 00H
	DB	'S', 00H, 'V', 00H, 'C', 00H, '\', 00H, '1', 00H, '4', 00H, '.'
	DB	00H, '2', 00H, '8', 00H, '.', 00H, '2', 00H, '9', 00H, '3', 00H
	DB	'3', 00H, '3', 00H, '\', 00H, 'i', 00H, 'n', 00H, 'c', 00H, 'l'
	DB	00H, 'u', 00H, 'd', 00H, 'e', 00H, '\', 00H, 'x', 00H, 'm', 00H
	DB	'e', 00H, 'm', 00H, 'o', 00H, 'r', 00H, 'y', 00H, 00H, 00H ; `string'
CONST	ENDS
;	COMDAT ??_C@_0GI@CLKHGMEI@C?3?2Program?5Files?5?$CIx86?$CJ?2Microsof@
CONST	SEGMENT
??_C@_0GI@CLKHGMEI@C?3?2Program?5Files?5?$CIx86?$CJ?2Microsof@ DB 'C:\Pro'
	DB	'gram Files (x86)\Microsoft Visual Studio\2019\Community\VC\To'
	DB	'ols\MSVC\14.28.29333\include\xmemory', 00H	; `string'
CONST	ENDS
;	COMDAT ??_C@_02DKCKIIND@?$CFs@
CONST	SEGMENT
??_C@_02DKCKIIND@?$CFs@ DB '%s', 00H			; `string'
CONST	ENDS
;	COMDAT ??_C@_0BB@FCMFBGOM@invalid?5argument@
CONST	SEGMENT
??_C@_0BB@FCMFBGOM@invalid?5argument@ DB 'invalid argument', 00H ; `string'
CONST	ENDS
;	COMDAT ?__LINE__Var@?0??_Adjust_manually_vector_aligned@std@@YAXAEAPEAXAEA_K@Z@4JA
_DATA	SEGMENT
?__LINE__Var@?0??_Adjust_manually_vector_aligned@std@@YAXAEAPEAXAEA_K@Z@4JA DD 084H ; `std::_Adjust_manually_vector_aligned'::`1'::__LINE__Var
_DATA	ENDS
;	COMDAT xdata
xdata	SEGMENT
$unwind$??$forward@AEAPEAUSubcriptionsInUse@Subscription@Domain@@@std@@YAAEAPEAUSubcriptionsInUse@Subscription@Domain@@AEAPEAU123@@Z DD 025052a01H
	DD	010e2313H
	DD	07007001dH
	DD	05006H
xdata	ENDS
;	COMDAT xdata
xdata	SEGMENT
$unwind$?deallocate@?$_Default_allocator_traits@V?$allocator@U_Container_proxy@std@@@std@@@std@@SAXAEAV?$allocator@U_Container_proxy@std@@@2@QEAU_Container_proxy@2@_K@Z DD 025053401H
	DD	0118231dH
	DD	07011001dH
	DD	05010H
xdata	ENDS
;	COMDAT xdata
xdata	SEGMENT
$unwind$??$forward@PEAUSubcriptionsInUse@Subscription@Domain@@@std@@YA$$QEAPEAUSubcriptionsInUse@Subscription@Domain@@AEAPEAU123@@Z DD 025052a01H
	DD	010e2313H
	DD	07007001dH
	DD	05006H
xdata	ENDS
;	COMDAT xdata
xdata	SEGMENT
$unwind$??$?0AEAPEAUSubcriptionsInUse@Subscription@Domain@@@?$_Compressed_pair@U?$default_delete@USubcriptionsInUse@Subscription@Domain@@@std@@PEAUSubcriptionsInUse@Subscription@Domain@@$00@std@@QEAA@U_Zero_then_variadic_args_t@1@AEAPEAUSubcriptionsInUse@Subscription@Domain@@@Z DD 025053301H
	DD	0117231cH
	DD	07010001dH
	DD	0500fH
xdata	ENDS
;	COMDAT xdata
xdata	SEGMENT
$unwind$??$exchange@PEAUSubcriptionsInUse@Subscription@Domain@@PEAU123@@std@@YAPEAUSubcriptionsInUse@Subscription@Domain@@AEAPEAU123@$$QEAPEAU123@@Z DD 025052f01H
	DD	01132318H
	DD	0700c0021H
	DD	0500bH
xdata	ENDS
;	COMDAT xdata
xdata	SEGMENT
$ip2state$??$_Deallocate_plain@V?$allocator@U_Container_proxy@std@@@std@@@std@@YAXAEAV?$allocator@U_Container_proxy@std@@@0@QEAU_Container_proxy@0@@Z DB 02H
	DB	00H
	DB	00H
xdata	ENDS
;	COMDAT xdata
xdata	SEGMENT
$cppxdata$??$_Deallocate_plain@V?$allocator@U_Container_proxy@std@@@std@@@std@@YAXAEAV?$allocator@U_Container_proxy@std@@@0@QEAU_Container_proxy@0@@Z DB 060H
	DD	imagerel $ip2state$??$_Deallocate_plain@V?$allocator@U_Container_proxy@std@@@std@@@std@@YAXAEAV?$allocator@U_Container_proxy@std@@@0@QEAU_Container_proxy@0@@Z
xdata	ENDS
;	COMDAT xdata
xdata	SEGMENT
$unwind$??$_Deallocate_plain@V?$allocator@U_Container_proxy@std@@@std@@@std@@YAXAEAV?$allocator@U_Container_proxy@std@@@0@QEAU_Container_proxy@0@@Z DD 025052f19H
	DD	01132318H
	DD	0700c001dH
	DD	0500bH
	DD	imagerel __CxxFrameHandler4
	DD	imagerel $cppxdata$??$_Deallocate_plain@V?$allocator@U_Container_proxy@std@@@std@@@std@@YAXAEAV?$allocator@U_Container_proxy@std@@@0@QEAU_Container_proxy@0@@Z
xdata	ENDS
;	COMDAT xdata
xdata	SEGMENT
$unwind$??$?0$$V@?$_Compressed_pair@U?$default_delete@VSubscriptionHandler@Subscription@Domain@@@std@@PEAVSubscriptionHandler@Subscription@Domain@@$00@std@@QEAA@U_Zero_then_variadic_args_t@1@@Z DD 025052e01H
	DD	01122317H
	DD	0700b001dH
	DD	0500aH
xdata	ENDS
;	COMDAT xdata
xdata	SEGMENT
$unwind$??$?0U?$default_delete@USubcriptionsInUse@Subscription@Domain@@@std@@PEAUSubcriptionsInUse@Subscription@Domain@@@?$_Compressed_pair@U?$default_delete@VSubscriptionHandler@Subscription@Domain@@@std@@PEAVSubscriptionHandler@Subscription@Domain@@$00@std@@QEAA@U_One_then_variadic_args_t@1@$$QEAU?$default_delete@USubcriptionsInUse@Subscription@Domain@@@1@$$QEAPEAUSubcriptionsInUse@Subscription@Domain@@@Z DD 025053801H
	DD	011c2321H
	DD	07015001dH
	DD	05014H
xdata	ENDS
;	COMDAT xdata
xdata	SEGMENT
$unwind$??$forward@U?$default_delete@USubcriptionsInUse@Subscription@Domain@@@std@@@std@@YA$$QEAU?$default_delete@USubcriptionsInUse@Subscription@Domain@@@0@AEAU10@@Z DD 025052a01H
	DD	010e2313H
	DD	07007001dH
	DD	05006H
xdata	ENDS
;	COMDAT xdata
xdata	SEGMENT
$unwind$??$?0U?$default_delete@USubcriptionsInUse@Subscription@Domain@@@std@@$0A@@?$unique_ptr@USubcriptionsInUse@Subscription@Domain@@U?$default_delete@USubcriptionsInUse@Subscription@Domain@@@std@@@std@@QEAA@PEAUSubcriptionsInUse@Subscription@Domain@@@Z DD 025052f01H
	DD	01132318H
	DD	0700c0021H
	DD	0500bH
xdata	ENDS
;	COMDAT xdata
xdata	SEGMENT
$unwind$??$forward@AEBUUserCredentials@Persistence@TechnicalServices@@@std@@YAAEBUUserCredentials@Persistence@TechnicalServices@@AEBU123@@Z DD 025052a01H
	DD	010e2313H
	DD	07007001dH
	DD	05006H
xdata	ENDS
;	COMDAT xdata
xdata	SEGMENT
$ip2state$??$_Deallocate@$0BA@$0A@@std@@YAXPEAX_K@Z DB 02H
	DB	00H
	DB	00H
xdata	ENDS
;	COMDAT xdata
xdata	SEGMENT
$cppxdata$??$_Deallocate@$0BA@$0A@@std@@YAXPEAX_K@Z DB 060H
	DD	imagerel $ip2state$??$_Deallocate@$0BA@$0A@@std@@YAXPEAX_K@Z
xdata	ENDS
;	COMDAT xdata
xdata	SEGMENT
$unwind$??$_Deallocate@$0BA@$0A@@std@@YAXPEAX_K@Z DD 025052f19H
	DD	01132318H
	DD	0700c001dH
	DD	0500bH
	DD	imagerel __CxxFrameHandler4
	DD	imagerel $cppxdata$??$_Deallocate@$0BA@$0A@@std@@YAXPEAX_K@Z
xdata	ENDS
;	COMDAT xdata
xdata	SEGMENT
$unwind$??$_Destroy_in_place@PEAD@std@@YAXAEAPEAD@Z DD 025052a01H
	DD	010e2313H
	DD	07007001dH
	DD	05006H
xdata	ENDS
;	COMDAT xdata
xdata	SEGMENT
$unwind$??$?0D@?$allocator@U_Container_proxy@std@@@std@@QEAA@AEBV?$allocator@D@1@@Z DD 025052f01H
	DD	01132318H
	DD	0700c001dH
	DD	0500bH
xdata	ENDS
;	COMDAT xdata
xdata	SEGMENT
$unwind$??$_Delete_plain_internal@V?$allocator@U_Container_proxy@std@@@std@@@std@@YAXAEAV?$allocator@U_Container_proxy@std@@@0@QEAU_Container_proxy@0@@Z DD 025052f01H
	DD	01132318H
	DD	0700c001dH
	DD	0500bH
xdata	ENDS
;	COMDAT xdata
xdata	SEGMENT
$unwind$??$?0U?$default_delete@VSubscriptionHandler@Subscription@Domain@@@std@@$0A@@?$unique_ptr@VSubscriptionHandler@Subscription@Domain@@U?$default_delete@VSubscriptionHandler@Subscription@Domain@@@std@@@std@@QEAA@$$T@Z DD 025052f01H
	DD	01132318H
	DD	0700c0021H
	DD	0500bH
xdata	ENDS
;	COMDAT xdata
xdata	SEGMENT
$unwind$??$?0USubcriptionsInUse@Subscription@Domain@@U?$default_delete@USubcriptionsInUse@Subscription@Domain@@@std@@$0A@@?$unique_ptr@VSubscriptionHandler@Subscription@Domain@@U?$default_delete@VSubscriptionHandler@Subscription@Domain@@@std@@@std@@QEAA@$$QEAV?$unique_ptr@USubcriptionsInUse@Subscription@Domain@@U?$default_delete@USubcriptionsInUse@Subscription@Domain@@@std@@@1@@Z DD 025052f01H
	DD	01132318H
	DD	0700c002bH
	DD	0500bH
xdata	ENDS
;	COMDAT xdata
xdata	SEGMENT
$unwind$??$?0USubcriptionsInUse@Subscription@Domain@@$0A@@?$default_delete@VSubscriptionHandler@Subscription@Domain@@@std@@QEAA@AEBU?$default_delete@USubcriptionsInUse@Subscription@Domain@@@1@@Z DD 025052f01H
	DD	01132318H
	DD	0700c001dH
	DD	0500bH
xdata	ENDS
;	COMDAT xdata
xdata	SEGMENT
$unwind$?_Get_first@?$_Compressed_pair@U?$default_delete@USubcriptionsInUse@Subscription@Domain@@@std@@PEAUSubcriptionsInUse@Subscription@Domain@@$00@std@@QEAAAEAU?$default_delete@USubcriptionsInUse@Subscription@Domain@@@2@XZ DD 025052a01H
	DD	010e2313H
	DD	07007001dH
	DD	05006H
xdata	ENDS
;	COMDAT xdata
xdata	SEGMENT
$unwind$?release@?$unique_ptr@USubcriptionsInUse@Subscription@Domain@@U?$default_delete@USubcriptionsInUse@Subscription@Domain@@@std@@@std@@QEAAPEAUSubcriptionsInUse@Subscription@Domain@@XZ DD 025052a01H
	DD	010e2313H
	DD	070070021H
	DD	05006H
xdata	ENDS
;	COMDAT xdata
xdata	SEGMENT
$unwind$?get_deleter@?$unique_ptr@USubcriptionsInUse@Subscription@Domain@@U?$default_delete@USubcriptionsInUse@Subscription@Domain@@@std@@@std@@QEAAAEAU?$default_delete@USubcriptionsInUse@Subscription@Domain@@@2@XZ DD 025052a01H
	DD	010e2313H
	DD	07007001dH
	DD	05006H
xdata	ENDS
;	COMDAT xdata
xdata	SEGMENT
$unwind$??1?$unique_ptr@USubcriptionsInUse@Subscription@Domain@@U?$default_delete@USubcriptionsInUse@Subscription@Domain@@@std@@@std@@QEAA@XZ DD 025052a01H
	DD	010e2313H
	DD	07007001fH
	DD	05006H
xdata	ENDS
;	COMDAT xdata
xdata	SEGMENT
$unwind$??R?$default_delete@USubcriptionsInUse@Subscription@Domain@@@std@@QEBAXPEAUSubcriptionsInUse@Subscription@Domain@@@Z DD 025052f01H
	DD	01132318H
	DD	0700c0023H
	DD	0500bH
xdata	ENDS
;	COMDAT xdata
xdata	SEGMENT
$unwind$?dtor$0@?0???$make_unique@USubcriptionsInUse@Subscription@Domain@@AEBUUserCredentials@Persistence@TechnicalServices@@$0A@@std@@YA?AV?$unique_ptr@USubcriptionsInUse@Subscription@Domain@@U?$default_delete@USubcriptionsInUse@Subscription@Domain@@@std@@@0@AEBUUserCredentials@Persistence@TechnicalServices@@@Z@4HA DD 031001H
	DD	0700c4210H
	DD	0500bH
xdata	ENDS
;	COMDAT xdata
xdata	SEGMENT
$ip2state$??$make_unique@USubcriptionsInUse@Subscription@Domain@@AEBUUserCredentials@Persistence@TechnicalServices@@$0A@@std@@YA?AV?$unique_ptr@USubcriptionsInUse@Subscription@Domain@@U?$default_delete@USubcriptionsInUse@Subscription@Domain@@@std@@@0@AEBUUserCredentials@Persistence@TechnicalServices@@@Z DB 06H
	DB	00H
	DB	00H
	DB	0acH
	DB	02H
	DB	0a4H
	DB	00H
xdata	ENDS
;	COMDAT xdata
xdata	SEGMENT
$stateUnwindMap$??$make_unique@USubcriptionsInUse@Subscription@Domain@@AEBUUserCredentials@Persistence@TechnicalServices@@$0A@@std@@YA?AV?$unique_ptr@USubcriptionsInUse@Subscription@Domain@@U?$default_delete@USubcriptionsInUse@Subscription@Domain@@@std@@@0@AEBUUserCredentials@Persistence@TechnicalServices@@@Z DB 02H
	DB	0eH
	DD	imagerel ?dtor$0@?0???$make_unique@USubcriptionsInUse@Subscription@Domain@@AEBUUserCredentials@Persistence@TechnicalServices@@$0A@@std@@YA?AV?$unique_ptr@USubcriptionsInUse@Subscription@Domain@@U?$default_delete@USubcriptionsInUse@Subscription@Domain@@@std@@@0@AEBUUserCredentials@Persistence@TechnicalServices@@@Z@4HA
xdata	ENDS
;	COMDAT xdata
xdata	SEGMENT
$cppxdata$??$make_unique@USubcriptionsInUse@Subscription@Domain@@AEBUUserCredentials@Persistence@TechnicalServices@@$0A@@std@@YA?AV?$unique_ptr@USubcriptionsInUse@Subscription@Domain@@U?$default_delete@USubcriptionsInUse@Subscription@Domain@@@std@@@0@AEBUUserCredentials@Persistence@TechnicalServices@@@Z DB 028H
	DD	imagerel $stateUnwindMap$??$make_unique@USubcriptionsInUse@Subscription@Domain@@AEBUUserCredentials@Persistence@TechnicalServices@@$0A@@std@@YA?AV?$unique_ptr@USubcriptionsInUse@Subscription@Domain@@U?$default_delete@USubcriptionsInUse@Subscription@Domain@@@std@@@0@AEBUUserCredentials@Persistence@TechnicalServices@@@Z
	DD	imagerel $ip2state$??$make_unique@USubcriptionsInUse@Subscription@Domain@@AEBUUserCredentials@Persistence@TechnicalServices@@$0A@@std@@YA?AV?$unique_ptr@USubcriptionsInUse@Subscription@Domain@@U?$default_delete@USubcriptionsInUse@Subscription@Domain@@@std@@@0@AEBUUserCredentials@Persistence@TechnicalServices@@@Z
xdata	ENDS
;	COMDAT xdata
xdata	SEGMENT
$unwind$??$make_unique@USubcriptionsInUse@Subscription@Domain@@AEBUUserCredentials@Persistence@TechnicalServices@@$0A@@std@@YA?AV?$unique_ptr@USubcriptionsInUse@Subscription@Domain@@U?$default_delete@USubcriptionsInUse@Subscription@Domain@@@std@@@0@AEBUUserCredentials@Persistence@TechnicalServices@@@Z DD 025052f11H
	DD	01132318H
	DD	0700c002bH
	DD	0500bH
	DD	imagerel __CxxFrameHandler4
	DD	imagerel $cppxdata$??$make_unique@USubcriptionsInUse@Subscription@Domain@@AEBUUserCredentials@Persistence@TechnicalServices@@$0A@@std@@YA?AV?$unique_ptr@USubcriptionsInUse@Subscription@Domain@@U?$default_delete@USubcriptionsInUse@Subscription@Domain@@@std@@@0@AEBUUserCredentials@Persistence@TechnicalServices@@@Z
xdata	ENDS
;	COMDAT xdata
xdata	SEGMENT
$unwind$??1SubscriptionHandler@Subscription@Domain@@UEAA@XZ DD 025052a01H
	DD	010e2313H
	DD	07007001dH
	DD	05006H
xdata	ENDS
;	COMDAT xdata
xdata	SEGMENT
$unwind$?dtor$0@?0??MaintainSubscription@SubscriptionHandler@Subscription@Domain@@SA?AV?$unique_ptr@VSubscriptionHandler@Subscription@Domain@@U?$default_delete@VSubscriptionHandler@Subscription@Domain@@@std@@@std@@AEBUUserCredentials@Persistence@TechnicalServices@@@Z@4HA DD 031001H
	DD	0700c4210H
	DD	0500bH
xdata	ENDS
;	COMDAT xdata
xdata	SEGMENT
$ip2state$?MaintainSubscription@SubscriptionHandler@Subscription@Domain@@SA?AV?$unique_ptr@VSubscriptionHandler@Subscription@Domain@@U?$default_delete@VSubscriptionHandler@Subscription@Domain@@@std@@@std@@AEBUUserCredentials@Persistence@TechnicalServices@@@Z DB 0aH
	DB	00H
	DB	00H
	DB	01H, 02H
	DB	02H
	DB	09eH
	DB	00H
	DB	'$'
	DB	02H
	DB	':'
	DB	00H
xdata	ENDS
;	COMDAT xdata
xdata	SEGMENT
$stateUnwindMap$?MaintainSubscription@SubscriptionHandler@Subscription@Domain@@SA?AV?$unique_ptr@VSubscriptionHandler@Subscription@Domain@@U?$default_delete@VSubscriptionHandler@Subscription@Domain@@@std@@@std@@AEBUUserCredentials@Persistence@TechnicalServices@@@Z DB 02H
	DB	0eH
	DD	imagerel ?dtor$0@?0??MaintainSubscription@SubscriptionHandler@Subscription@Domain@@SA?AV?$unique_ptr@VSubscriptionHandler@Subscription@Domain@@U?$default_delete@VSubscriptionHandler@Subscription@Domain@@@std@@@std@@AEBUUserCredentials@Persistence@TechnicalServices@@@Z@4HA
xdata	ENDS
;	COMDAT xdata
xdata	SEGMENT
$cppxdata$?MaintainSubscription@SubscriptionHandler@Subscription@Domain@@SA?AV?$unique_ptr@VSubscriptionHandler@Subscription@Domain@@U?$default_delete@VSubscriptionHandler@Subscription@Domain@@@std@@@std@@AEBUUserCredentials@Persistence@TechnicalServices@@@Z DB 028H
	DD	imagerel $stateUnwindMap$?MaintainSubscription@SubscriptionHandler@Subscription@Domain@@SA?AV?$unique_ptr@VSubscriptionHandler@Subscription@Domain@@U?$default_delete@VSubscriptionHandler@Subscription@Domain@@@std@@@std@@AEBUUserCredentials@Persistence@TechnicalServices@@@Z
	DD	imagerel $ip2state$?MaintainSubscription@SubscriptionHandler@Subscription@Domain@@SA?AV?$unique_ptr@VSubscriptionHandler@Subscription@Domain@@U?$default_delete@VSubscriptionHandler@Subscription@Domain@@@std@@@std@@AEBUUserCredentials@Persistence@TechnicalServices@@@Z
xdata	ENDS
;	COMDAT xdata
xdata	SEGMENT
$unwind$?MaintainSubscription@SubscriptionHandler@Subscription@Domain@@SA?AV?$unique_ptr@VSubscriptionHandler@Subscription@Domain@@U?$default_delete@VSubscriptionHandler@Subscription@Domain@@@std@@@std@@AEBUUserCredentials@Persistence@TechnicalServices@@@Z DD 025054019H
	DD	01132318H
	DD	0700c003fH
	DD	0500bH
	DD	imagerel __GSHandlerCheck_EH4
	DD	imagerel $cppxdata$?MaintainSubscription@SubscriptionHandler@Subscription@Domain@@SA?AV?$unique_ptr@VSubscriptionHandler@Subscription@Domain@@U?$default_delete@VSubscriptionHandler@Subscription@Domain@@@std@@@std@@AEBUUserCredentials@Persistence@TechnicalServices@@@Z
	DD	01e2H
xdata	ENDS
;	COMDAT CONST
CONST	SEGMENT
?MaintainSubscription@SubscriptionHandler@Subscription@Domain@@SA?AV?$unique_ptr@VSubscriptionHandler@Subscription@Domain@@U?$default_delete@VSubscriptionHandler@Subscription@Domain@@@std@@@std@@AEBUUserCredentials@Persistence@TechnicalServices@@@Z$rtcName$0 DB 053H ; Domain::Subscription::SubscriptionHandler::MaintainSubscription
	DB	075H
	DB	062H
	DB	073H
	DB	063H
	DB	072H
	DB	069H
	DB	070H
	DB	074H
	DB	069H
	DB	06fH
	DB	06eH
	DB	053H
	DB	074H
	DB	061H
	DB	074H
	DB	075H
	DB	073H
	DB	044H
	DB	042H
	DB	00H
	ORG $+11
?MaintainSubscription@SubscriptionHandler@Subscription@Domain@@SA?AV?$unique_ptr@VSubscriptionHandler@Subscription@Domain@@U?$default_delete@VSubscriptionHandler@Subscription@Domain@@@std@@@std@@AEBUUserCredentials@Persistence@TechnicalServices@@@Z$rtcVarDesc DD 050H ; Domain::Subscription::SubscriptionHandler::MaintainSubscription
	DD	080H
	DQ	FLAT:?MaintainSubscription@SubscriptionHandler@Subscription@Domain@@SA?AV?$unique_ptr@VSubscriptionHandler@Subscription@Domain@@U?$default_delete@VSubscriptionHandler@Subscription@Domain@@@std@@@std@@AEBUUserCredentials@Persistence@TechnicalServices@@@Z$rtcName$0
	ORG $+48
?MaintainSubscription@SubscriptionHandler@Subscription@Domain@@SA?AV?$unique_ptr@VSubscriptionHandler@Subscription@Domain@@U?$default_delete@VSubscriptionHandler@Subscription@Domain@@@std@@@std@@AEBUUserCredentials@Persistence@TechnicalServices@@@Z$rtcFrameData DD 01H ; Domain::Subscription::SubscriptionHandler::MaintainSubscription
	DD	00H
	DQ	FLAT:?MaintainSubscription@SubscriptionHandler@Subscription@Domain@@SA?AV?$unique_ptr@VSubscriptionHandler@Subscription@Domain@@U?$default_delete@VSubscriptionHandler@Subscription@Domain@@@std@@@std@@AEBUUserCredentials@Persistence@TechnicalServices@@@Z$rtcVarDesc
CONST	ENDS
;	COMDAT xdata
xdata	SEGMENT
$unwind$??1SubscriptionStatus@Persistence@TechnicalServices@@QEAA@XZ DD 025052a01H
	DD	010e2313H
	DD	07007001dH
	DD	05006H
xdata	ENDS
;	COMDAT xdata
xdata	SEGMENT
$unwind$??1?$_Compressed_pair@V?$allocator@D@std@@V?$_String_val@U?$_Simple_types@D@std@@@2@$00@std@@QEAA@XZ DD 025052a01H
	DD	010e2313H
	DD	07007001dH
	DD	05006H
xdata	ENDS
;	COMDAT xdata
xdata	SEGMENT
$unwind$?_Get_first@?$_Compressed_pair@V?$allocator@D@std@@V?$_String_val@U?$_Simple_types@D@std@@@2@$00@std@@QEAAAEAV?$allocator@D@2@XZ DD 025052a01H
	DD	010e2313H
	DD	07007001dH
	DD	05006H
xdata	ENDS
;	COMDAT xdata
xdata	SEGMENT
$unwind$?_Getal@?$basic_string@DU?$char_traits@D@std@@V?$allocator@D@2@@std@@AEAAAEAV?$allocator@D@2@XZ DD 025052a01H
	DD	010e2313H
	DD	07007001dH
	DD	05006H
xdata	ENDS
;	COMDAT xdata
xdata	SEGMENT
$ip2state$?_Tidy_deallocate@?$basic_string@DU?$char_traits@D@std@@V?$allocator@D@2@@std@@AEAAXXZ DB 02H
	DB	00H
	DB	00H
xdata	ENDS
;	COMDAT xdata
xdata	SEGMENT
$cppxdata$?_Tidy_deallocate@?$basic_string@DU?$char_traits@D@std@@V?$allocator@D@2@@std@@AEAAXXZ DB 060H
	DD	imagerel $ip2state$?_Tidy_deallocate@?$basic_string@DU?$char_traits@D@std@@V?$allocator@D@2@@std@@AEAAXXZ
xdata	ENDS
;	COMDAT xdata
xdata	SEGMENT
$unwind$?_Tidy_deallocate@?$basic_string@DU?$char_traits@D@std@@V?$allocator@D@2@@std@@AEAAXXZ DD 025052a19H
	DD	010e2313H
	DD	070070029H
	DD	05006H
	DD	imagerel __CxxFrameHandler4
	DD	imagerel $cppxdata$?_Tidy_deallocate@?$basic_string@DU?$char_traits@D@std@@V?$allocator@D@2@@std@@AEAAXXZ
xdata	ENDS
;	COMDAT xdata
xdata	SEGMENT
$unwind$??1?$basic_string@DU?$char_traits@D@std@@V?$allocator@D@2@@std@@QEAA@XZ DD 025053b19H
	DD	010e2313H
	DD	070070029H
	DD	05006H
	DD	imagerel __GSHandlerCheck
	DD	0138H
xdata	ENDS
;	COMDAT CONST
CONST	SEGMENT
??1?$basic_string@DU?$char_traits@D@std@@V?$allocator@D@2@@std@@QEAA@XZ$rtcName$0 DB 024H ; std::basic_string<char,std::char_traits<char>,std::allocator<char> >::~basic_string<char,std::char_traits<char>,std::allocator<char> >
	DB	053H
	DB	038H
	DB	00H
	ORG $+12
??1?$basic_string@DU?$char_traits@D@std@@V?$allocator@D@2@@std@@QEAA@XZ$rtcVarDesc DD 044H ; std::basic_string<char,std::char_traits<char>,std::allocator<char> >::~basic_string<char,std::char_traits<char>,std::allocator<char> >
	DD	01H
	DQ	FLAT:??1?$basic_string@DU?$char_traits@D@std@@V?$allocator@D@2@@std@@QEAA@XZ$rtcName$0
	ORG $+48
??1?$basic_string@DU?$char_traits@D@std@@V?$allocator@D@2@@std@@QEAA@XZ$rtcFrameData DD 01H ; std::basic_string<char,std::char_traits<char>,std::allocator<char> >::~basic_string<char,std::char_traits<char>,std::allocator<char> >
	DD	00H
	DQ	FLAT:??1?$basic_string@DU?$char_traits@D@std@@V?$allocator@D@2@@std@@QEAA@XZ$rtcVarDesc
CONST	ENDS
;	COMDAT xdata
xdata	SEGMENT
$unwind$??1?$_String_val@U?$_Simple_types@D@std@@@std@@QEAA@XZ DD 025052a01H
	DD	010e2313H
	DD	07007001dH
	DD	05006H
xdata	ENDS
;	COMDAT xdata
xdata	SEGMENT
$unwind$??1_Bxty@?$_String_val@U?$_Simple_types@D@std@@@std@@QEAA@XZ DD 025052a01H
	DD	010e2313H
	DD	07007001dH
	DD	05006H
xdata	ENDS
;	COMDAT xdata
xdata	SEGMENT
$unwind$?_Large_string_engaged@?$_String_val@U?$_Simple_types@D@std@@@std@@QEBA_NXZ DD 025052a01H
	DD	010e2313H
	DD	07007001fH
	DD	05006H
xdata	ENDS
;	COMDAT xdata
xdata	SEGMENT
$unwind$?assign@?$_Narrow_char_traits@DH@std@@SAXAEADAEBD@Z DD 025052f01H
	DD	01132318H
	DD	0700c001dH
	DD	0500bH
xdata	ENDS
;	COMDAT xdata
xdata	SEGMENT
$unwind$?deallocate@?$allocator@D@std@@QEAAXQEAD_K@Z DD 025053401H
	DD	0118231dH
	DD	07011001dH
	DD	05010H
xdata	ENDS
;	COMDAT xdata
xdata	SEGMENT
$unwind$?_Orphan_all@_Container_base12@std@@QEAAXXZ DD 025053b19H
	DD	010e2313H
	DD	070070025H
	DD	05006H
	DD	imagerel __GSHandlerCheck
	DD	0118H
xdata	ENDS
;	COMDAT CONST
CONST	SEGMENT
?_Orphan_all@_Container_base12@std@@QEAAXXZ$rtcName$0 DB 05fH ; std::_Container_base12::_Orphan_all
	DB	04cH
	DB	06fH
	DB	063H
	DB	06bH
	DB	00H
	ORG $+10
?_Orphan_all@_Container_base12@std@@QEAAXXZ$rtcVarDesc DD 024H ; std::_Container_base12::_Orphan_all
	DD	04H
	DQ	FLAT:?_Orphan_all@_Container_base12@std@@QEAAXXZ$rtcName$0
	ORG $+48
?_Orphan_all@_Container_base12@std@@QEAAXXZ$rtcFrameData DD 01H ; std::_Container_base12::_Orphan_all
	DD	00H
	DQ	FLAT:?_Orphan_all@_Container_base12@std@@QEAAXXZ$rtcVarDesc
CONST	ENDS
;	COMDAT xdata
xdata	SEGMENT
$unwind$?_Adjust_manually_vector_aligned@std@@YAXAEAPEAXAEA_K@Z DD 035052f01H
	DD	01133318H
	DD	0700c002fH
	DD	0500bH
xdata	ENDS
;	COMDAT xdata
xdata	SEGMENT
$unwind$?__empty_global_delete@@YAXPEAX_KW4align_val_t@std@@@Z DD 025053401H
	DD	0118231dH
	DD	07011001dH
	DD	05010H
xdata	ENDS
;	COMDAT xdata
xdata	SEGMENT
$unwind$?__empty_global_delete@@YAXPEAXW4align_val_t@std@@@Z DD 025052f01H
	DD	01132318H
	DD	0700c001dH
	DD	0500bH
xdata	ENDS
;	COMDAT xdata
xdata	SEGMENT
$unwind$?__empty_global_delete@@YAXPEAX_K@Z DD 025052f01H
	DD	01132318H
	DD	0700c001dH
	DD	0500bH
xdata	ENDS
;	COMDAT xdata
xdata	SEGMENT
$unwind$?__empty_global_delete@@YAXPEAX@Z DD 025052a01H
	DD	010e2313H
	DD	07007001dH
	DD	05006H
xdata	ENDS
; Function compile flags: /Odt
;	COMDAT __JustMyCode_Default
_TEXT	SEGMENT
__JustMyCode_Default PROC				; COMDAT
	ret	0
__JustMyCode_Default ENDP
_TEXT	ENDS
; Function compile flags: /Odtp /RTCsu /ZI
; File C:\Program Files (x86)\Microsoft Visual Studio\2019\Community\VC\Tools\MSVC\14.28.29333\include\type_traits
;	COMDAT ??$forward@AEAPEAUSubcriptionsInUse@Subscription@Domain@@@std@@YAAEAPEAUSubcriptionsInUse@Subscription@Domain@@AEAPEAU123@@Z
_TEXT	SEGMENT
_Arg$ = 224
??$forward@AEAPEAUSubcriptionsInUse@Subscription@Domain@@@std@@YAAEAPEAUSubcriptionsInUse@Subscription@Domain@@AEAPEAU123@@Z PROC ; std::forward<Domain::Subscription::SubcriptionsInUse * &>, COMDAT

; 1442 :     remove_reference_t<_Ty>& _Arg) noexcept { // forward an lvalue as either an lvalue or an rvalue

$LN3:
	mov	QWORD PTR [rsp+8], rcx
	push	rbp
	push	rdi
	sub	rsp, 232				; 000000e8H
	lea	rbp, QWORD PTR [rsp+32]
	mov	rdi, rsp
	mov	ecx, 58					; 0000003aH
	mov	eax, -858993460				; ccccccccH
	rep stosd
	mov	rcx, QWORD PTR [rsp+264]
	lea	rcx, OFFSET FLAT:__2D26A21E_type_traits
	call	__CheckForDebuggerJustMyCode

; 1443 :     return static_cast<_Ty&&>(_Arg);

	mov	rax, QWORD PTR _Arg$[rbp]

; 1444 : }

	lea	rsp, QWORD PTR [rbp+200]
	pop	rdi
	pop	rbp
	ret	0
??$forward@AEAPEAUSubcriptionsInUse@Subscription@Domain@@@std@@YAAEAPEAUSubcriptionsInUse@Subscription@Domain@@AEAPEAU123@@Z ENDP ; std::forward<Domain::Subscription::SubcriptionsInUse * &>
_TEXT	ENDS
; Function compile flags: /Odtp /RTCsu /ZI
; File C:\Program Files (x86)\Microsoft Visual Studio\2019\Community\VC\Tools\MSVC\14.28.29333\include\xmemory
;	COMDAT ?deallocate@?$_Default_allocator_traits@V?$allocator@U_Container_proxy@std@@@std@@@std@@SAXAEAV?$allocator@U_Container_proxy@std@@@2@QEAU_Container_proxy@2@_K@Z
_TEXT	SEGMENT
__formal$ = 224
_Ptr$ = 232
_Count$ = 240
?deallocate@?$_Default_allocator_traits@V?$allocator@U_Container_proxy@std@@@std@@@std@@SAXAEAV?$allocator@U_Container_proxy@std@@@2@QEAU_Container_proxy@2@_K@Z PROC ; std::_Default_allocator_traits<std::allocator<std::_Container_proxy> >::deallocate, COMDAT

; 694  :     static void deallocate(_Alloc&, const pointer _Ptr, const size_type _Count) {

$LN3:
	mov	QWORD PTR [rsp+24], r8
	mov	QWORD PTR [rsp+16], rdx
	mov	QWORD PTR [rsp+8], rcx
	push	rbp
	push	rdi
	sub	rsp, 232				; 000000e8H
	lea	rbp, QWORD PTR [rsp+32]
	mov	rdi, rsp
	mov	ecx, 58					; 0000003aH
	mov	eax, -858993460				; ccccccccH
	rep stosd
	mov	rcx, QWORD PTR [rsp+264]
	lea	rcx, OFFSET FLAT:__F1739482_xmemory
	call	__CheckForDebuggerJustMyCode

; 695  :         // no overflow check on the following multiply; we assume _Allocate did that check
; 696  :         _Deallocate<_New_alignof<value_type>>(_Ptr, sizeof(value_type) * _Count);

	imul	rax, QWORD PTR _Count$[rbp], 16
	mov	rdx, rax
	mov	rcx, QWORD PTR _Ptr$[rbp]
	call	??$_Deallocate@$0BA@$0A@@std@@YAXPEAX_K@Z ; std::_Deallocate<16,0>

; 697  :     }

	lea	rsp, QWORD PTR [rbp+200]
	pop	rdi
	pop	rbp
	ret	0
?deallocate@?$_Default_allocator_traits@V?$allocator@U_Container_proxy@std@@@std@@@std@@SAXAEAV?$allocator@U_Container_proxy@std@@@2@QEAU_Container_proxy@2@_K@Z ENDP ; std::_Default_allocator_traits<std::allocator<std::_Container_proxy> >::deallocate
_TEXT	ENDS
; Function compile flags: /Odtp /RTCsu /ZI
; File C:\Program Files (x86)\Microsoft Visual Studio\2019\Community\VC\Tools\MSVC\14.28.29333\include\type_traits
;	COMDAT ??$forward@PEAUSubcriptionsInUse@Subscription@Domain@@@std@@YA$$QEAPEAUSubcriptionsInUse@Subscription@Domain@@AEAPEAU123@@Z
_TEXT	SEGMENT
_Arg$ = 224
??$forward@PEAUSubcriptionsInUse@Subscription@Domain@@@std@@YA$$QEAPEAUSubcriptionsInUse@Subscription@Domain@@AEAPEAU123@@Z PROC ; std::forward<Domain::Subscription::SubcriptionsInUse *>, COMDAT

; 1442 :     remove_reference_t<_Ty>& _Arg) noexcept { // forward an lvalue as either an lvalue or an rvalue

$LN3:
	mov	QWORD PTR [rsp+8], rcx
	push	rbp
	push	rdi
	sub	rsp, 232				; 000000e8H
	lea	rbp, QWORD PTR [rsp+32]
	mov	rdi, rsp
	mov	ecx, 58					; 0000003aH
	mov	eax, -858993460				; ccccccccH
	rep stosd
	mov	rcx, QWORD PTR [rsp+264]
	lea	rcx, OFFSET FLAT:__2D26A21E_type_traits
	call	__CheckForDebuggerJustMyCode

; 1443 :     return static_cast<_Ty&&>(_Arg);

	mov	rax, QWORD PTR _Arg$[rbp]

; 1444 : }

	lea	rsp, QWORD PTR [rbp+200]
	pop	rdi
	pop	rbp
	ret	0
??$forward@PEAUSubcriptionsInUse@Subscription@Domain@@@std@@YA$$QEAPEAUSubcriptionsInUse@Subscription@Domain@@AEAPEAU123@@Z ENDP ; std::forward<Domain::Subscription::SubcriptionsInUse *>
_TEXT	ENDS
; Function compile flags: /Odtp /RTCsu /ZI
; File C:\Program Files (x86)\Microsoft Visual Studio\2019\Community\VC\Tools\MSVC\14.28.29333\include\xmemory
;	COMDAT ??$?0AEAPEAUSubcriptionsInUse@Subscription@Domain@@@?$_Compressed_pair@U?$default_delete@USubcriptionsInUse@Subscription@Domain@@@std@@PEAUSubcriptionsInUse@Subscription@Domain@@$00@std@@QEAA@U_Zero_then_variadic_args_t@1@AEAPEAUSubcriptionsInUse@Subscription@Domain@@@Z
_TEXT	SEGMENT
this$ = 224
__formal$ = 232
<_Val2_0>$ = 240
??$?0AEAPEAUSubcriptionsInUse@Subscription@Domain@@@?$_Compressed_pair@U?$default_delete@USubcriptionsInUse@Subscription@Domain@@@std@@PEAUSubcriptionsInUse@Subscription@Domain@@$00@std@@QEAA@U_Zero_then_variadic_args_t@1@AEAPEAUSubcriptionsInUse@Subscription@Domain@@@Z PROC ; std::_Compressed_pair<std::default_delete<Domain::Subscription::SubcriptionsInUse>,Domain::Subscription::SubcriptionsInUse *,1>::_Compressed_pair<std::default_delete<Domain::Subscription::SubcriptionsInUse>,Domain::Subscription::SubcriptionsInUse *,1><Domain::Subscription::SubcriptionsInUse * &>, COMDAT

; 1339 :         : _Ty1(), _Myval2(_STD forward<_Other2>(_Val2)...) {}

$LN3:
	mov	QWORD PTR [rsp+24], r8
	mov	BYTE PTR [rsp+16], dl
	mov	QWORD PTR [rsp+8], rcx
	push	rbp
	push	rdi
	sub	rsp, 232				; 000000e8H
	lea	rbp, QWORD PTR [rsp+32]
	mov	rdi, rsp
	mov	ecx, 58					; 0000003aH
	mov	eax, -858993460				; ccccccccH
	rep stosd
	mov	rcx, QWORD PTR [rsp+264]
	lea	rcx, OFFSET FLAT:__F1739482_xmemory
	call	__CheckForDebuggerJustMyCode
	mov	rcx, QWORD PTR <_Val2_0>$[rbp]
	call	??$forward@AEAPEAUSubcriptionsInUse@Subscription@Domain@@@std@@YAAEAPEAUSubcriptionsInUse@Subscription@Domain@@AEAPEAU123@@Z ; std::forward<Domain::Subscription::SubcriptionsInUse * &>
	mov	rcx, QWORD PTR this$[rbp]
	mov	rax, QWORD PTR [rax]
	mov	QWORD PTR [rcx], rax
	mov	rax, QWORD PTR this$[rbp]
	lea	rsp, QWORD PTR [rbp+200]
	pop	rdi
	pop	rbp
	ret	0
??$?0AEAPEAUSubcriptionsInUse@Subscription@Domain@@@?$_Compressed_pair@U?$default_delete@USubcriptionsInUse@Subscription@Domain@@@std@@PEAUSubcriptionsInUse@Subscription@Domain@@$00@std@@QEAA@U_Zero_then_variadic_args_t@1@AEAPEAUSubcriptionsInUse@Subscription@Domain@@@Z ENDP ; std::_Compressed_pair<std::default_delete<Domain::Subscription::SubcriptionsInUse>,Domain::Subscription::SubcriptionsInUse *,1>::_Compressed_pair<std::default_delete<Domain::Subscription::SubcriptionsInUse>,Domain::Subscription::SubcriptionsInUse *,1><Domain::Subscription::SubcriptionsInUse * &>
_TEXT	ENDS
; Function compile flags: /Odtp /RTCsu /ZI
; File C:\Program Files (x86)\Microsoft Visual Studio\2019\Community\VC\Tools\MSVC\14.28.29333\include\utility
;	COMDAT ??$exchange@PEAUSubcriptionsInUse@Subscription@Domain@@PEAU123@@std@@YAPEAUSubcriptionsInUse@Subscription@Domain@@AEAPEAU123@$$QEAPEAU123@@Z
_TEXT	SEGMENT
_Old_val$ = 8
_Val$ = 256
_New_val$ = 264
??$exchange@PEAUSubcriptionsInUse@Subscription@Domain@@PEAU123@@std@@YAPEAUSubcriptionsInUse@Subscription@Domain@@AEAPEAU123@$$QEAPEAU123@@Z PROC ; std::exchange<Domain::Subscription::SubcriptionsInUse *,Domain::Subscription::SubcriptionsInUse *>, COMDAT

; 596  :     conjunction_v<is_nothrow_move_constructible<_Ty>, is_nothrow_assignable<_Ty&, _Other>>) /* strengthened */ {

$LN3:
	mov	QWORD PTR [rsp+16], rdx
	mov	QWORD PTR [rsp+8], rcx
	push	rbp
	push	rdi
	sub	rsp, 264				; 00000108H
	lea	rbp, QWORD PTR [rsp+32]
	mov	rdi, rsp
	mov	ecx, 66					; 00000042H
	mov	eax, -858993460				; ccccccccH
	rep stosd
	mov	rcx, QWORD PTR [rsp+296]
	lea	rcx, OFFSET FLAT:__9BE6F741_utility
	call	__CheckForDebuggerJustMyCode

; 597  :     // assign _New_val to _Val, return previous _Val
; 598  :     _Ty _Old_val = static_cast<_Ty&&>(_Val);

	mov	rax, QWORD PTR _Val$[rbp]
	mov	rax, QWORD PTR [rax]
	mov	QWORD PTR _Old_val$[rbp], rax

; 599  :     _Val         = static_cast<_Other&&>(_New_val);

	mov	rax, QWORD PTR _Val$[rbp]
	mov	rcx, QWORD PTR _New_val$[rbp]
	mov	rcx, QWORD PTR [rcx]
	mov	QWORD PTR [rax], rcx

; 600  :     return _Old_val;

	mov	rax, QWORD PTR _Old_val$[rbp]

; 601  : }

	lea	rsp, QWORD PTR [rbp+232]
	pop	rdi
	pop	rbp
	ret	0
??$exchange@PEAUSubcriptionsInUse@Subscription@Domain@@PEAU123@@std@@YAPEAUSubcriptionsInUse@Subscription@Domain@@AEAPEAU123@$$QEAPEAU123@@Z ENDP ; std::exchange<Domain::Subscription::SubcriptionsInUse *,Domain::Subscription::SubcriptionsInUse *>
_TEXT	ENDS
; Function compile flags: /Odtp /RTCsu /ZI
; File C:\Program Files (x86)\Microsoft Visual Studio\2019\Community\VC\Tools\MSVC\14.28.29333\include\xmemory
;	COMDAT ??$_Deallocate_plain@V?$allocator@U_Container_proxy@std@@@std@@@std@@YAXAEAV?$allocator@U_Container_proxy@std@@@0@QEAU_Container_proxy@0@@Z
_TEXT	SEGMENT
_Al$ = 224
_Ptr$ = 232
??$_Deallocate_plain@V?$allocator@U_Container_proxy@std@@@std@@@std@@YAXAEAV?$allocator@U_Container_proxy@std@@@0@QEAU_Container_proxy@0@@Z PROC ; std::_Deallocate_plain<std::allocator<std::_Container_proxy> >, COMDAT

; 1003 : void _Deallocate_plain(_Alloc& _Al, typename _Alloc::value_type* const _Ptr) noexcept {

$LN3:
	mov	QWORD PTR [rsp+16], rdx
	mov	QWORD PTR [rsp+8], rcx
	push	rbp
	push	rdi
	sub	rsp, 232				; 000000e8H
	lea	rbp, QWORD PTR [rsp+32]
	mov	rdi, rsp
	mov	ecx, 58					; 0000003aH
	mov	eax, -858993460				; ccccccccH
	rep stosd
	mov	rcx, QWORD PTR [rsp+264]
	lea	rcx, OFFSET FLAT:__F1739482_xmemory
	call	__CheckForDebuggerJustMyCode

; 1004 :     // deallocate a plain pointer using an allocator
; 1005 :     using _Alloc_traits = allocator_traits<_Alloc>;
; 1006 :     if constexpr (is_same_v<_Alloc_ptr_t<_Alloc>, typename _Alloc::value_type*>) {
; 1007 :         _Alloc_traits::deallocate(_Al, _Ptr, 1);

	mov	r8d, 1
	mov	rdx, QWORD PTR _Ptr$[rbp]
	mov	rcx, QWORD PTR _Al$[rbp]
	call	?deallocate@?$_Default_allocator_traits@V?$allocator@U_Container_proxy@std@@@std@@@std@@SAXAEAV?$allocator@U_Container_proxy@std@@@2@QEAU_Container_proxy@2@_K@Z ; std::_Default_allocator_traits<std::allocator<std::_Container_proxy> >::deallocate
	npad	1

; 1008 :     } else {
; 1009 :         using _Ptr_traits = pointer_traits<_Alloc_ptr_t<_Alloc>>;
; 1010 :         _Alloc_traits::deallocate(_Al, _Ptr_traits::pointer_to(*_Ptr), 1);
; 1011 :     }
; 1012 : }

	lea	rsp, QWORD PTR [rbp+200]
	pop	rdi
	pop	rbp
	ret	0
??$_Deallocate_plain@V?$allocator@U_Container_proxy@std@@@std@@@std@@YAXAEAV?$allocator@U_Container_proxy@std@@@0@QEAU_Container_proxy@0@@Z ENDP ; std::_Deallocate_plain<std::allocator<std::_Container_proxy> >
_TEXT	ENDS
; Function compile flags: /Odtp /RTCsu /ZI
; File C:\Program Files (x86)\Microsoft Visual Studio\2019\Community\VC\Tools\MSVC\14.28.29333\include\xmemory
;	COMDAT ??$?0$$V@?$_Compressed_pair@U?$default_delete@VSubscriptionHandler@Subscription@Domain@@@std@@PEAVSubscriptionHandler@Subscription@Domain@@$00@std@@QEAA@U_Zero_then_variadic_args_t@1@@Z
_TEXT	SEGMENT
this$ = 224
__formal$ = 232
??$?0$$V@?$_Compressed_pair@U?$default_delete@VSubscriptionHandler@Subscription@Domain@@@std@@PEAVSubscriptionHandler@Subscription@Domain@@$00@std@@QEAA@U_Zero_then_variadic_args_t@1@@Z PROC ; std::_Compressed_pair<std::default_delete<Domain::Subscription::SubscriptionHandler>,Domain::Subscription::SubscriptionHandler *,1>::_Compressed_pair<std::default_delete<Domain::Subscription::SubscriptionHandler>,Domain::Subscription::SubscriptionHandler *,1><>, COMDAT

; 1339 :         : _Ty1(), _Myval2(_STD forward<_Other2>(_Val2)...) {}

$LN3:
	mov	BYTE PTR [rsp+16], dl
	mov	QWORD PTR [rsp+8], rcx
	push	rbp
	push	rdi
	sub	rsp, 232				; 000000e8H
	lea	rbp, QWORD PTR [rsp+32]
	mov	rdi, rsp
	mov	ecx, 58					; 0000003aH
	mov	eax, -858993460				; ccccccccH
	rep stosd
	mov	rcx, QWORD PTR [rsp+264]
	lea	rcx, OFFSET FLAT:__F1739482_xmemory
	call	__CheckForDebuggerJustMyCode
	mov	rax, QWORD PTR this$[rbp]
	mov	QWORD PTR [rax], 0
	mov	rax, QWORD PTR this$[rbp]
	lea	rsp, QWORD PTR [rbp+200]
	pop	rdi
	pop	rbp
	ret	0
??$?0$$V@?$_Compressed_pair@U?$default_delete@VSubscriptionHandler@Subscription@Domain@@@std@@PEAVSubscriptionHandler@Subscription@Domain@@$00@std@@QEAA@U_Zero_then_variadic_args_t@1@@Z ENDP ; std::_Compressed_pair<std::default_delete<Domain::Subscription::SubscriptionHandler>,Domain::Subscription::SubscriptionHandler *,1>::_Compressed_pair<std::default_delete<Domain::Subscription::SubscriptionHandler>,Domain::Subscription::SubscriptionHandler *,1><>
_TEXT	ENDS
; Function compile flags: /Odtp /RTCsu /ZI
; File C:\Program Files (x86)\Microsoft Visual Studio\2019\Community\VC\Tools\MSVC\14.28.29333\include\xmemory
;	COMDAT ??$?0U?$default_delete@USubcriptionsInUse@Subscription@Domain@@@std@@PEAUSubcriptionsInUse@Subscription@Domain@@@?$_Compressed_pair@U?$default_delete@VSubscriptionHandler@Subscription@Domain@@@std@@PEAVSubscriptionHandler@Subscription@Domain@@$00@std@@QEAA@U_One_then_variadic_args_t@1@$$QEAU?$default_delete@USubcriptionsInUse@Subscription@Domain@@@1@$$QEAPEAUSubcriptionsInUse@Subscription@Domain@@@Z
_TEXT	SEGMENT
this$ = 224
__formal$ = 232
_Val1$ = 240
<_Val2_0>$ = 248
??$?0U?$default_delete@USubcriptionsInUse@Subscription@Domain@@@std@@PEAUSubcriptionsInUse@Subscription@Domain@@@?$_Compressed_pair@U?$default_delete@VSubscriptionHandler@Subscription@Domain@@@std@@PEAVSubscriptionHandler@Subscription@Domain@@$00@std@@QEAA@U_One_then_variadic_args_t@1@$$QEAU?$default_delete@USubcriptionsInUse@Subscription@Domain@@@1@$$QEAPEAUSubcriptionsInUse@Subscription@Domain@@@Z PROC ; std::_Compressed_pair<std::default_delete<Domain::Subscription::SubscriptionHandler>,Domain::Subscription::SubscriptionHandler *,1>::_Compressed_pair<std::default_delete<Domain::Subscription::SubscriptionHandler>,Domain::Subscription::SubscriptionHandler *,1><std::default_delete<Domain::Subscription::SubcriptionsInUse>,Domain::Subscription::SubcriptionsInUse *>, COMDAT

; 1344 :         : _Ty1(_STD forward<_Other1>(_Val1)), _Myval2(_STD forward<_Other2>(_Val2)...) {}

$LN3:
	mov	QWORD PTR [rsp+32], r9
	mov	QWORD PTR [rsp+24], r8
	mov	BYTE PTR [rsp+16], dl
	mov	QWORD PTR [rsp+8], rcx
	push	rbp
	push	rdi
	sub	rsp, 232				; 000000e8H
	lea	rbp, QWORD PTR [rsp+32]
	mov	rdi, rsp
	mov	ecx, 58					; 0000003aH
	mov	eax, -858993460				; ccccccccH
	rep stosd
	mov	rcx, QWORD PTR [rsp+264]
	lea	rcx, OFFSET FLAT:__F1739482_xmemory
	call	__CheckForDebuggerJustMyCode
	mov	rcx, QWORD PTR _Val1$[rbp]
	call	??$forward@U?$default_delete@USubcriptionsInUse@Subscription@Domain@@@std@@@std@@YA$$QEAU?$default_delete@USubcriptionsInUse@Subscription@Domain@@@0@AEAU10@@Z ; std::forward<std::default_delete<Domain::Subscription::SubcriptionsInUse> >
	mov	rdx, rax
	mov	rcx, QWORD PTR this$[rbp]
	call	??$?0USubcriptionsInUse@Subscription@Domain@@$0A@@?$default_delete@VSubscriptionHandler@Subscription@Domain@@@std@@QEAA@AEBU?$default_delete@USubcriptionsInUse@Subscription@Domain@@@1@@Z ; std::default_delete<Domain::Subscription::SubscriptionHandler>::default_delete<Domain::Subscription::SubscriptionHandler><Domain::Subscription::SubcriptionsInUse,0>
	mov	rcx, QWORD PTR <_Val2_0>$[rbp]
	call	??$forward@PEAUSubcriptionsInUse@Subscription@Domain@@@std@@YA$$QEAPEAUSubcriptionsInUse@Subscription@Domain@@AEAPEAU123@@Z ; std::forward<Domain::Subscription::SubcriptionsInUse *>
	mov	rcx, QWORD PTR this$[rbp]
	mov	rax, QWORD PTR [rax]
	mov	QWORD PTR [rcx], rax
	mov	rax, QWORD PTR this$[rbp]
	lea	rsp, QWORD PTR [rbp+200]
	pop	rdi
	pop	rbp
	ret	0
??$?0U?$default_delete@USubcriptionsInUse@Subscription@Domain@@@std@@PEAUSubcriptionsInUse@Subscription@Domain@@@?$_Compressed_pair@U?$default_delete@VSubscriptionHandler@Subscription@Domain@@@std@@PEAVSubscriptionHandler@Subscription@Domain@@$00@std@@QEAA@U_One_then_variadic_args_t@1@$$QEAU?$default_delete@USubcriptionsInUse@Subscription@Domain@@@1@$$QEAPEAUSubcriptionsInUse@Subscription@Domain@@@Z ENDP ; std::_Compressed_pair<std::default_delete<Domain::Subscription::SubscriptionHandler>,Domain::Subscription::SubscriptionHandler *,1>::_Compressed_pair<std::default_delete<Domain::Subscription::SubscriptionHandler>,Domain::Subscription::SubscriptionHandler *,1><std::default_delete<Domain::Subscription::SubcriptionsInUse>,Domain::Subscription::SubcriptionsInUse *>
_TEXT	ENDS
; Function compile flags: /Odtp /RTCsu /ZI
; File C:\Program Files (x86)\Microsoft Visual Studio\2019\Community\VC\Tools\MSVC\14.28.29333\include\type_traits
;	COMDAT ??$forward@U?$default_delete@USubcriptionsInUse@Subscription@Domain@@@std@@@std@@YA$$QEAU?$default_delete@USubcriptionsInUse@Subscription@Domain@@@0@AEAU10@@Z
_TEXT	SEGMENT
_Arg$ = 224
??$forward@U?$default_delete@USubcriptionsInUse@Subscription@Domain@@@std@@@std@@YA$$QEAU?$default_delete@USubcriptionsInUse@Subscription@Domain@@@0@AEAU10@@Z PROC ; std::forward<std::default_delete<Domain::Subscription::SubcriptionsInUse> >, COMDAT

; 1442 :     remove_reference_t<_Ty>& _Arg) noexcept { // forward an lvalue as either an lvalue or an rvalue

$LN3:
	mov	QWORD PTR [rsp+8], rcx
	push	rbp
	push	rdi
	sub	rsp, 232				; 000000e8H
	lea	rbp, QWORD PTR [rsp+32]
	mov	rdi, rsp
	mov	ecx, 58					; 0000003aH
	mov	eax, -858993460				; ccccccccH
	rep stosd
	mov	rcx, QWORD PTR [rsp+264]
	lea	rcx, OFFSET FLAT:__2D26A21E_type_traits
	call	__CheckForDebuggerJustMyCode

; 1443 :     return static_cast<_Ty&&>(_Arg);

	mov	rax, QWORD PTR _Arg$[rbp]

; 1444 : }

	lea	rsp, QWORD PTR [rbp+200]
	pop	rdi
	pop	rbp
	ret	0
??$forward@U?$default_delete@USubcriptionsInUse@Subscription@Domain@@@std@@@std@@YA$$QEAU?$default_delete@USubcriptionsInUse@Subscription@Domain@@@0@AEAU10@@Z ENDP ; std::forward<std::default_delete<Domain::Subscription::SubcriptionsInUse> >
_TEXT	ENDS
; Function compile flags: /Odtp /RTCsu /ZI
; File C:\Program Files (x86)\Microsoft Visual Studio\2019\Community\VC\Tools\MSVC\14.28.29333\include\memory
;	COMDAT ??$?0U?$default_delete@USubcriptionsInUse@Subscription@Domain@@@std@@$0A@@?$unique_ptr@USubcriptionsInUse@Subscription@Domain@@U?$default_delete@USubcriptionsInUse@Subscription@Domain@@@std@@@std@@QEAA@PEAUSubcriptionsInUse@Subscription@Domain@@@Z
_TEXT	SEGMENT
$T1 = 196
tv70 = 216
this$ = 256
_Ptr$ = 264
??$?0U?$default_delete@USubcriptionsInUse@Subscription@Domain@@@std@@$0A@@?$unique_ptr@USubcriptionsInUse@Subscription@Domain@@U?$default_delete@USubcriptionsInUse@Subscription@Domain@@@std@@@std@@QEAA@PEAUSubcriptionsInUse@Subscription@Domain@@@Z PROC ; std::unique_ptr<Domain::Subscription::SubcriptionsInUse,std::default_delete<Domain::Subscription::SubcriptionsInUse> >::unique_ptr<Domain::Subscription::SubcriptionsInUse,std::default_delete<Domain::Subscription::SubcriptionsInUse> ><std::default_delete<Domain::Subscription::SubcriptionsInUse>,0>, COMDAT

; 2590 :     explicit unique_ptr(pointer _Ptr) noexcept : _Mypair(_Zero_then_variadic_args_t{}, _Ptr) {}

$LN3:
	mov	QWORD PTR [rsp+16], rdx
	mov	QWORD PTR [rsp+8], rcx
	push	rbp
	push	rdi
	sub	rsp, 264				; 00000108H
	lea	rbp, QWORD PTR [rsp+32]
	mov	rdi, rsp
	mov	ecx, 66					; 00000042H
	mov	eax, -858993460				; ccccccccH
	rep stosd
	mov	rcx, QWORD PTR [rsp+296]
	lea	rcx, OFFSET FLAT:__6A935154_memory
	call	__CheckForDebuggerJustMyCode
	mov	rax, QWORD PTR this$[rbp]
	mov	QWORD PTR tv70[rbp], rax
	lea	r8, QWORD PTR _Ptr$[rbp]
	movzx	edx, BYTE PTR $T1[rbp]
	mov	rcx, QWORD PTR tv70[rbp]
	call	??$?0AEAPEAUSubcriptionsInUse@Subscription@Domain@@@?$_Compressed_pair@U?$default_delete@USubcriptionsInUse@Subscription@Domain@@@std@@PEAUSubcriptionsInUse@Subscription@Domain@@$00@std@@QEAA@U_Zero_then_variadic_args_t@1@AEAPEAUSubcriptionsInUse@Subscription@Domain@@@Z ; std::_Compressed_pair<std::default_delete<Domain::Subscription::SubcriptionsInUse>,Domain::Subscription::SubcriptionsInUse *,1>::_Compressed_pair<std::default_delete<Domain::Subscription::SubcriptionsInUse>,Domain::Subscription::SubcriptionsInUse *,1><Domain::Subscription::SubcriptionsInUse * &>
	mov	rax, QWORD PTR this$[rbp]
	lea	rsp, QWORD PTR [rbp+232]
	pop	rdi
	pop	rbp
	ret	0
??$?0U?$default_delete@USubcriptionsInUse@Subscription@Domain@@@std@@$0A@@?$unique_ptr@USubcriptionsInUse@Subscription@Domain@@U?$default_delete@USubcriptionsInUse@Subscription@Domain@@@std@@@std@@QEAA@PEAUSubcriptionsInUse@Subscription@Domain@@@Z ENDP ; std::unique_ptr<Domain::Subscription::SubcriptionsInUse,std::default_delete<Domain::Subscription::SubcriptionsInUse> >::unique_ptr<Domain::Subscription::SubcriptionsInUse,std::default_delete<Domain::Subscription::SubcriptionsInUse> ><std::default_delete<Domain::Subscription::SubcriptionsInUse>,0>
_TEXT	ENDS
; Function compile flags: /Odtp /RTCsu /ZI
; File C:\Program Files (x86)\Microsoft Visual Studio\2019\Community\VC\Tools\MSVC\14.28.29333\include\type_traits
;	COMDAT ??$forward@AEBUUserCredentials@Persistence@TechnicalServices@@@std@@YAAEBUUserCredentials@Persistence@TechnicalServices@@AEBU123@@Z
_TEXT	SEGMENT
_Arg$ = 224
??$forward@AEBUUserCredentials@Persistence@TechnicalServices@@@std@@YAAEBUUserCredentials@Persistence@TechnicalServices@@AEBU123@@Z PROC ; std::forward<TechnicalServices::Persistence::UserCredentials const &>, COMDAT

; 1442 :     remove_reference_t<_Ty>& _Arg) noexcept { // forward an lvalue as either an lvalue or an rvalue

$LN3:
	mov	QWORD PTR [rsp+8], rcx
	push	rbp
	push	rdi
	sub	rsp, 232				; 000000e8H
	lea	rbp, QWORD PTR [rsp+32]
	mov	rdi, rsp
	mov	ecx, 58					; 0000003aH
	mov	eax, -858993460				; ccccccccH
	rep stosd
	mov	rcx, QWORD PTR [rsp+264]
	lea	rcx, OFFSET FLAT:__2D26A21E_type_traits
	call	__CheckForDebuggerJustMyCode

; 1443 :     return static_cast<_Ty&&>(_Arg);

	mov	rax, QWORD PTR _Arg$[rbp]

; 1444 : }

	lea	rsp, QWORD PTR [rbp+200]
	pop	rdi
	pop	rbp
	ret	0
??$forward@AEBUUserCredentials@Persistence@TechnicalServices@@@std@@YAAEBUUserCredentials@Persistence@TechnicalServices@@AEBU123@@Z ENDP ; std::forward<TechnicalServices::Persistence::UserCredentials const &>
_TEXT	ENDS
; Function compile flags: /Odtp /RTCsu /ZI
; File C:\Program Files (x86)\Microsoft Visual Studio\2019\Community\VC\Tools\MSVC\14.28.29333\include\xmemory
;	COMDAT ??$_Deallocate@$0BA@$0A@@std@@YAXPEAX_K@Z
_TEXT	SEGMENT
_Ptr$ = 224
_Bytes$ = 232
??$_Deallocate@$0BA@$0A@@std@@YAXPEAX_K@Z PROC		; std::_Deallocate<16,0>, COMDAT

; 213  : void _Deallocate(void* _Ptr, size_t _Bytes) noexcept {

$LN4:
	mov	QWORD PTR [rsp+16], rdx
	mov	QWORD PTR [rsp+8], rcx
	push	rbp
	push	rdi
	sub	rsp, 232				; 000000e8H
	lea	rbp, QWORD PTR [rsp+32]
	mov	rdi, rsp
	mov	ecx, 58					; 0000003aH
	mov	eax, -858993460				; ccccccccH
	rep stosd
	mov	rcx, QWORD PTR [rsp+264]
	lea	rcx, OFFSET FLAT:__F1739482_xmemory
	call	__CheckForDebuggerJustMyCode

; 214  :     // deallocate storage allocated by _Allocate when !_HAS_ALIGNED_NEW || _Align <= __STDCPP_DEFAULT_NEW_ALIGNMENT__
; 215  : #if defined(_M_IX86) || defined(_M_X64)
; 216  :     if (_Bytes >= _Big_allocation_threshold) { // boost the alignment of big allocations to help autovectorization

	cmp	QWORD PTR _Bytes$[rbp], 4096		; 00001000H
	jb	SHORT $LN2@Deallocate

; 217  :         _Adjust_manually_vector_aligned(_Ptr, _Bytes);

	lea	rdx, QWORD PTR _Bytes$[rbp]
	lea	rcx, QWORD PTR _Ptr$[rbp]
	call	?_Adjust_manually_vector_aligned@std@@YAXAEAPEAXAEA_K@Z ; std::_Adjust_manually_vector_aligned
$LN2@Deallocate:

; 218  :     }
; 219  : #endif // defined(_M_IX86) || defined(_M_X64)
; 220  : 
; 221  :     ::operator delete(_Ptr, _Bytes);

	mov	rdx, QWORD PTR _Bytes$[rbp]
	mov	rcx, QWORD PTR _Ptr$[rbp]
	call	??3@YAXPEAX_K@Z				; operator delete
	npad	1

; 222  : }

	lea	rsp, QWORD PTR [rbp+200]
	pop	rdi
	pop	rbp
	ret	0
??$_Deallocate@$0BA@$0A@@std@@YAXPEAX_K@Z ENDP		; std::_Deallocate<16,0>
_TEXT	ENDS
; Function compile flags: /Odtp /RTCsu /ZI
; File C:\Program Files (x86)\Microsoft Visual Studio\2019\Community\VC\Tools\MSVC\14.28.29333\include\xmemory
;	COMDAT ??$_Destroy_in_place@PEAD@std@@YAXAEAPEAD@Z
_TEXT	SEGMENT
_Obj$ = 224
??$_Destroy_in_place@PEAD@std@@YAXAEAPEAD@Z PROC	; std::_Destroy_in_place<char *>, COMDAT

; 270  : /* _CONSTEXPR20_DYNALLOC */ void _Destroy_in_place(_Ty& _Obj) noexcept {

$LN3:
	mov	QWORD PTR [rsp+8], rcx
	push	rbp
	push	rdi
	sub	rsp, 232				; 000000e8H
	lea	rbp, QWORD PTR [rsp+32]
	mov	rdi, rsp
	mov	ecx, 58					; 0000003aH
	mov	eax, -858993460				; ccccccccH
	rep stosd
	mov	rcx, QWORD PTR [rsp+264]
	lea	rcx, OFFSET FLAT:__F1739482_xmemory
	call	__CheckForDebuggerJustMyCode

; 271  : #if _HAS_IF_CONSTEXPR
; 272  :     if constexpr (is_array_v<_Ty>) {
; 273  :         _Destroy_range(_Obj, _Obj + extent_v<_Ty>);
; 274  :     } else
; 275  : #endif // _HAS_IF_CONSTEXPR
; 276  :     {
; 277  :         _Obj.~_Ty();
; 278  :     }
; 279  : }

	lea	rsp, QWORD PTR [rbp+200]
	pop	rdi
	pop	rbp
	ret	0
??$_Destroy_in_place@PEAD@std@@YAXAEAPEAD@Z ENDP	; std::_Destroy_in_place<char *>
_TEXT	ENDS
; Function compile flags: /Odtp /RTCsu /ZI
; File C:\Program Files (x86)\Microsoft Visual Studio\2019\Community\VC\Tools\MSVC\14.28.29333\include\xmemory
;	COMDAT ??$?0D@?$allocator@U_Container_proxy@std@@@std@@QEAA@AEBV?$allocator@D@1@@Z
_TEXT	SEGMENT
this$ = 224
__formal$ = 232
??$?0D@?$allocator@U_Container_proxy@std@@@std@@QEAA@AEBV?$allocator@D@1@@Z PROC ; std::allocator<std::_Container_proxy>::allocator<std::_Container_proxy><char>, COMDAT

; 806  :     constexpr allocator(const allocator<_Other>&) noexcept {}

$LN3:
	mov	QWORD PTR [rsp+16], rdx
	mov	QWORD PTR [rsp+8], rcx
	push	rbp
	push	rdi
	sub	rsp, 232				; 000000e8H
	lea	rbp, QWORD PTR [rsp+32]
	mov	rdi, rsp
	mov	ecx, 58					; 0000003aH
	mov	eax, -858993460				; ccccccccH
	rep stosd
	mov	rcx, QWORD PTR [rsp+264]
	lea	rcx, OFFSET FLAT:__F1739482_xmemory
	call	__CheckForDebuggerJustMyCode
	mov	rax, QWORD PTR this$[rbp]
	lea	rsp, QWORD PTR [rbp+200]
	pop	rdi
	pop	rbp
	ret	0
??$?0D@?$allocator@U_Container_proxy@std@@@std@@QEAA@AEBV?$allocator@D@1@@Z ENDP ; std::allocator<std::_Container_proxy>::allocator<std::_Container_proxy><char>
_TEXT	ENDS
; Function compile flags: /Odtp /RTCsu /ZI
; File C:\Program Files (x86)\Microsoft Visual Studio\2019\Community\VC\Tools\MSVC\14.28.29333\include\xmemory
;	COMDAT ??$_Delete_plain_internal@V?$allocator@U_Container_proxy@std@@@std@@@std@@YAXAEAV?$allocator@U_Container_proxy@std@@@0@QEAU_Container_proxy@0@@Z
_TEXT	SEGMENT
_Al$ = 224
_Ptr$ = 232
??$_Delete_plain_internal@V?$allocator@U_Container_proxy@std@@@std@@@std@@YAXAEAV?$allocator@U_Container_proxy@std@@@0@QEAU_Container_proxy@0@@Z PROC ; std::_Delete_plain_internal<std::allocator<std::_Container_proxy> >, COMDAT

; 1031 : void _Delete_plain_internal(_Alloc& _Al, typename _Alloc::value_type* const _Ptr) noexcept {

$LN3:
	mov	QWORD PTR [rsp+16], rdx
	mov	QWORD PTR [rsp+8], rcx
	push	rbp
	push	rdi
	sub	rsp, 232				; 000000e8H
	lea	rbp, QWORD PTR [rsp+32]
	mov	rdi, rsp
	mov	ecx, 58					; 0000003aH
	mov	eax, -858993460				; ccccccccH
	rep stosd
	mov	rcx, QWORD PTR [rsp+264]
	lea	rcx, OFFSET FLAT:__F1739482_xmemory
	call	__CheckForDebuggerJustMyCode

; 1032 :     // destroy *_Ptr in place, then deallocate _Ptr using _Al; used for internal container types the user didn't name
; 1033 :     using _Ty = typename _Alloc::value_type;
; 1034 :     _Ptr->~_Ty();
; 1035 :     _Deallocate_plain(_Al, _Ptr);

	mov	rdx, QWORD PTR _Ptr$[rbp]
	mov	rcx, QWORD PTR _Al$[rbp]
	call	??$_Deallocate_plain@V?$allocator@U_Container_proxy@std@@@std@@@std@@YAXAEAV?$allocator@U_Container_proxy@std@@@0@QEAU_Container_proxy@0@@Z ; std::_Deallocate_plain<std::allocator<std::_Container_proxy> >

; 1036 : }

	lea	rsp, QWORD PTR [rbp+200]
	pop	rdi
	pop	rbp
	ret	0
??$_Delete_plain_internal@V?$allocator@U_Container_proxy@std@@@std@@@std@@YAXAEAV?$allocator@U_Container_proxy@std@@@0@QEAU_Container_proxy@0@@Z ENDP ; std::_Delete_plain_internal<std::allocator<std::_Container_proxy> >
_TEXT	ENDS
; Function compile flags: /Odtp /RTCsu /ZI
; File C:\Program Files (x86)\Microsoft Visual Studio\2019\Community\VC\Tools\MSVC\14.28.29333\include\memory
;	COMDAT ??$?0U?$default_delete@VSubscriptionHandler@Subscription@Domain@@@std@@$0A@@?$unique_ptr@VSubscriptionHandler@Subscription@Domain@@U?$default_delete@VSubscriptionHandler@Subscription@Domain@@@std@@@std@@QEAA@$$T@Z
_TEXT	SEGMENT
$T1 = 196
tv69 = 216
this$ = 256
__formal$ = 264
??$?0U?$default_delete@VSubscriptionHandler@Subscription@Domain@@@std@@$0A@@?$unique_ptr@VSubscriptionHandler@Subscription@Domain@@U?$default_delete@VSubscriptionHandler@Subscription@Domain@@@std@@@std@@QEAA@$$T@Z PROC ; std::unique_ptr<Domain::Subscription::SubscriptionHandler,std::default_delete<Domain::Subscription::SubscriptionHandler> >::unique_ptr<Domain::Subscription::SubscriptionHandler,std::default_delete<Domain::Subscription::SubscriptionHandler> ><std::default_delete<Domain::Subscription::SubscriptionHandler>,0>, COMDAT

; 2582 :     constexpr unique_ptr(nullptr_t) noexcept : _Mypair(_Zero_then_variadic_args_t{}) {}

$LN3:
	mov	QWORD PTR [rsp+16], rdx
	mov	QWORD PTR [rsp+8], rcx
	push	rbp
	push	rdi
	sub	rsp, 264				; 00000108H
	lea	rbp, QWORD PTR [rsp+32]
	mov	rdi, rsp
	mov	ecx, 66					; 00000042H
	mov	eax, -858993460				; ccccccccH
	rep stosd
	mov	rcx, QWORD PTR [rsp+296]
	lea	rcx, OFFSET FLAT:__6A935154_memory
	call	__CheckForDebuggerJustMyCode
	mov	rax, QWORD PTR this$[rbp]
	mov	QWORD PTR tv69[rbp], rax
	movzx	edx, BYTE PTR $T1[rbp]
	mov	rcx, QWORD PTR tv69[rbp]
	call	??$?0$$V@?$_Compressed_pair@U?$default_delete@VSubscriptionHandler@Subscription@Domain@@@std@@PEAVSubscriptionHandler@Subscription@Domain@@$00@std@@QEAA@U_Zero_then_variadic_args_t@1@@Z ; std::_Compressed_pair<std::default_delete<Domain::Subscription::SubscriptionHandler>,Domain::Subscription::SubscriptionHandler *,1>::_Compressed_pair<std::default_delete<Domain::Subscription::SubscriptionHandler>,Domain::Subscription::SubscriptionHandler *,1><>
	mov	rax, QWORD PTR this$[rbp]
	lea	rsp, QWORD PTR [rbp+232]
	pop	rdi
	pop	rbp
	ret	0
??$?0U?$default_delete@VSubscriptionHandler@Subscription@Domain@@@std@@$0A@@?$unique_ptr@VSubscriptionHandler@Subscription@Domain@@U?$default_delete@VSubscriptionHandler@Subscription@Domain@@@std@@@std@@QEAA@$$T@Z ENDP ; std::unique_ptr<Domain::Subscription::SubscriptionHandler,std::default_delete<Domain::Subscription::SubscriptionHandler> >::unique_ptr<Domain::Subscription::SubscriptionHandler,std::default_delete<Domain::Subscription::SubscriptionHandler> ><std::default_delete<Domain::Subscription::SubscriptionHandler>,0>
_TEXT	ENDS
; Function compile flags: /Odtp /RTCsu /ZI
; File C:\Program Files (x86)\Microsoft Visual Studio\2019\Community\VC\Tools\MSVC\14.28.29333\include\memory
;	COMDAT ??$?0USubcriptionsInUse@Subscription@Domain@@U?$default_delete@USubcriptionsInUse@Subscription@Domain@@@std@@$0A@@?$unique_ptr@VSubscriptionHandler@Subscription@Domain@@U?$default_delete@VSubscriptionHandler@Subscription@Domain@@@std@@@std@@QEAA@$$QEAV?$unique_ptr@USubcriptionsInUse@Subscription@Domain@@U?$default_delete@USubcriptionsInUse@Subscription@Domain@@@std@@@1@@Z
_TEXT	SEGMENT
$T1 = 200
$T2 = 228
$T3 = 260
tv80 = 280
tv78 = 288
this$ = 336
_Right$ = 344
??$?0USubcriptionsInUse@Subscription@Domain@@U?$default_delete@USubcriptionsInUse@Subscription@Domain@@@std@@$0A@@?$unique_ptr@VSubscriptionHandler@Subscription@Domain@@U?$default_delete@VSubscriptionHandler@Subscription@Domain@@@std@@@std@@QEAA@$$QEAV?$unique_ptr@USubcriptionsInUse@Subscription@Domain@@U?$default_delete@USubcriptionsInUse@Subscription@Domain@@@std@@@1@@Z PROC ; std::unique_ptr<Domain::Subscription::SubscriptionHandler,std::default_delete<Domain::Subscription::SubscriptionHandler> >::unique_ptr<Domain::Subscription::SubscriptionHandler,std::default_delete<Domain::Subscription::SubscriptionHandler> ><Domain::Subscription::SubcriptionsInUse,std::default_delete<Domain::Subscription::SubcriptionsInUse>,0>, COMDAT

; 2613 :         : _Mypair(_One_then_variadic_args_t{}, _STD forward<_Dx2>(_Right.get_deleter()), _Right.release()) {}

$LN3:
	mov	QWORD PTR [rsp+16], rdx
	mov	QWORD PTR [rsp+8], rcx
	push	rbp
	push	rdi
	sub	rsp, 344				; 00000158H
	lea	rbp, QWORD PTR [rsp+32]
	mov	rdi, rsp
	mov	ecx, 86					; 00000056H
	mov	eax, -858993460				; ccccccccH
	rep stosd
	mov	rcx, QWORD PTR [rsp+376]
	lea	rcx, OFFSET FLAT:__6A935154_memory
	call	__CheckForDebuggerJustMyCode
	mov	rax, QWORD PTR this$[rbp]
	mov	QWORD PTR tv80[rbp], rax
	mov	rcx, QWORD PTR _Right$[rbp]
	call	?release@?$unique_ptr@USubcriptionsInUse@Subscription@Domain@@U?$default_delete@USubcriptionsInUse@Subscription@Domain@@@std@@@std@@QEAAPEAUSubcriptionsInUse@Subscription@Domain@@XZ ; std::unique_ptr<Domain::Subscription::SubcriptionsInUse,std::default_delete<Domain::Subscription::SubcriptionsInUse> >::release
	mov	QWORD PTR $T1[rbp], rax
	mov	rcx, QWORD PTR _Right$[rbp]
	call	?get_deleter@?$unique_ptr@USubcriptionsInUse@Subscription@Domain@@U?$default_delete@USubcriptionsInUse@Subscription@Domain@@@std@@@std@@QEAAAEAU?$default_delete@USubcriptionsInUse@Subscription@Domain@@@2@XZ ; std::unique_ptr<Domain::Subscription::SubcriptionsInUse,std::default_delete<Domain::Subscription::SubcriptionsInUse> >::get_deleter
	mov	rcx, rax
	call	??$forward@U?$default_delete@USubcriptionsInUse@Subscription@Domain@@@std@@@std@@YA$$QEAU?$default_delete@USubcriptionsInUse@Subscription@Domain@@@0@AEAU10@@Z ; std::forward<std::default_delete<Domain::Subscription::SubcriptionsInUse> >
	mov	QWORD PTR tv78[rbp], rax
	movzx	eax, BYTE PTR $T2[rbp]
	mov	BYTE PTR $T3[rbp], al
	lea	r9, QWORD PTR $T1[rbp]
	mov	r8, QWORD PTR tv78[rbp]
	movzx	edx, BYTE PTR $T3[rbp]
	mov	rcx, QWORD PTR tv80[rbp]
	call	??$?0U?$default_delete@USubcriptionsInUse@Subscription@Domain@@@std@@PEAUSubcriptionsInUse@Subscription@Domain@@@?$_Compressed_pair@U?$default_delete@VSubscriptionHandler@Subscription@Domain@@@std@@PEAVSubscriptionHandler@Subscription@Domain@@$00@std@@QEAA@U_One_then_variadic_args_t@1@$$QEAU?$default_delete@USubcriptionsInUse@Subscription@Domain@@@1@$$QEAPEAUSubcriptionsInUse@Subscription@Domain@@@Z ; std::_Compressed_pair<std::default_delete<Domain::Subscription::SubscriptionHandler>,Domain::Subscription::SubscriptionHandler *,1>::_Compressed_pair<std::default_delete<Domain::Subscription::SubscriptionHandler>,Domain::Subscription::SubscriptionHandler *,1><std::default_delete<Domain::Subscription::SubcriptionsInUse>,Domain::Subscription::SubcriptionsInUse *>
	mov	rax, QWORD PTR this$[rbp]
	lea	rsp, QWORD PTR [rbp+312]
	pop	rdi
	pop	rbp
	ret	0
??$?0USubcriptionsInUse@Subscription@Domain@@U?$default_delete@USubcriptionsInUse@Subscription@Domain@@@std@@$0A@@?$unique_ptr@VSubscriptionHandler@Subscription@Domain@@U?$default_delete@VSubscriptionHandler@Subscription@Domain@@@std@@@std@@QEAA@$$QEAV?$unique_ptr@USubcriptionsInUse@Subscription@Domain@@U?$default_delete@USubcriptionsInUse@Subscription@Domain@@@std@@@1@@Z ENDP ; std::unique_ptr<Domain::Subscription::SubscriptionHandler,std::default_delete<Domain::Subscription::SubscriptionHandler> >::unique_ptr<Domain::Subscription::SubscriptionHandler,std::default_delete<Domain::Subscription::SubscriptionHandler> ><Domain::Subscription::SubcriptionsInUse,std::default_delete<Domain::Subscription::SubcriptionsInUse>,0>
_TEXT	ENDS
; Function compile flags: /Odtp /RTCsu /ZI
; File C:\Program Files (x86)\Microsoft Visual Studio\2019\Community\VC\Tools\MSVC\14.28.29333\include\memory
;	COMDAT ??$?0USubcriptionsInUse@Subscription@Domain@@$0A@@?$default_delete@VSubscriptionHandler@Subscription@Domain@@@std@@QEAA@AEBU?$default_delete@USubcriptionsInUse@Subscription@Domain@@@1@@Z
_TEXT	SEGMENT
this$ = 224
__formal$ = 232
??$?0USubcriptionsInUse@Subscription@Domain@@$0A@@?$default_delete@VSubscriptionHandler@Subscription@Domain@@@std@@QEAA@AEBU?$default_delete@USubcriptionsInUse@Subscription@Domain@@@1@@Z PROC ; std::default_delete<Domain::Subscription::SubscriptionHandler>::default_delete<Domain::Subscription::SubscriptionHandler><Domain::Subscription::SubcriptionsInUse,0>, COMDAT

; 2533 :     default_delete(const default_delete<_Ty2>&) noexcept {}

$LN3:
	mov	QWORD PTR [rsp+16], rdx
	mov	QWORD PTR [rsp+8], rcx
	push	rbp
	push	rdi
	sub	rsp, 232				; 000000e8H
	lea	rbp, QWORD PTR [rsp+32]
	mov	rdi, rsp
	mov	ecx, 58					; 0000003aH
	mov	eax, -858993460				; ccccccccH
	rep stosd
	mov	rcx, QWORD PTR [rsp+264]
	lea	rcx, OFFSET FLAT:__6A935154_memory
	call	__CheckForDebuggerJustMyCode
	mov	rax, QWORD PTR this$[rbp]
	lea	rsp, QWORD PTR [rbp+200]
	pop	rdi
	pop	rbp
	ret	0
??$?0USubcriptionsInUse@Subscription@Domain@@$0A@@?$default_delete@VSubscriptionHandler@Subscription@Domain@@@std@@QEAA@AEBU?$default_delete@USubcriptionsInUse@Subscription@Domain@@@1@@Z ENDP ; std::default_delete<Domain::Subscription::SubscriptionHandler>::default_delete<Domain::Subscription::SubscriptionHandler><Domain::Subscription::SubcriptionsInUse,0>
_TEXT	ENDS
; Function compile flags: /Odtp /RTCsu /ZI
; File C:\Program Files (x86)\Microsoft Visual Studio\2019\Community\VC\Tools\MSVC\14.28.29333\include\xmemory
;	COMDAT ?_Get_first@?$_Compressed_pair@U?$default_delete@USubcriptionsInUse@Subscription@Domain@@@std@@PEAUSubcriptionsInUse@Subscription@Domain@@$00@std@@QEAAAEAU?$default_delete@USubcriptionsInUse@Subscription@Domain@@@2@XZ
_TEXT	SEGMENT
this$ = 224
?_Get_first@?$_Compressed_pair@U?$default_delete@USubcriptionsInUse@Subscription@Domain@@@std@@PEAUSubcriptionsInUse@Subscription@Domain@@$00@std@@QEAAAEAU?$default_delete@USubcriptionsInUse@Subscription@Domain@@@2@XZ PROC ; std::_Compressed_pair<std::default_delete<Domain::Subscription::SubcriptionsInUse>,Domain::Subscription::SubcriptionsInUse *,1>::_Get_first, COMDAT

; 1346 :     constexpr _Ty1& _Get_first() noexcept {

$LN3:
	mov	QWORD PTR [rsp+8], rcx
	push	rbp
	push	rdi
	sub	rsp, 232				; 000000e8H
	lea	rbp, QWORD PTR [rsp+32]
	mov	rdi, rsp
	mov	ecx, 58					; 0000003aH
	mov	eax, -858993460				; ccccccccH
	rep stosd
	mov	rcx, QWORD PTR [rsp+264]
	lea	rcx, OFFSET FLAT:__F1739482_xmemory
	call	__CheckForDebuggerJustMyCode

; 1347 :         return *this;

	mov	rax, QWORD PTR this$[rbp]

; 1348 :     }

	lea	rsp, QWORD PTR [rbp+200]
	pop	rdi
	pop	rbp
	ret	0
?_Get_first@?$_Compressed_pair@U?$default_delete@USubcriptionsInUse@Subscription@Domain@@@std@@PEAUSubcriptionsInUse@Subscription@Domain@@$00@std@@QEAAAEAU?$default_delete@USubcriptionsInUse@Subscription@Domain@@@2@XZ ENDP ; std::_Compressed_pair<std::default_delete<Domain::Subscription::SubcriptionsInUse>,Domain::Subscription::SubcriptionsInUse *,1>::_Get_first
_TEXT	ENDS
; Function compile flags: /Odtp /RTCsu /ZI
; File C:\Program Files (x86)\Microsoft Visual Studio\2019\Community\VC\Tools\MSVC\14.28.29333\include\memory
;	COMDAT ?release@?$unique_ptr@USubcriptionsInUse@Subscription@Domain@@U?$default_delete@USubcriptionsInUse@Subscription@Domain@@@std@@@std@@QEAAPEAUSubcriptionsInUse@Subscription@Domain@@XZ
_TEXT	SEGMENT
$T1 = 200
this$ = 256
?release@?$unique_ptr@USubcriptionsInUse@Subscription@Domain@@U?$default_delete@USubcriptionsInUse@Subscription@Domain@@@std@@@std@@QEAAPEAUSubcriptionsInUse@Subscription@Domain@@XZ PROC ; std::unique_ptr<Domain::Subscription::SubcriptionsInUse,std::default_delete<Domain::Subscription::SubcriptionsInUse> >::release, COMDAT

; 2675 :     pointer release() noexcept {

$LN3:
	mov	QWORD PTR [rsp+8], rcx
	push	rbp
	push	rdi
	sub	rsp, 264				; 00000108H
	lea	rbp, QWORD PTR [rsp+32]
	mov	rdi, rsp
	mov	ecx, 66					; 00000042H
	mov	eax, -858993460				; ccccccccH
	rep stosd
	mov	rcx, QWORD PTR [rsp+296]
	lea	rcx, OFFSET FLAT:__6A935154_memory
	call	__CheckForDebuggerJustMyCode

; 2676 :         return _STD exchange(_Mypair._Myval2, pointer());

	mov	QWORD PTR $T1[rbp], 0
	mov	rax, QWORD PTR this$[rbp]
	lea	rdx, QWORD PTR $T1[rbp]
	mov	rcx, rax
	call	??$exchange@PEAUSubcriptionsInUse@Subscription@Domain@@PEAU123@@std@@YAPEAUSubcriptionsInUse@Subscription@Domain@@AEAPEAU123@$$QEAPEAU123@@Z ; std::exchange<Domain::Subscription::SubcriptionsInUse *,Domain::Subscription::SubcriptionsInUse *>

; 2677 :     }

	lea	rsp, QWORD PTR [rbp+232]
	pop	rdi
	pop	rbp
	ret	0
?release@?$unique_ptr@USubcriptionsInUse@Subscription@Domain@@U?$default_delete@USubcriptionsInUse@Subscription@Domain@@@std@@@std@@QEAAPEAUSubcriptionsInUse@Subscription@Domain@@XZ ENDP ; std::unique_ptr<Domain::Subscription::SubcriptionsInUse,std::default_delete<Domain::Subscription::SubcriptionsInUse> >::release
_TEXT	ENDS
; Function compile flags: /Odtp /RTCsu /ZI
; File C:\Program Files (x86)\Microsoft Visual Studio\2019\Community\VC\Tools\MSVC\14.28.29333\include\memory
;	COMDAT ?get_deleter@?$unique_ptr@USubcriptionsInUse@Subscription@Domain@@U?$default_delete@USubcriptionsInUse@Subscription@Domain@@@std@@@std@@QEAAAEAU?$default_delete@USubcriptionsInUse@Subscription@Domain@@@2@XZ
_TEXT	SEGMENT
this$ = 224
?get_deleter@?$unique_ptr@USubcriptionsInUse@Subscription@Domain@@U?$default_delete@USubcriptionsInUse@Subscription@Domain@@@std@@@std@@QEAAAEAU?$default_delete@USubcriptionsInUse@Subscription@Domain@@@2@XZ PROC ; std::unique_ptr<Domain::Subscription::SubcriptionsInUse,std::default_delete<Domain::Subscription::SubcriptionsInUse> >::get_deleter, COMDAT

; 2651 :     _NODISCARD _Dx& get_deleter() noexcept {

$LN3:
	mov	QWORD PTR [rsp+8], rcx
	push	rbp
	push	rdi
	sub	rsp, 232				; 000000e8H
	lea	rbp, QWORD PTR [rsp+32]
	mov	rdi, rsp
	mov	ecx, 58					; 0000003aH
	mov	eax, -858993460				; ccccccccH
	rep stosd
	mov	rcx, QWORD PTR [rsp+264]
	lea	rcx, OFFSET FLAT:__6A935154_memory
	call	__CheckForDebuggerJustMyCode

; 2652 :         return _Mypair._Get_first();

	mov	rax, QWORD PTR this$[rbp]
	mov	rcx, rax
	call	?_Get_first@?$_Compressed_pair@U?$default_delete@USubcriptionsInUse@Subscription@Domain@@@std@@PEAUSubcriptionsInUse@Subscription@Domain@@$00@std@@QEAAAEAU?$default_delete@USubcriptionsInUse@Subscription@Domain@@@2@XZ ; std::_Compressed_pair<std::default_delete<Domain::Subscription::SubcriptionsInUse>,Domain::Subscription::SubcriptionsInUse *,1>::_Get_first

; 2653 :     }

	lea	rsp, QWORD PTR [rbp+200]
	pop	rdi
	pop	rbp
	ret	0
?get_deleter@?$unique_ptr@USubcriptionsInUse@Subscription@Domain@@U?$default_delete@USubcriptionsInUse@Subscription@Domain@@@std@@@std@@QEAAAEAU?$default_delete@USubcriptionsInUse@Subscription@Domain@@@2@XZ ENDP ; std::unique_ptr<Domain::Subscription::SubcriptionsInUse,std::default_delete<Domain::Subscription::SubcriptionsInUse> >::get_deleter
_TEXT	ENDS
; Function compile flags: /Odtp /RTCsu /ZI
; File C:\Program Files (x86)\Microsoft Visual Studio\2019\Community\VC\Tools\MSVC\14.28.29333\include\memory
;	COMDAT ??1?$unique_ptr@USubcriptionsInUse@Subscription@Domain@@U?$default_delete@USubcriptionsInUse@Subscription@Domain@@@std@@@std@@QEAA@XZ
_TEXT	SEGMENT
tv77 = 192
tv75 = 200
this$ = 240
??1?$unique_ptr@USubcriptionsInUse@Subscription@Domain@@U?$default_delete@USubcriptionsInUse@Subscription@Domain@@@std@@@std@@QEAA@XZ PROC ; std::unique_ptr<Domain::Subscription::SubcriptionsInUse,std::default_delete<Domain::Subscription::SubcriptionsInUse> >::~unique_ptr<Domain::Subscription::SubcriptionsInUse,std::default_delete<Domain::Subscription::SubcriptionsInUse> >, COMDAT

; 2645 :     ~unique_ptr() noexcept {

$LN4:
	mov	QWORD PTR [rsp+8], rcx
	push	rbp
	push	rdi
	sub	rsp, 248				; 000000f8H
	lea	rbp, QWORD PTR [rsp+32]
	mov	rdi, rsp
	mov	ecx, 62					; 0000003eH
	mov	eax, -858993460				; ccccccccH
	rep stosd
	mov	rcx, QWORD PTR [rsp+280]
	lea	rcx, OFFSET FLAT:__6A935154_memory
	call	__CheckForDebuggerJustMyCode

; 2646 :         if (_Mypair._Myval2) {

	mov	rax, QWORD PTR this$[rbp]
	cmp	QWORD PTR [rax], 0
	je	SHORT $LN2@unique_ptr

; 2647 :             _Mypair._Get_first()(_Mypair._Myval2);

	mov	rax, QWORD PTR this$[rbp]
	mov	rcx, rax
	call	?_Get_first@?$_Compressed_pair@U?$default_delete@USubcriptionsInUse@Subscription@Domain@@@std@@PEAUSubcriptionsInUse@Subscription@Domain@@$00@std@@QEAAAEAU?$default_delete@USubcriptionsInUse@Subscription@Domain@@@2@XZ ; std::_Compressed_pair<std::default_delete<Domain::Subscription::SubcriptionsInUse>,Domain::Subscription::SubcriptionsInUse *,1>::_Get_first
	mov	QWORD PTR tv77[rbp], rax
	mov	rax, QWORD PTR this$[rbp]
	mov	rax, QWORD PTR [rax]
	mov	QWORD PTR tv75[rbp], rax
	mov	rdx, QWORD PTR tv75[rbp]
	mov	rcx, QWORD PTR tv77[rbp]
	call	??R?$default_delete@USubcriptionsInUse@Subscription@Domain@@@std@@QEBAXPEAUSubcriptionsInUse@Subscription@Domain@@@Z ; std::default_delete<Domain::Subscription::SubcriptionsInUse>::operator()
$LN2@unique_ptr:

; 2648 :         }
; 2649 :     }

	lea	rsp, QWORD PTR [rbp+216]
	pop	rdi
	pop	rbp
	ret	0
??1?$unique_ptr@USubcriptionsInUse@Subscription@Domain@@U?$default_delete@USubcriptionsInUse@Subscription@Domain@@@std@@@std@@QEAA@XZ ENDP ; std::unique_ptr<Domain::Subscription::SubcriptionsInUse,std::default_delete<Domain::Subscription::SubcriptionsInUse> >::~unique_ptr<Domain::Subscription::SubcriptionsInUse,std::default_delete<Domain::Subscription::SubcriptionsInUse> >
_TEXT	ENDS
; Function compile flags: /Odtp /RTCsu /ZI
; File C:\Program Files (x86)\Microsoft Visual Studio\2019\Community\VC\Tools\MSVC\14.28.29333\include\memory
;	COMDAT ??R?$default_delete@USubcriptionsInUse@Subscription@Domain@@@std@@QEBAXPEAUSubcriptionsInUse@Subscription@Domain@@@Z
_TEXT	SEGMENT
$T1 = 200
tv75 = 216
tv76 = 224
this$ = 272
_Ptr$ = 280
??R?$default_delete@USubcriptionsInUse@Subscription@Domain@@@std@@QEBAXPEAUSubcriptionsInUse@Subscription@Domain@@@Z PROC ; std::default_delete<Domain::Subscription::SubcriptionsInUse>::operator(), COMDAT

; 2535 :     void operator()(_Ty* _Ptr) const noexcept /* strengthened */ { // delete a pointer

$LN5:
	mov	QWORD PTR [rsp+16], rdx
	mov	QWORD PTR [rsp+8], rcx
	push	rbp
	push	rdi
	sub	rsp, 280				; 00000118H
	lea	rbp, QWORD PTR [rsp+32]
	mov	rdi, rsp
	mov	ecx, 70					; 00000046H
	mov	eax, -858993460				; ccccccccH
	rep stosd
	mov	rcx, QWORD PTR [rsp+312]
	lea	rcx, OFFSET FLAT:__6A935154_memory
	call	__CheckForDebuggerJustMyCode

; 2536 :         static_assert(0 < sizeof(_Ty), "can't delete an incomplete type");
; 2537 :         delete _Ptr;

	mov	rax, QWORD PTR _Ptr$[rbp]
	mov	QWORD PTR $T1[rbp], rax
	cmp	QWORD PTR $T1[rbp], 0
	je	SHORT $LN3@operator
	mov	rax, QWORD PTR $T1[rbp]
	mov	rax, QWORD PTR [rax]
	mov	rax, QWORD PTR [rax+48]
	mov	QWORD PTR tv75[rbp], rax
	mov	edx, 1
	mov	rcx, QWORD PTR $T1[rbp]
	call	QWORD PTR tv75[rbp]
	mov	QWORD PTR tv76[rbp], rax
	jmp	SHORT $LN4@operator
$LN3@operator:
	mov	QWORD PTR tv76[rbp], 0
$LN4@operator:

; 2538 :     }

	lea	rsp, QWORD PTR [rbp+248]
	pop	rdi
	pop	rbp
	ret	0
??R?$default_delete@USubcriptionsInUse@Subscription@Domain@@@std@@QEBAXPEAUSubcriptionsInUse@Subscription@Domain@@@Z ENDP ; std::default_delete<Domain::Subscription::SubcriptionsInUse>::operator()
_TEXT	ENDS
; Function compile flags: /Odtp /RTCsu /ZI
; File C:\Program Files (x86)\Microsoft Visual Studio\2019\Community\VC\Tools\MSVC\14.28.29333\include\memory
;	COMDAT ??$make_unique@USubcriptionsInUse@Subscription@Domain@@AEBUUserCredentials@Persistence@TechnicalServices@@$0A@@std@@YA?AV?$unique_ptr@USubcriptionsInUse@Subscription@Domain@@U?$default_delete@USubcriptionsInUse@Subscription@Domain@@@std@@@0@AEBUUserCredentials@Persistence@TechnicalServices@@@Z
_TEXT	SEGMENT
$T1 = 200
$T2 = 232
$T3 = 260
tv81 = 280
tv82 = 288
__$ReturnUdt$ = 336
<_Args_0>$ = 344
??$make_unique@USubcriptionsInUse@Subscription@Domain@@AEBUUserCredentials@Persistence@TechnicalServices@@$0A@@std@@YA?AV?$unique_ptr@USubcriptionsInUse@Subscription@Domain@@U?$default_delete@USubcriptionsInUse@Subscription@Domain@@@std@@@0@AEBUUserCredentials@Persistence@TechnicalServices@@@Z PROC ; std::make_unique<Domain::Subscription::SubcriptionsInUse,TechnicalServices::Persistence::UserCredentials const &,0>, COMDAT

; 2832 : _NODISCARD unique_ptr<_Ty> make_unique(_Types&&... _Args) { // make a unique_ptr

$LN8:
	mov	QWORD PTR [rsp+16], rdx
	mov	QWORD PTR [rsp+8], rcx
	push	rbp
	push	rdi
	sub	rsp, 344				; 00000158H
	lea	rbp, QWORD PTR [rsp+32]
	mov	rdi, rsp
	mov	ecx, 86					; 00000056H
	mov	eax, -858993460				; ccccccccH
	rep stosd
	mov	rcx, QWORD PTR [rsp+376]
	mov	DWORD PTR $T3[rbp], 0
	lea	rcx, OFFSET FLAT:__6A935154_memory
	call	__CheckForDebuggerJustMyCode

; 2833 :     return unique_ptr<_Ty>(new _Ty(_STD forward<_Types>(_Args)...));

	mov	ecx, 216				; 000000d8H
	call	??2@YAPEAX_K@Z				; operator new
	mov	QWORD PTR $T2[rbp], rax
	cmp	QWORD PTR $T2[rbp], 0
	je	SHORT $LN3@make_uniqu
	mov	rcx, QWORD PTR <_Args_0>$[rbp]
	call	??$forward@AEBUUserCredentials@Persistence@TechnicalServices@@@std@@YAAEBUUserCredentials@Persistence@TechnicalServices@@AEBU123@@Z ; std::forward<TechnicalServices::Persistence::UserCredentials const &>
	mov	QWORD PTR tv81[rbp], rax
	mov	rdx, QWORD PTR tv81[rbp]
	mov	rcx, QWORD PTR $T2[rbp]
	call	??0SubcriptionsInUse@Subscription@Domain@@QEAA@AEBUUserCredentials@Persistence@TechnicalServices@@@Z ; Domain::Subscription::SubcriptionsInUse::SubcriptionsInUse
	mov	QWORD PTR tv82[rbp], rax
	jmp	SHORT $LN4@make_uniqu
$LN3@make_uniqu:
	mov	QWORD PTR tv82[rbp], 0
$LN4@make_uniqu:
	mov	rax, QWORD PTR tv82[rbp]
	mov	QWORD PTR $T1[rbp], rax
	mov	rdx, QWORD PTR $T1[rbp]
	mov	rcx, QWORD PTR __$ReturnUdt$[rbp]
	call	??$?0U?$default_delete@USubcriptionsInUse@Subscription@Domain@@@std@@$0A@@?$unique_ptr@USubcriptionsInUse@Subscription@Domain@@U?$default_delete@USubcriptionsInUse@Subscription@Domain@@@std@@@std@@QEAA@PEAUSubcriptionsInUse@Subscription@Domain@@@Z ; std::unique_ptr<Domain::Subscription::SubcriptionsInUse,std::default_delete<Domain::Subscription::SubcriptionsInUse> >::unique_ptr<Domain::Subscription::SubcriptionsInUse,std::default_delete<Domain::Subscription::SubcriptionsInUse> ><std::default_delete<Domain::Subscription::SubcriptionsInUse>,0>
	mov	eax, DWORD PTR $T3[rbp]
	or	eax, 1
	mov	DWORD PTR $T3[rbp], eax
	mov	rax, QWORD PTR __$ReturnUdt$[rbp]

; 2834 : }

	lea	rsp, QWORD PTR [rbp+312]
	pop	rdi
	pop	rbp
	ret	0
??$make_unique@USubcriptionsInUse@Subscription@Domain@@AEBUUserCredentials@Persistence@TechnicalServices@@$0A@@std@@YA?AV?$unique_ptr@USubcriptionsInUse@Subscription@Domain@@U?$default_delete@USubcriptionsInUse@Subscription@Domain@@@std@@@0@AEBUUserCredentials@Persistence@TechnicalServices@@@Z ENDP ; std::make_unique<Domain::Subscription::SubcriptionsInUse,TechnicalServices::Persistence::UserCredentials const &,0>
_TEXT	ENDS
;	COMDAT text$x
text$x	SEGMENT
$T1 = 200
$T2 = 232
$T3 = 260
tv81 = 280
tv82 = 288
__$ReturnUdt$ = 336
<_Args_0>$ = 344
?dtor$0@?0???$make_unique@USubcriptionsInUse@Subscription@Domain@@AEBUUserCredentials@Persistence@TechnicalServices@@$0A@@std@@YA?AV?$unique_ptr@USubcriptionsInUse@Subscription@Domain@@U?$default_delete@USubcriptionsInUse@Subscription@Domain@@@std@@@0@AEBUUserCredentials@Persistence@TechnicalServices@@@Z@4HA PROC ; `std::make_unique<Domain::Subscription::SubcriptionsInUse,TechnicalServices::Persistence::UserCredentials const &,0>'::`1'::dtor$0
	mov	QWORD PTR [rsp+8], rcx
	mov	QWORD PTR [rsp+16], rdx
	push	rbp
	push	rdi
	sub	rsp, 40					; 00000028H
	lea	rbp, QWORD PTR [rdx+32]
	mov	edx, 216				; 000000d8H
	mov	rcx, QWORD PTR $T2[rbp]
	call	??3@YAXPEAX_K@Z				; operator delete
	add	rsp, 40					; 00000028H
	pop	rdi
	pop	rbp
	ret	0
?dtor$0@?0???$make_unique@USubcriptionsInUse@Subscription@Domain@@AEBUUserCredentials@Persistence@TechnicalServices@@$0A@@std@@YA?AV?$unique_ptr@USubcriptionsInUse@Subscription@Domain@@U?$default_delete@USubcriptionsInUse@Subscription@Domain@@@std@@@0@AEBUUserCredentials@Persistence@TechnicalServices@@@Z@4HA ENDP ; `std::make_unique<Domain::Subscription::SubcriptionsInUse,TechnicalServices::Persistence::UserCredentials const &,0>'::`1'::dtor$0
text$x	ENDS
; Function compile flags: /Odtp /RTCsu /ZI
;	COMDAT text$x
text$x	SEGMENT
$T1 = 200
$T2 = 232
$T3 = 260
tv81 = 280
tv82 = 288
__$ReturnUdt$ = 336
<_Args_0>$ = 344
?dtor$0@?0???$make_unique@USubcriptionsInUse@Subscription@Domain@@AEBUUserCredentials@Persistence@TechnicalServices@@$0A@@std@@YA?AV?$unique_ptr@USubcriptionsInUse@Subscription@Domain@@U?$default_delete@USubcriptionsInUse@Subscription@Domain@@@std@@@0@AEBUUserCredentials@Persistence@TechnicalServices@@@Z@4HA PROC ; `std::make_unique<Domain::Subscription::SubcriptionsInUse,TechnicalServices::Persistence::UserCredentials const &,0>'::`1'::dtor$0
	mov	QWORD PTR [rsp+8], rcx
	mov	QWORD PTR [rsp+16], rdx
	push	rbp
	push	rdi
	sub	rsp, 40					; 00000028H
	lea	rbp, QWORD PTR [rdx+32]
	mov	edx, 216				; 000000d8H
	mov	rcx, QWORD PTR $T2[rbp]
	call	??3@YAXPEAX_K@Z				; operator delete
	add	rsp, 40					; 00000028H
	pop	rdi
	pop	rbp
	ret	0
?dtor$0@?0???$make_unique@USubcriptionsInUse@Subscription@Domain@@AEBUUserCredentials@Persistence@TechnicalServices@@$0A@@std@@YA?AV?$unique_ptr@USubcriptionsInUse@Subscription@Domain@@U?$default_delete@USubcriptionsInUse@Subscription@Domain@@@std@@@0@AEBUUserCredentials@Persistence@TechnicalServices@@@Z@4HA ENDP ; `std::make_unique<Domain::Subscription::SubcriptionsInUse,TechnicalServices::Persistence::UserCredentials const &,0>'::`1'::dtor$0
text$x	ENDS
; Function compile flags: /Odtp /RTCsu /ZI
; File D:\Users\krunk\Documents\Visual Studio 2019\Projects\Fall 2020\CPSC-462-GROUP-2\C++ Development Root\SourceCode\Domain\Subscription\SubscriptionHandler.cpp
;	COMDAT ??1SubscriptionHandler@Subscription@Domain@@UEAA@XZ
_TEXT	SEGMENT
this$ = 224
??1SubscriptionHandler@Subscription@Domain@@UEAA@XZ PROC ; Domain::Subscription::SubscriptionHandler::~SubscriptionHandler, COMDAT

; 16   :     SubscriptionHandler::~SubscriptionHandler() noexcept = default;

$LN3:
	mov	QWORD PTR [rsp+8], rcx
	push	rbp
	push	rdi
	sub	rsp, 232				; 000000e8H
	lea	rbp, QWORD PTR [rsp+32]
	mov	rdi, rsp
	mov	ecx, 58					; 0000003aH
	mov	eax, -858993460				; ccccccccH
	rep stosd
	mov	rcx, QWORD PTR [rsp+264]
	lea	rcx, OFFSET FLAT:__89F77DF8_SubscriptionHandler@cpp
	call	__CheckForDebuggerJustMyCode
	mov	rax, QWORD PTR this$[rbp]
	lea	rcx, OFFSET FLAT:??_7SubscriptionHandler@Subscription@Domain@@6B@
	mov	QWORD PTR [rax], rcx
	lea	rsp, QWORD PTR [rbp+200]
	pop	rdi
	pop	rbp
	ret	0
??1SubscriptionHandler@Subscription@Domain@@UEAA@XZ ENDP ; Domain::Subscription::SubscriptionHandler::~SubscriptionHandler
_TEXT	ENDS
; Function compile flags: /Odtp /RTCsu /ZI
; File D:\Users\krunk\Documents\Visual Studio 2019\Projects\Fall 2020\CPSC-462-GROUP-2\C++ Development Root\SourceCode\Domain\Subscription\SubscriptionHandler.cpp
;	COMDAT ?MaintainSubscription@SubscriptionHandler@Subscription@Domain@@SA?AV?$unique_ptr@VSubscriptionHandler@Subscription@Domain@@U?$default_delete@VSubscriptionHandler@Subscription@Domain@@@std@@@std@@AEBUUserCredentials@Persistence@TechnicalServices@@@Z
_TEXT	SEGMENT
persistentData$ = 8
SubscriptionStatusDB$ = 48
$T4 = 392
$T5 = 420
tv90 = 440
tv71 = 440
__$ArrayPad$ = 448
__$ReturnUdt$ = 496
user$ = 504
?MaintainSubscription@SubscriptionHandler@Subscription@Domain@@SA?AV?$unique_ptr@VSubscriptionHandler@Subscription@Domain@@U?$default_delete@VSubscriptionHandler@Subscription@Domain@@@std@@@std@@AEBUUserCredentials@Persistence@TechnicalServices@@@Z PROC ; Domain::Subscription::SubscriptionHandler::MaintainSubscription, COMDAT

; 19   :     {

$LN8:
	mov	QWORD PTR [rsp+16], rdx
	mov	QWORD PTR [rsp+8], rcx
	push	rbp
	push	rdi
	sub	rsp, 504				; 000001f8H
	lea	rbp, QWORD PTR [rsp+32]
	mov	rdi, rsp
	mov	ecx, 126				; 0000007eH
	mov	eax, -858993460				; ccccccccH
	rep stosd
	mov	rcx, QWORD PTR [rsp+536]
	mov	rax, QWORD PTR __security_cookie
	xor	rax, rbp
	mov	QWORD PTR __$ArrayPad$[rbp], rax
	mov	DWORD PTR $T5[rbp], 0
	lea	rcx, OFFSET FLAT:__89F77DF8_SubscriptionHandler@cpp
	call	__CheckForDebuggerJustMyCode

; 20   :         auto& persistentData = TechnicalServices::Persistence::PersistenceHandler::instance();

	call	?instance@PersistenceHandler@Persistence@TechnicalServices@@SAAEAV123@XZ ; TechnicalServices::Persistence::PersistenceHandler::instance
	mov	QWORD PTR persistentData$[rbp], rax

; 21   :        SubscriptionStatus SubscriptionStatusDB = persistentData.StacticSubscriptionSatus();

	mov	rax, QWORD PTR persistentData$[rbp]
	mov	rax, QWORD PTR [rax]
	mov	rax, QWORD PTR [rax+112]
	mov	QWORD PTR tv71[rbp], rax
	lea	rdx, QWORD PTR SubscriptionStatusDB$[rbp]
	mov	rcx, QWORD PTR persistentData$[rbp]
	call	QWORD PTR tv71[rbp]
	npad	1

; 22   :         if (SubscriptionStatusDB.SubsctiptionStatusId != NULL) return std::make_unique<Domain::Subscription::SubcriptionsInUse>(user);

	cmp	DWORD PTR SubscriptionStatusDB$[rbp], 0
	je	SHORT $LN2@MaintainSu
	mov	rdx, QWORD PTR user$[rbp]
	lea	rcx, QWORD PTR $T4[rbp]
	call	??$make_unique@USubcriptionsInUse@Subscription@Domain@@AEBUUserCredentials@Persistence@TechnicalServices@@$0A@@std@@YA?AV?$unique_ptr@USubcriptionsInUse@Subscription@Domain@@U?$default_delete@USubcriptionsInUse@Subscription@Domain@@@std@@@0@AEBUUserCredentials@Persistence@TechnicalServices@@@Z ; std::make_unique<Domain::Subscription::SubcriptionsInUse,TechnicalServices::Persistence::UserCredentials const &,0>
	mov	QWORD PTR tv90[rbp], rax
	mov	rdx, QWORD PTR tv90[rbp]
	mov	rcx, QWORD PTR __$ReturnUdt$[rbp]
	call	??$?0USubcriptionsInUse@Subscription@Domain@@U?$default_delete@USubcriptionsInUse@Subscription@Domain@@@std@@$0A@@?$unique_ptr@VSubscriptionHandler@Subscription@Domain@@U?$default_delete@VSubscriptionHandler@Subscription@Domain@@@std@@@std@@QEAA@$$QEAV?$unique_ptr@USubcriptionsInUse@Subscription@Domain@@U?$default_delete@USubcriptionsInUse@Subscription@Domain@@@std@@@1@@Z ; std::unique_ptr<Domain::Subscription::SubscriptionHandler,std::default_delete<Domain::Subscription::SubscriptionHandler> >::unique_ptr<Domain::Subscription::SubscriptionHandler,std::default_delete<Domain::Subscription::SubscriptionHandler> ><Domain::Subscription::SubcriptionsInUse,std::default_delete<Domain::Subscription::SubcriptionsInUse>,0>
	mov	eax, DWORD PTR $T5[rbp]
	or	eax, 1
	mov	DWORD PTR $T5[rbp], eax
	lea	rcx, QWORD PTR $T4[rbp]
	call	??1?$unique_ptr@USubcriptionsInUse@Subscription@Domain@@U?$default_delete@USubcriptionsInUse@Subscription@Domain@@@std@@@std@@QEAA@XZ ; std::unique_ptr<Domain::Subscription::SubcriptionsInUse,std::default_delete<Domain::Subscription::SubcriptionsInUse> >::~unique_ptr<Domain::Subscription::SubcriptionsInUse,std::default_delete<Domain::Subscription::SubcriptionsInUse> >
	npad	1
	lea	rcx, QWORD PTR SubscriptionStatusDB$[rbp]
	call	??1SubscriptionStatus@Persistence@TechnicalServices@@QEAA@XZ
	mov	rax, QWORD PTR __$ReturnUdt$[rbp]
	jmp	SHORT $LN1@MaintainSu
$LN2@MaintainSu:

; 23   : 
; 24   :         return nullptr;

	xor	edx, edx
	mov	rcx, QWORD PTR __$ReturnUdt$[rbp]
	call	??$?0U?$default_delete@VSubscriptionHandler@Subscription@Domain@@@std@@$0A@@?$unique_ptr@VSubscriptionHandler@Subscription@Domain@@U?$default_delete@VSubscriptionHandler@Subscription@Domain@@@std@@@std@@QEAA@$$T@Z ; std::unique_ptr<Domain::Subscription::SubscriptionHandler,std::default_delete<Domain::Subscription::SubscriptionHandler> >::unique_ptr<Domain::Subscription::SubscriptionHandler,std::default_delete<Domain::Subscription::SubscriptionHandler> ><std::default_delete<Domain::Subscription::SubscriptionHandler>,0>
	mov	eax, DWORD PTR $T5[rbp]
	or	eax, 1
	mov	DWORD PTR $T5[rbp], eax
	lea	rcx, QWORD PTR SubscriptionStatusDB$[rbp]
	call	??1SubscriptionStatus@Persistence@TechnicalServices@@QEAA@XZ
	mov	rax, QWORD PTR __$ReturnUdt$[rbp]
$LN1@MaintainSu:

; 25   :     }

	mov	rdi, rax
	lea	rcx, QWORD PTR [rbp-32]
	lea	rdx, OFFSET FLAT:?MaintainSubscription@SubscriptionHandler@Subscription@Domain@@SA?AV?$unique_ptr@VSubscriptionHandler@Subscription@Domain@@U?$default_delete@VSubscriptionHandler@Subscription@Domain@@@std@@@std@@AEBUUserCredentials@Persistence@TechnicalServices@@@Z$rtcFrameData
	call	_RTC_CheckStackVars
	mov	rax, rdi
	mov	rcx, QWORD PTR __$ArrayPad$[rbp]
	xor	rcx, rbp
	call	__security_check_cookie
	lea	rsp, QWORD PTR [rbp+472]
	pop	rdi
	pop	rbp
	ret	0
?MaintainSubscription@SubscriptionHandler@Subscription@Domain@@SA?AV?$unique_ptr@VSubscriptionHandler@Subscription@Domain@@U?$default_delete@VSubscriptionHandler@Subscription@Domain@@@std@@@std@@AEBUUserCredentials@Persistence@TechnicalServices@@@Z ENDP ; Domain::Subscription::SubscriptionHandler::MaintainSubscription
_TEXT	ENDS
;	COMDAT text$x
text$x	SEGMENT
persistentData$ = 8
SubscriptionStatusDB$ = 48
$T4 = 392
$T5 = 420
tv90 = 440
tv71 = 440
__$ArrayPad$ = 448
__$ReturnUdt$ = 496
user$ = 504
?dtor$0@?0??MaintainSubscription@SubscriptionHandler@Subscription@Domain@@SA?AV?$unique_ptr@VSubscriptionHandler@Subscription@Domain@@U?$default_delete@VSubscriptionHandler@Subscription@Domain@@@std@@@std@@AEBUUserCredentials@Persistence@TechnicalServices@@@Z@4HA PROC ; `Domain::Subscription::SubscriptionHandler::MaintainSubscription'::`1'::dtor$0
	mov	QWORD PTR [rsp+8], rcx
	mov	QWORD PTR [rsp+16], rdx
	push	rbp
	push	rdi
	sub	rsp, 40					; 00000028H
	lea	rbp, QWORD PTR [rdx+32]
	lea	rcx, QWORD PTR SubscriptionStatusDB$[rbp]
	call	??1SubscriptionStatus@Persistence@TechnicalServices@@QEAA@XZ
	add	rsp, 40					; 00000028H
	pop	rdi
	pop	rbp
	ret	0
?dtor$0@?0??MaintainSubscription@SubscriptionHandler@Subscription@Domain@@SA?AV?$unique_ptr@VSubscriptionHandler@Subscription@Domain@@U?$default_delete@VSubscriptionHandler@Subscription@Domain@@@std@@@std@@AEBUUserCredentials@Persistence@TechnicalServices@@@Z@4HA ENDP ; `Domain::Subscription::SubscriptionHandler::MaintainSubscription'::`1'::dtor$0
text$x	ENDS
; Function compile flags: /Odtp /RTCsu /ZI
;	COMDAT text$x
text$x	SEGMENT
persistentData$ = 8
SubscriptionStatusDB$ = 48
$T4 = 392
$T5 = 420
tv90 = 440
tv71 = 440
__$ArrayPad$ = 448
__$ReturnUdt$ = 496
user$ = 504
?dtor$0@?0??MaintainSubscription@SubscriptionHandler@Subscription@Domain@@SA?AV?$unique_ptr@VSubscriptionHandler@Subscription@Domain@@U?$default_delete@VSubscriptionHandler@Subscription@Domain@@@std@@@std@@AEBUUserCredentials@Persistence@TechnicalServices@@@Z@4HA PROC ; `Domain::Subscription::SubscriptionHandler::MaintainSubscription'::`1'::dtor$0
	mov	QWORD PTR [rsp+8], rcx
	mov	QWORD PTR [rsp+16], rdx
	push	rbp
	push	rdi
	sub	rsp, 40					; 00000028H
	lea	rbp, QWORD PTR [rdx+32]
	lea	rcx, QWORD PTR SubscriptionStatusDB$[rbp]
	call	??1SubscriptionStatus@Persistence@TechnicalServices@@QEAA@XZ
	add	rsp, 40					; 00000028H
	pop	rdi
	pop	rbp
	ret	0
?dtor$0@?0??MaintainSubscription@SubscriptionHandler@Subscription@Domain@@SA?AV?$unique_ptr@VSubscriptionHandler@Subscription@Domain@@U?$default_delete@VSubscriptionHandler@Subscription@Domain@@@std@@@std@@AEBUUserCredentials@Persistence@TechnicalServices@@@Z@4HA ENDP ; `Domain::Subscription::SubscriptionHandler::MaintainSubscription'::`1'::dtor$0
text$x	ENDS
; Function compile flags: /Odtp /RTCsu /ZI
;	COMDAT ??1SubscriptionStatus@Persistence@TechnicalServices@@QEAA@XZ
_TEXT	SEGMENT
this$ = 224
??1SubscriptionStatus@Persistence@TechnicalServices@@QEAA@XZ PROC ; TechnicalServices::Persistence::SubscriptionStatus::~SubscriptionStatus, COMDAT
$LN3:
	mov	QWORD PTR [rsp+8], rcx
	push	rbp
	push	rdi
	sub	rsp, 232				; 000000e8H
	lea	rbp, QWORD PTR [rsp+32]
	mov	rdi, rsp
	mov	ecx, 58					; 0000003aH
	mov	eax, -858993460				; ccccccccH
	rep stosd
	mov	rcx, QWORD PTR [rsp+264]
	mov	rax, QWORD PTR this$[rbp]
	add	rax, 88					; 00000058H
	mov	rcx, rax
	call	??1?$basic_string@DU?$char_traits@D@std@@V?$allocator@D@2@@std@@QEAA@XZ ; std::basic_string<char,std::char_traits<char>,std::allocator<char> >::~basic_string<char,std::char_traits<char>,std::allocator<char> >
	mov	rax, QWORD PTR this$[rbp]
	add	rax, 48					; 00000030H
	mov	rcx, rax
	call	??1?$basic_string@DU?$char_traits@D@std@@V?$allocator@D@2@@std@@QEAA@XZ ; std::basic_string<char,std::char_traits<char>,std::allocator<char> >::~basic_string<char,std::char_traits<char>,std::allocator<char> >
	mov	rax, QWORD PTR this$[rbp]
	add	rax, 8
	mov	rcx, rax
	call	??1?$basic_string@DU?$char_traits@D@std@@V?$allocator@D@2@@std@@QEAA@XZ ; std::basic_string<char,std::char_traits<char>,std::allocator<char> >::~basic_string<char,std::char_traits<char>,std::allocator<char> >
	lea	rsp, QWORD PTR [rbp+200]
	pop	rdi
	pop	rbp
	ret	0
??1SubscriptionStatus@Persistence@TechnicalServices@@QEAA@XZ ENDP ; TechnicalServices::Persistence::SubscriptionStatus::~SubscriptionStatus
_TEXT	ENDS
; Function compile flags: /Odtp /RTCsu /ZI
;	COMDAT ??1?$_Compressed_pair@V?$allocator@D@std@@V?$_String_val@U?$_Simple_types@D@std@@@2@$00@std@@QEAA@XZ
_TEXT	SEGMENT
this$ = 224
??1?$_Compressed_pair@V?$allocator@D@std@@V?$_String_val@U?$_Simple_types@D@std@@@2@$00@std@@QEAA@XZ PROC ; std::_Compressed_pair<std::allocator<char>,std::_String_val<std::_Simple_types<char> >,1>::~_Compressed_pair<std::allocator<char>,std::_String_val<std::_Simple_types<char> >,1>, COMDAT
$LN3:
	mov	QWORD PTR [rsp+8], rcx
	push	rbp
	push	rdi
	sub	rsp, 232				; 000000e8H
	lea	rbp, QWORD PTR [rsp+32]
	mov	rdi, rsp
	mov	ecx, 58					; 0000003aH
	mov	eax, -858993460				; ccccccccH
	rep stosd
	mov	rcx, QWORD PTR [rsp+264]
	mov	rax, QWORD PTR this$[rbp]
	mov	rcx, rax
	call	??1?$_String_val@U?$_Simple_types@D@std@@@std@@QEAA@XZ
	lea	rsp, QWORD PTR [rbp+200]
	pop	rdi
	pop	rbp
	ret	0
??1?$_Compressed_pair@V?$allocator@D@std@@V?$_String_val@U?$_Simple_types@D@std@@@2@$00@std@@QEAA@XZ ENDP ; std::_Compressed_pair<std::allocator<char>,std::_String_val<std::_Simple_types<char> >,1>::~_Compressed_pair<std::allocator<char>,std::_String_val<std::_Simple_types<char> >,1>
_TEXT	ENDS
; Function compile flags: /Odtp /RTCsu /ZI
; File C:\Program Files (x86)\Microsoft Visual Studio\2019\Community\VC\Tools\MSVC\14.28.29333\include\xmemory
;	COMDAT ?_Get_first@?$_Compressed_pair@V?$allocator@D@std@@V?$_String_val@U?$_Simple_types@D@std@@@2@$00@std@@QEAAAEAV?$allocator@D@2@XZ
_TEXT	SEGMENT
this$ = 224
?_Get_first@?$_Compressed_pair@V?$allocator@D@std@@V?$_String_val@U?$_Simple_types@D@std@@@2@$00@std@@QEAAAEAV?$allocator@D@2@XZ PROC ; std::_Compressed_pair<std::allocator<char>,std::_String_val<std::_Simple_types<char> >,1>::_Get_first, COMDAT

; 1346 :     constexpr _Ty1& _Get_first() noexcept {

$LN3:
	mov	QWORD PTR [rsp+8], rcx
	push	rbp
	push	rdi
	sub	rsp, 232				; 000000e8H
	lea	rbp, QWORD PTR [rsp+32]
	mov	rdi, rsp
	mov	ecx, 58					; 0000003aH
	mov	eax, -858993460				; ccccccccH
	rep stosd
	mov	rcx, QWORD PTR [rsp+264]
	lea	rcx, OFFSET FLAT:__F1739482_xmemory
	call	__CheckForDebuggerJustMyCode

; 1347 :         return *this;

	mov	rax, QWORD PTR this$[rbp]

; 1348 :     }

	lea	rsp, QWORD PTR [rbp+200]
	pop	rdi
	pop	rbp
	ret	0
?_Get_first@?$_Compressed_pair@V?$allocator@D@std@@V?$_String_val@U?$_Simple_types@D@std@@@2@$00@std@@QEAAAEAV?$allocator@D@2@XZ ENDP ; std::_Compressed_pair<std::allocator<char>,std::_String_val<std::_Simple_types<char> >,1>::_Get_first
_TEXT	ENDS
; Function compile flags: /Odtp /RTCsu /ZI
; File C:\Program Files (x86)\Microsoft Visual Studio\2019\Community\VC\Tools\MSVC\14.28.29333\include\xstring
;	COMDAT ?_Getal@?$basic_string@DU?$char_traits@D@std@@V?$allocator@D@2@@std@@AEAAAEAV?$allocator@D@2@XZ
_TEXT	SEGMENT
this$ = 224
?_Getal@?$basic_string@DU?$char_traits@D@std@@V?$allocator@D@2@@std@@AEAAAEAV?$allocator@D@2@XZ PROC ; std::basic_string<char,std::char_traits<char>,std::allocator<char> >::_Getal, COMDAT

; 4408 :     _Alty& _Getal() noexcept {

$LN3:
	mov	QWORD PTR [rsp+8], rcx
	push	rbp
	push	rdi
	sub	rsp, 232				; 000000e8H
	lea	rbp, QWORD PTR [rsp+32]
	mov	rdi, rsp
	mov	ecx, 58					; 0000003aH
	mov	eax, -858993460				; ccccccccH
	rep stosd
	mov	rcx, QWORD PTR [rsp+264]
	lea	rcx, OFFSET FLAT:__85A0121E_xstring
	call	__CheckForDebuggerJustMyCode

; 4409 :         return _Mypair._Get_first();

	mov	rax, QWORD PTR this$[rbp]
	mov	rcx, rax
	call	?_Get_first@?$_Compressed_pair@V?$allocator@D@std@@V?$_String_val@U?$_Simple_types@D@std@@@2@$00@std@@QEAAAEAV?$allocator@D@2@XZ ; std::_Compressed_pair<std::allocator<char>,std::_String_val<std::_Simple_types<char> >,1>::_Get_first

; 4410 :     }

	lea	rsp, QWORD PTR [rbp+200]
	pop	rdi
	pop	rbp
	ret	0
?_Getal@?$basic_string@DU?$char_traits@D@std@@V?$allocator@D@2@@std@@AEAAAEAV?$allocator@D@2@XZ ENDP ; std::basic_string<char,std::char_traits<char>,std::allocator<char> >::_Getal
_TEXT	ENDS
; Function compile flags: /Odtp /RTCsu /ZI
; File C:\Program Files (x86)\Microsoft Visual Studio\2019\Community\VC\Tools\MSVC\14.28.29333\include\xstring
;	COMDAT ?_Tidy_deallocate@?$basic_string@DU?$char_traits@D@std@@V?$allocator@D@2@@std@@AEAAXXZ
_TEXT	SEGMENT
_Ptr$1 = 8
_Al$2 = 40
$T3 = 260
this$ = 320
?_Tidy_deallocate@?$basic_string@DU?$char_traits@D@std@@V?$allocator@D@2@@std@@AEAAXXZ PROC ; std::basic_string<char,std::char_traits<char>,std::allocator<char> >::_Tidy_deallocate, COMDAT

; 4383 :     void _Tidy_deallocate() noexcept { // initialize buffer, deallocating any storage

$LN4:
	mov	QWORD PTR [rsp+8], rcx
	push	rbp
	push	rdi
	sub	rsp, 328				; 00000148H
	lea	rbp, QWORD PTR [rsp+32]
	mov	rdi, rsp
	mov	ecx, 82					; 00000052H
	mov	eax, -858993460				; ccccccccH
	rep stosd
	mov	rcx, QWORD PTR [rsp+360]
	lea	rcx, OFFSET FLAT:__85A0121E_xstring
	call	__CheckForDebuggerJustMyCode

; 4384 :         _Mypair._Myval2._Orphan_all();

	mov	rax, QWORD PTR this$[rbp]
	mov	rcx, rax
	call	?_Orphan_all@_Container_base12@std@@QEAAXXZ ; std::_Container_base12::_Orphan_all

; 4385 :         if (_Mypair._Myval2._Large_string_engaged()) {

	mov	rax, QWORD PTR this$[rbp]
	mov	rcx, rax
	call	?_Large_string_engaged@?$_String_val@U?$_Simple_types@D@std@@@std@@QEBA_NXZ ; std::_String_val<std::_Simple_types<char> >::_Large_string_engaged
	movzx	eax, al
	test	eax, eax
	je	SHORT $LN2@Tidy_deall

; 4386 :             const pointer _Ptr = _Mypair._Myval2._Bx._Ptr;

	mov	rax, QWORD PTR this$[rbp]
	mov	rax, QWORD PTR [rax+8]
	mov	QWORD PTR _Ptr$1[rbp], rax

; 4387 :             auto& _Al          = _Getal();

	mov	rcx, QWORD PTR this$[rbp]
	call	?_Getal@?$basic_string@DU?$char_traits@D@std@@V?$allocator@D@2@@std@@AEAAAEAV?$allocator@D@2@XZ ; std::basic_string<char,std::char_traits<char>,std::allocator<char> >::_Getal
	mov	QWORD PTR _Al$2[rbp], rax

; 4388 :             _Destroy_in_place(_Mypair._Myval2._Bx._Ptr);

	mov	rax, QWORD PTR this$[rbp]
	add	rax, 8
	mov	rcx, rax
	call	??$_Destroy_in_place@PEAD@std@@YAXAEAPEAD@Z ; std::_Destroy_in_place<char *>

; 4389 :             _Al.deallocate(_Ptr, _Mypair._Myval2._Myres + 1);

	mov	rax, QWORD PTR this$[rbp]
	mov	rax, QWORD PTR [rax+32]
	inc	rax
	mov	r8, rax
	mov	rdx, QWORD PTR _Ptr$1[rbp]
	mov	rcx, QWORD PTR _Al$2[rbp]
	call	?deallocate@?$allocator@D@std@@QEAAXQEAD_K@Z ; std::allocator<char>::deallocate
$LN2@Tidy_deall:

; 4390 :         }
; 4391 : 
; 4392 :         _Mypair._Myval2._Mysize = 0;

	mov	rax, QWORD PTR this$[rbp]
	mov	QWORD PTR [rax+24], 0

; 4393 :         _Mypair._Myval2._Myres  = _BUF_SIZE - 1;

	mov	rax, QWORD PTR this$[rbp]
	mov	QWORD PTR [rax+32], 15

; 4394 :         // the _Traits::assign is last so the codegen doesn't think the char write can alias this
; 4395 :         _Traits::assign(_Mypair._Myval2._Bx._Buf[0], _Elem());

	mov	BYTE PTR $T3[rbp], 0
	mov	eax, 1
	imul	rax, rax, 0
	mov	rcx, QWORD PTR this$[rbp]
	lea	rax, QWORD PTR [rcx+rax+8]
	lea	rdx, QWORD PTR $T3[rbp]
	mov	rcx, rax
	call	?assign@?$_Narrow_char_traits@DH@std@@SAXAEADAEBD@Z ; std::_Narrow_char_traits<char,int>::assign
	npad	1

; 4396 :     }

	lea	rsp, QWORD PTR [rbp+296]
	pop	rdi
	pop	rbp
	ret	0
?_Tidy_deallocate@?$basic_string@DU?$char_traits@D@std@@V?$allocator@D@2@@std@@AEAAXXZ ENDP ; std::basic_string<char,std::char_traits<char>,std::allocator<char> >::_Tidy_deallocate
_TEXT	ENDS
; Function compile flags: /Odtp /RTCsu /ZI
; File C:\Program Files (x86)\Microsoft Visual Studio\2019\Community\VC\Tools\MSVC\14.28.29333\include\xstring
;	COMDAT ??1?$basic_string@DU?$char_traits@D@std@@V?$allocator@D@2@@std@@QEAA@XZ
_TEXT	SEGMENT
_Alproxy$ = 8
$S8$ = 36
_To_delete$ = 72
__$ArrayPad$ = 280
this$ = 320
??1?$basic_string@DU?$char_traits@D@std@@V?$allocator@D@2@@std@@QEAA@XZ PROC ; std::basic_string<char,std::char_traits<char>,std::allocator<char> >::~basic_string<char,std::char_traits<char>,std::allocator<char> >, COMDAT

; 2800 :     ~basic_string() noexcept {

$LN3:
	mov	QWORD PTR [rsp+8], rcx
	push	rbp
	push	rdi
	sub	rsp, 328				; 00000148H
	lea	rbp, QWORD PTR [rsp+32]
	mov	rdi, rsp
	mov	ecx, 82					; 00000052H
	mov	eax, -858993460				; ccccccccH
	rep stosd
	mov	rcx, QWORD PTR [rsp+360]
	mov	rax, QWORD PTR __security_cookie
	xor	rax, rbp
	mov	QWORD PTR __$ArrayPad$[rbp], rax
	lea	rcx, OFFSET FLAT:__85A0121E_xstring
	call	__CheckForDebuggerJustMyCode

; 2801 :         _Tidy_deallocate();

	mov	rcx, QWORD PTR this$[rbp]
	call	?_Tidy_deallocate@?$basic_string@DU?$char_traits@D@std@@V?$allocator@D@2@@std@@AEAAXXZ ; std::basic_string<char,std::char_traits<char>,std::allocator<char> >::_Tidy_deallocate

; 2802 : #if _ITERATOR_DEBUG_LEVEL != 0
; 2803 :         auto&& _Alproxy          = _GET_PROXY_ALLOCATOR(_Alty, _Getal());

	mov	rcx, QWORD PTR this$[rbp]
	call	?_Getal@?$basic_string@DU?$char_traits@D@std@@V?$allocator@D@2@@std@@AEAAAEAV?$allocator@D@2@XZ ; std::basic_string<char,std::char_traits<char>,std::allocator<char> >::_Getal
	mov	rdx, rax
	lea	rcx, QWORD PTR $S8$[rbp]
	call	??$?0D@?$allocator@U_Container_proxy@std@@@std@@QEAA@AEBV?$allocator@D@1@@Z ; std::allocator<std::_Container_proxy>::allocator<std::_Container_proxy><char>
	lea	rax, QWORD PTR $S8$[rbp]
	mov	QWORD PTR _Alproxy$[rbp], rax

; 2804 :         const auto _To_delete    = _Mypair._Myval2._Myproxy;

	mov	rax, QWORD PTR this$[rbp]
	mov	rax, QWORD PTR [rax]
	mov	QWORD PTR _To_delete$[rbp], rax

; 2805 :         _Mypair._Myval2._Myproxy = nullptr;

	mov	rax, QWORD PTR this$[rbp]
	mov	QWORD PTR [rax], 0

; 2806 :         _Delete_plain_internal(_Alproxy, _To_delete);

	mov	rdx, QWORD PTR _To_delete$[rbp]
	mov	rcx, QWORD PTR _Alproxy$[rbp]
	call	??$_Delete_plain_internal@V?$allocator@U_Container_proxy@std@@@std@@@std@@YAXAEAV?$allocator@U_Container_proxy@std@@@0@QEAU_Container_proxy@0@@Z ; std::_Delete_plain_internal<std::allocator<std::_Container_proxy> >

; 2807 : #endif // _ITERATOR_DEBUG_LEVEL != 0
; 2808 :     }

	mov	rax, QWORD PTR this$[rbp]
	mov	rcx, rax
	call	??1?$_Compressed_pair@V?$allocator@D@std@@V?$_String_val@U?$_Simple_types@D@std@@@2@$00@std@@QEAA@XZ
	lea	rcx, QWORD PTR [rbp-32]
	lea	rdx, OFFSET FLAT:??1?$basic_string@DU?$char_traits@D@std@@V?$allocator@D@2@@std@@QEAA@XZ$rtcFrameData
	call	_RTC_CheckStackVars
	mov	rcx, QWORD PTR __$ArrayPad$[rbp]
	xor	rcx, rbp
	call	__security_check_cookie
	lea	rsp, QWORD PTR [rbp+296]
	pop	rdi
	pop	rbp
	ret	0
??1?$basic_string@DU?$char_traits@D@std@@V?$allocator@D@2@@std@@QEAA@XZ ENDP ; std::basic_string<char,std::char_traits<char>,std::allocator<char> >::~basic_string<char,std::char_traits<char>,std::allocator<char> >
_TEXT	ENDS
; Function compile flags: /Odtp /RTCsu /ZI
;	COMDAT ??1?$_String_val@U?$_Simple_types@D@std@@@std@@QEAA@XZ
_TEXT	SEGMENT
this$ = 224
??1?$_String_val@U?$_Simple_types@D@std@@@std@@QEAA@XZ PROC ; std::_String_val<std::_Simple_types<char> >::~_String_val<std::_Simple_types<char> >, COMDAT
$LN3:
	mov	QWORD PTR [rsp+8], rcx
	push	rbp
	push	rdi
	sub	rsp, 232				; 000000e8H
	lea	rbp, QWORD PTR [rsp+32]
	mov	rdi, rsp
	mov	ecx, 58					; 0000003aH
	mov	eax, -858993460				; ccccccccH
	rep stosd
	mov	rcx, QWORD PTR [rsp+264]
	mov	rax, QWORD PTR this$[rbp]
	add	rax, 8
	mov	rcx, rax
	call	??1_Bxty@?$_String_val@U?$_Simple_types@D@std@@@std@@QEAA@XZ ; std::_String_val<std::_Simple_types<char> >::_Bxty::~_Bxty
	lea	rsp, QWORD PTR [rbp+200]
	pop	rdi
	pop	rbp
	ret	0
??1?$_String_val@U?$_Simple_types@D@std@@@std@@QEAA@XZ ENDP ; std::_String_val<std::_Simple_types<char> >::~_String_val<std::_Simple_types<char> >
_TEXT	ENDS
; Function compile flags: /Odtp /RTCsu /ZI
; File C:\Program Files (x86)\Microsoft Visual Studio\2019\Community\VC\Tools\MSVC\14.28.29333\include\xstring
;	COMDAT ??1_Bxty@?$_String_val@U?$_Simple_types@D@std@@@std@@QEAA@XZ
_TEXT	SEGMENT
this$ = 224
??1_Bxty@?$_String_val@U?$_Simple_types@D@std@@@std@@QEAA@XZ PROC ; std::_String_val<std::_Simple_types<char> >::_Bxty::~_Bxty, COMDAT

; 2254 :         ~_Bxty() noexcept {} // user-provided, for fancy pointers

$LN3:
	mov	QWORD PTR [rsp+8], rcx
	push	rbp
	push	rdi
	sub	rsp, 232				; 000000e8H
	lea	rbp, QWORD PTR [rsp+32]
	mov	rdi, rsp
	mov	ecx, 58					; 0000003aH
	mov	eax, -858993460				; ccccccccH
	rep stosd
	mov	rcx, QWORD PTR [rsp+264]
	lea	rcx, OFFSET FLAT:__85A0121E_xstring
	call	__CheckForDebuggerJustMyCode
	lea	rsp, QWORD PTR [rbp+200]
	pop	rdi
	pop	rbp
	ret	0
??1_Bxty@?$_String_val@U?$_Simple_types@D@std@@@std@@QEAA@XZ ENDP ; std::_String_val<std::_Simple_types<char> >::_Bxty::~_Bxty
_TEXT	ENDS
; Function compile flags: /Odtp /RTCsu /ZI
; File C:\Program Files (x86)\Microsoft Visual Studio\2019\Community\VC\Tools\MSVC\14.28.29333\include\xstring
;	COMDAT ?_Large_string_engaged@?$_String_val@U?$_Simple_types@D@std@@@std@@QEBA_NXZ
_TEXT	SEGMENT
tv66 = 192
this$ = 240
?_Large_string_engaged@?$_String_val@U?$_Simple_types@D@std@@@std@@QEBA_NXZ PROC ; std::_String_val<std::_Simple_types<char> >::_Large_string_engaged, COMDAT

; 2226 :     bool _Large_string_engaged() const noexcept {

$LN5:
	mov	QWORD PTR [rsp+8], rcx
	push	rbp
	push	rdi
	sub	rsp, 248				; 000000f8H
	lea	rbp, QWORD PTR [rsp+32]
	mov	rdi, rsp
	mov	ecx, 62					; 0000003eH
	mov	eax, -858993460				; ccccccccH
	rep stosd
	mov	rcx, QWORD PTR [rsp+280]
	lea	rcx, OFFSET FLAT:__85A0121E_xstring
	call	__CheckForDebuggerJustMyCode

; 2227 :         return _BUF_SIZE <= _Myres;

	mov	rax, QWORD PTR this$[rbp]
	cmp	QWORD PTR [rax+32], 16
	jb	SHORT $LN3@Large_stri
	mov	DWORD PTR tv66[rbp], 1
	jmp	SHORT $LN4@Large_stri
$LN3@Large_stri:
	mov	DWORD PTR tv66[rbp], 0
$LN4@Large_stri:
	movzx	eax, BYTE PTR tv66[rbp]

; 2228 :     }

	lea	rsp, QWORD PTR [rbp+216]
	pop	rdi
	pop	rbp
	ret	0
?_Large_string_engaged@?$_String_val@U?$_Simple_types@D@std@@@std@@QEBA_NXZ ENDP ; std::_String_val<std::_Simple_types<char> >::_Large_string_engaged
_TEXT	ENDS
; Function compile flags: /Odtp /RTCsu /ZI
; File C:\Program Files (x86)\Microsoft Visual Studio\2019\Community\VC\Tools\MSVC\14.28.29333\include\xstring
;	COMDAT ?assign@?$_Narrow_char_traits@DH@std@@SAXAEADAEBD@Z
_TEXT	SEGMENT
_Left$ = 224
_Right$ = 232
?assign@?$_Narrow_char_traits@DH@std@@SAXAEADAEBD@Z PROC ; std::_Narrow_char_traits<char,int>::assign, COMDAT

; 427  :     static _CONSTEXPR17 void assign(_Elem& _Left, const _Elem& _Right) noexcept {

$LN3:
	mov	QWORD PTR [rsp+16], rdx
	mov	QWORD PTR [rsp+8], rcx
	push	rbp
	push	rdi
	sub	rsp, 232				; 000000e8H
	lea	rbp, QWORD PTR [rsp+32]
	mov	rdi, rsp
	mov	ecx, 58					; 0000003aH
	mov	eax, -858993460				; ccccccccH
	rep stosd
	mov	rcx, QWORD PTR [rsp+264]
	lea	rcx, OFFSET FLAT:__85A0121E_xstring
	call	__CheckForDebuggerJustMyCode

; 428  :         _Left = _Right;

	mov	rax, QWORD PTR _Left$[rbp]
	mov	rcx, QWORD PTR _Right$[rbp]
	movzx	ecx, BYTE PTR [rcx]
	mov	BYTE PTR [rax], cl

; 429  :     }

	lea	rsp, QWORD PTR [rbp+200]
	pop	rdi
	pop	rbp
	ret	0
?assign@?$_Narrow_char_traits@DH@std@@SAXAEADAEBD@Z ENDP ; std::_Narrow_char_traits<char,int>::assign
_TEXT	ENDS
; Function compile flags: /Odtp /RTCsu /ZI
; File C:\Program Files (x86)\Microsoft Visual Studio\2019\Community\VC\Tools\MSVC\14.28.29333\include\xmemory
;	COMDAT ?deallocate@?$allocator@D@std@@QEAAXQEAD_K@Z
_TEXT	SEGMENT
this$ = 224
_Ptr$ = 232
_Count$ = 240
?deallocate@?$allocator@D@std@@QEAAXQEAD_K@Z PROC	; std::allocator<char>::deallocate, COMDAT

; 808  :     void deallocate(_Ty* const _Ptr, const size_t _Count) {

$LN3:
	mov	QWORD PTR [rsp+24], r8
	mov	QWORD PTR [rsp+16], rdx
	mov	QWORD PTR [rsp+8], rcx
	push	rbp
	push	rdi
	sub	rsp, 232				; 000000e8H
	lea	rbp, QWORD PTR [rsp+32]
	mov	rdi, rsp
	mov	ecx, 58					; 0000003aH
	mov	eax, -858993460				; ccccccccH
	rep stosd
	mov	rcx, QWORD PTR [rsp+264]
	lea	rcx, OFFSET FLAT:__F1739482_xmemory
	call	__CheckForDebuggerJustMyCode

; 809  :         // no overflow check on the following multiply; we assume _Allocate did that check
; 810  :         _Deallocate<_New_alignof<_Ty>>(_Ptr, sizeof(_Ty) * _Count);

	mov	rdx, QWORD PTR _Count$[rbp]
	mov	rcx, QWORD PTR _Ptr$[rbp]
	call	??$_Deallocate@$0BA@$0A@@std@@YAXPEAX_K@Z ; std::_Deallocate<16,0>

; 811  :     }

	lea	rsp, QWORD PTR [rbp+200]
	pop	rdi
	pop	rbp
	ret	0
?deallocate@?$allocator@D@std@@QEAAXQEAD_K@Z ENDP	; std::allocator<char>::deallocate
_TEXT	ENDS
; Function compile flags: /Odtp /RTCsu /ZI
; File C:\Program Files (x86)\Microsoft Visual Studio\2019\Community\VC\Tools\MSVC\14.28.29333\include\xmemory
;	COMDAT ?_Orphan_all@_Container_base12@std@@QEAAXXZ
_TEXT	SEGMENT
_Lock$4 = 4
_Pnext$5 = 40
__$ArrayPad$ = 248
this$ = 288
?_Orphan_all@_Container_base12@std@@QEAAXXZ PROC	; std::_Container_base12::_Orphan_all, COMDAT

; 1210 : inline void _Container_base12::_Orphan_all() noexcept {

$LN7:
	mov	QWORD PTR [rsp+8], rcx
	push	rbp
	push	rdi
	sub	rsp, 296				; 00000128H
	lea	rbp, QWORD PTR [rsp+32]
	mov	rdi, rsp
	mov	ecx, 74					; 0000004aH
	mov	eax, -858993460				; ccccccccH
	rep stosd
	mov	rcx, QWORD PTR [rsp+328]
	mov	rax, QWORD PTR __security_cookie
	xor	rax, rbp
	mov	QWORD PTR __$ArrayPad$[rbp], rax
	lea	rcx, OFFSET FLAT:__F1739482_xmemory
	call	__CheckForDebuggerJustMyCode

; 1211 : #if _ITERATOR_DEBUG_LEVEL == 2
; 1212 :     if (_Myproxy) { // proxy allocated, drain it

	mov	rax, QWORD PTR this$[rbp]
	cmp	QWORD PTR [rax], 0
	je	SHORT $LN5@Orphan_all

; 1213 :         _Lockit _Lock(_LOCK_DEBUG);

	mov	edx, 3
	lea	rcx, QWORD PTR _Lock$4[rbp]
	call	QWORD PTR __imp_??0_Lockit@std@@QEAA@H@Z

; 1214 : 
; 1215 :         for (auto _Pnext = &_Myproxy->_Myfirstiter; *_Pnext; *_Pnext = (*_Pnext)->_Mynextiter) {

	mov	rax, QWORD PTR this$[rbp]
	mov	rax, QWORD PTR [rax]
	add	rax, 8
	mov	QWORD PTR _Pnext$5[rbp], rax
	jmp	SHORT $LN4@Orphan_all
$LN2@Orphan_all:
	mov	rax, QWORD PTR _Pnext$5[rbp]
	mov	rax, QWORD PTR [rax]
	mov	rcx, QWORD PTR _Pnext$5[rbp]
	mov	rax, QWORD PTR [rax+8]
	mov	QWORD PTR [rcx], rax
$LN4@Orphan_all:
	mov	rax, QWORD PTR _Pnext$5[rbp]
	cmp	QWORD PTR [rax], 0
	je	SHORT $LN3@Orphan_all

; 1216 :             (*_Pnext)->_Myproxy = nullptr;

	mov	rax, QWORD PTR _Pnext$5[rbp]
	mov	rax, QWORD PTR [rax]
	mov	QWORD PTR [rax], 0

; 1217 :         }

	jmp	SHORT $LN2@Orphan_all
$LN3@Orphan_all:

; 1218 : 
; 1219 :         _Myproxy->_Myfirstiter = nullptr;

	mov	rax, QWORD PTR this$[rbp]
	mov	rax, QWORD PTR [rax]
	mov	QWORD PTR [rax+8], 0

; 1220 :     }

	lea	rcx, QWORD PTR _Lock$4[rbp]
	call	QWORD PTR __imp_??1_Lockit@std@@QEAA@XZ
$LN5@Orphan_all:

; 1221 : #endif // _ITERATOR_DEBUG_LEVEL == 2
; 1222 : }

	lea	rcx, QWORD PTR [rbp-32]
	lea	rdx, OFFSET FLAT:?_Orphan_all@_Container_base12@std@@QEAAXXZ$rtcFrameData
	call	_RTC_CheckStackVars
	mov	rcx, QWORD PTR __$ArrayPad$[rbp]
	xor	rcx, rbp
	call	__security_check_cookie
	lea	rsp, QWORD PTR [rbp+264]
	pop	rdi
	pop	rbp
	ret	0
?_Orphan_all@_Container_base12@std@@QEAAXXZ ENDP	; std::_Container_base12::_Orphan_all
_TEXT	ENDS
; Function compile flags: /Odtp /RTCsu /ZI
; File C:\Program Files (x86)\Microsoft Visual Studio\2019\Community\VC\Tools\MSVC\14.28.29333\include\xmemory
;	COMDAT ?_Adjust_manually_vector_aligned@std@@YAXAEAPEAXAEA_K@Z
_TEXT	SEGMENT
_Ptr_user$ = 8
_Ptr_container$ = 40
_Min_back_shift$ = 72
_Back_shift$ = 104
_Ptr$ = 352
_Bytes$ = 360
?_Adjust_manually_vector_aligned@std@@YAXAEAPEAXAEA_K@Z PROC ; std::_Adjust_manually_vector_aligned, COMDAT

; 132  : inline void _Adjust_manually_vector_aligned(void*& _Ptr, size_t& _Bytes) {

$LN21:
	mov	QWORD PTR [rsp+16], rdx
	mov	QWORD PTR [rsp+8], rcx
	push	rbp
	push	rdi
	sub	rsp, 376				; 00000178H
	lea	rbp, QWORD PTR [rsp+48]
	mov	rdi, rsp
	mov	ecx, 94					; 0000005eH
	mov	eax, -858993460				; ccccccccH
	rep stosd
	mov	rcx, QWORD PTR [rsp+408]
	lea	rcx, OFFSET FLAT:__F1739482_xmemory
	call	__CheckForDebuggerJustMyCode

; 133  :     // adjust parameters from _Allocate_manually_vector_aligned to pass to operator delete
; 134  :     _Bytes += _Non_user_size;

	mov	rax, QWORD PTR _Bytes$[rbp]
	mov	rax, QWORD PTR [rax]
	add	rax, 47					; 0000002fH
	mov	rcx, QWORD PTR _Bytes$[rbp]
	mov	QWORD PTR [rcx], rax

; 135  : 
; 136  :     const uintptr_t* const _Ptr_user = reinterpret_cast<uintptr_t*>(_Ptr);

	mov	rax, QWORD PTR _Ptr$[rbp]
	mov	rax, QWORD PTR [rax]
	mov	QWORD PTR _Ptr_user$[rbp], rax

; 137  :     const uintptr_t _Ptr_container   = _Ptr_user[-1];

	mov	eax, 8
	imul	rax, rax, -1
	mov	rcx, QWORD PTR _Ptr_user$[rbp]
	mov	rax, QWORD PTR [rcx+rax]
	mov	QWORD PTR _Ptr_container$[rbp], rax
$LN4@Adjust_man:

; 138  : 
; 139  :     // If the following asserts, it likely means that we are performing
; 140  :     // an aligned delete on memory coming from an unaligned allocation.
; 141  :     _STL_ASSERT(_Ptr_user[-2] == _Big_allocation_sentinel, "invalid argument");

	mov	eax, 8
	imul	rax, rax, -2
	mov	rcx, QWORD PTR _Ptr_user$[rbp]
	mov	rdx, -361700864190383366		; fafafafafafafafaH
	cmp	QWORD PTR [rcx+rax], rdx
	jne	SHORT $LN14@Adjust_man
	jmp	SHORT $LN15@Adjust_man
$LN14@Adjust_man:
$LN7@Adjust_man:
	mov	eax, DWORD PTR ?__LINE__Var@?0??_Adjust_manually_vector_aligned@std@@YAXAEAPEAXAEA_K@Z@4JA
	add	eax, 9
	lea	rcx, OFFSET FLAT:??_C@_0BB@FCMFBGOM@invalid?5argument@
	mov	QWORD PTR [rsp+40], rcx
	lea	rcx, OFFSET FLAT:??_C@_02DKCKIIND@?$CFs@
	mov	QWORD PTR [rsp+32], rcx
	xor	r9d, r9d
	mov	r8d, eax
	lea	rdx, OFFSET FLAT:??_C@_0GI@CLKHGMEI@C?3?2Program?5Files?5?$CIx86?$CJ?2Microsof@
	mov	ecx, 2
	call	QWORD PTR __imp__CrtDbgReport
	cmp	eax, 1
	jne	SHORT $LN19@Adjust_man
	int	3
	xor	eax, eax
$LN19@Adjust_man:
	mov	eax, DWORD PTR ?__LINE__Var@?0??_Adjust_manually_vector_aligned@std@@YAXAEAPEAXAEA_K@Z@4JA
	add	eax, 9
	mov	QWORD PTR [rsp+32], 0
	mov	r9d, eax
	lea	r8, OFFSET FLAT:??_C@_1NA@PDNNFCLD@?$AAC?$AA?3?$AA?2?$AAP?$AAr?$AAo?$AAg?$AAr?$AAa?$AAm?$AA?5?$AAF?$AAi?$AAl?$AAe@
	lea	rdx, OFFSET FLAT:??_C@_1EK@NIFDJFDG@?$AAs?$AAt?$AAd?$AA?3?$AA?3?$AA_?$AAA?$AAd?$AAj?$AAu?$AAs?$AAt?$AA_?$AAm?$AAa@
	lea	rcx, OFFSET FLAT:??_C@_1CG@JNLFBNGN@?$AA?$CC?$AAi?$AAn?$AAv?$AAa?$AAl?$AAi?$AAd?$AA?5?$AAa?$AAr?$AAg?$AAu?$AAm?$AAe@
	call	QWORD PTR __imp__invalid_parameter
	xor	eax, eax
	test	eax, eax
	jne	SHORT $LN7@Adjust_man
$LN15@Adjust_man:
	xor	eax, eax
	test	eax, eax
	jne	$LN4@Adjust_man

; 142  : 
; 143  :     // Extra paranoia on aligned allocation/deallocation; ensure _Ptr_container is
; 144  :     // in range [_Min_back_shift, _Non_user_size]
; 145  : #ifdef _DEBUG
; 146  :     constexpr uintptr_t _Min_back_shift = 2 * sizeof(void*);

	mov	QWORD PTR _Min_back_shift$[rbp], 16

; 147  : #else // ^^^ _DEBUG ^^^ // vvv !_DEBUG vvv
; 148  :     constexpr uintptr_t _Min_back_shift = sizeof(void*);
; 149  : #endif // _DEBUG
; 150  :     const uintptr_t _Back_shift = reinterpret_cast<uintptr_t>(_Ptr) - _Ptr_container;

	mov	rax, QWORD PTR _Ptr$[rbp]
	mov	rcx, QWORD PTR _Ptr_container$[rbp]
	mov	rax, QWORD PTR [rax]
	sub	rax, rcx
	mov	QWORD PTR _Back_shift$[rbp], rax
$LN10@Adjust_man:

; 151  :     _STL_VERIFY(_Back_shift >= _Min_back_shift && _Back_shift <= _Non_user_size, "invalid argument");

	cmp	QWORD PTR _Back_shift$[rbp], 16
	jb	SHORT $LN16@Adjust_man
	cmp	QWORD PTR _Back_shift$[rbp], 47		; 0000002fH
	ja	SHORT $LN16@Adjust_man
	jmp	SHORT $LN17@Adjust_man
$LN16@Adjust_man:
$LN13@Adjust_man:
	mov	eax, DWORD PTR ?__LINE__Var@?0??_Adjust_manually_vector_aligned@std@@YAXAEAPEAXAEA_K@Z@4JA
	add	eax, 19
	lea	rcx, OFFSET FLAT:??_C@_0BB@FCMFBGOM@invalid?5argument@
	mov	QWORD PTR [rsp+40], rcx
	lea	rcx, OFFSET FLAT:??_C@_02DKCKIIND@?$CFs@
	mov	QWORD PTR [rsp+32], rcx
	xor	r9d, r9d
	mov	r8d, eax
	lea	rdx, OFFSET FLAT:??_C@_0GI@CLKHGMEI@C?3?2Program?5Files?5?$CIx86?$CJ?2Microsof@
	mov	ecx, 2
	call	QWORD PTR __imp__CrtDbgReport
	cmp	eax, 1
	jne	SHORT $LN20@Adjust_man
	int	3
	xor	eax, eax
$LN20@Adjust_man:
	mov	eax, DWORD PTR ?__LINE__Var@?0??_Adjust_manually_vector_aligned@std@@YAXAEAPEAXAEA_K@Z@4JA
	add	eax, 19
	mov	QWORD PTR [rsp+32], 0
	mov	r9d, eax
	lea	r8, OFFSET FLAT:??_C@_1NA@PDNNFCLD@?$AAC?$AA?3?$AA?2?$AAP?$AAr?$AAo?$AAg?$AAr?$AAa?$AAm?$AA?5?$AAF?$AAi?$AAl?$AAe@
	lea	rdx, OFFSET FLAT:??_C@_1EK@NIFDJFDG@?$AAs?$AAt?$AAd?$AA?3?$AA?3?$AA_?$AAA?$AAd?$AAj?$AAu?$AAs?$AAt?$AA_?$AAm?$AAa@
	lea	rcx, OFFSET FLAT:??_C@_1CG@JNLFBNGN@?$AA?$CC?$AAi?$AAn?$AAv?$AAa?$AAl?$AAi?$AAd?$AA?5?$AAa?$AAr?$AAg?$AAu?$AAm?$AAe@
	call	QWORD PTR __imp__invalid_parameter
	xor	eax, eax
	test	eax, eax
	jne	SHORT $LN13@Adjust_man
$LN17@Adjust_man:
	xor	eax, eax
	test	eax, eax
	jne	$LN10@Adjust_man

; 152  :     _Ptr = reinterpret_cast<void*>(_Ptr_container);

	mov	rax, QWORD PTR _Ptr$[rbp]
	mov	rcx, QWORD PTR _Ptr_container$[rbp]
	mov	QWORD PTR [rax], rcx

; 153  : }

	lea	rsp, QWORD PTR [rbp+328]
	pop	rdi
	pop	rbp
	ret	0
?_Adjust_manually_vector_aligned@std@@YAXAEAPEAXAEA_K@Z ENDP ; std::_Adjust_manually_vector_aligned
_TEXT	ENDS
; Function compile flags: /Odtp /RTCsu /ZI
; File D:\Users\krunk\Documents\Visual Studio 2019\Projects\Fall 2020\CPSC-462-GROUP-2\C++ Development Root\SourceCode\Domain\Subscription\SubscriptionHandler.cpp
;	COMDAT ?__empty_global_delete@@YAXPEAX_KW4align_val_t@std@@@Z
_TEXT	SEGMENT
__formal$ = 224
__formal$ = 232
__formal$ = 240
?__empty_global_delete@@YAXPEAX_KW4align_val_t@std@@@Z PROC ; __empty_global_delete, COMDAT

$LN3:
	mov	QWORD PTR [rsp+24], r8
	mov	QWORD PTR [rsp+16], rdx
	mov	QWORD PTR [rsp+8], rcx
	push	rbp
	push	rdi
	sub	rsp, 232				; 000000e8H
	lea	rbp, QWORD PTR [rsp+32]
	mov	rdi, rsp
	mov	ecx, 58					; 0000003aH
	mov	eax, -858993460				; ccccccccH
	rep stosd
	mov	rcx, QWORD PTR [rsp+264]
	lea	rcx, OFFSET FLAT:__89F77DF8_SubscriptionHandler@cpp
	call	__CheckForDebuggerJustMyCode
	lea	rsp, QWORD PTR [rbp+200]
	pop	rdi
	pop	rbp
	ret	0
?__empty_global_delete@@YAXPEAX_KW4align_val_t@std@@@Z ENDP ; __empty_global_delete
_TEXT	ENDS
; Function compile flags: /Odtp /RTCsu /ZI
; File D:\Users\krunk\Documents\Visual Studio 2019\Projects\Fall 2020\CPSC-462-GROUP-2\C++ Development Root\SourceCode\Domain\Subscription\SubscriptionHandler.cpp
;	COMDAT ?__empty_global_delete@@YAXPEAXW4align_val_t@std@@@Z
_TEXT	SEGMENT
__formal$ = 224
__formal$ = 232
?__empty_global_delete@@YAXPEAXW4align_val_t@std@@@Z PROC ; __empty_global_delete, COMDAT

$LN3:
	mov	QWORD PTR [rsp+16], rdx
	mov	QWORD PTR [rsp+8], rcx
	push	rbp
	push	rdi
	sub	rsp, 232				; 000000e8H
	lea	rbp, QWORD PTR [rsp+32]
	mov	rdi, rsp
	mov	ecx, 58					; 0000003aH
	mov	eax, -858993460				; ccccccccH
	rep stosd
	mov	rcx, QWORD PTR [rsp+264]
	lea	rcx, OFFSET FLAT:__89F77DF8_SubscriptionHandler@cpp
	call	__CheckForDebuggerJustMyCode
	lea	rsp, QWORD PTR [rbp+200]
	pop	rdi
	pop	rbp
	ret	0
?__empty_global_delete@@YAXPEAXW4align_val_t@std@@@Z ENDP ; __empty_global_delete
_TEXT	ENDS
; Function compile flags: /Odtp /RTCsu /ZI
; File D:\Users\krunk\Documents\Visual Studio 2019\Projects\Fall 2020\CPSC-462-GROUP-2\C++ Development Root\SourceCode\Domain\Subscription\SubscriptionHandler.cpp
;	COMDAT ?__empty_global_delete@@YAXPEAX_K@Z
_TEXT	SEGMENT
__formal$ = 224
__formal$ = 232
?__empty_global_delete@@YAXPEAX_K@Z PROC		; __empty_global_delete, COMDAT

$LN3:
	mov	QWORD PTR [rsp+16], rdx
	mov	QWORD PTR [rsp+8], rcx
	push	rbp
	push	rdi
	sub	rsp, 232				; 000000e8H
	lea	rbp, QWORD PTR [rsp+32]
	mov	rdi, rsp
	mov	ecx, 58					; 0000003aH
	mov	eax, -858993460				; ccccccccH
	rep stosd
	mov	rcx, QWORD PTR [rsp+264]
	lea	rcx, OFFSET FLAT:__89F77DF8_SubscriptionHandler@cpp
	call	__CheckForDebuggerJustMyCode
	lea	rsp, QWORD PTR [rbp+200]
	pop	rdi
	pop	rbp
	ret	0
?__empty_global_delete@@YAXPEAX_K@Z ENDP		; __empty_global_delete
_TEXT	ENDS
; Function compile flags: /Odtp /RTCsu /ZI
; File D:\Users\krunk\Documents\Visual Studio 2019\Projects\Fall 2020\CPSC-462-GROUP-2\C++ Development Root\SourceCode\Domain\Subscription\SubscriptionHandler.cpp
;	COMDAT ?__empty_global_delete@@YAXPEAX@Z
_TEXT	SEGMENT
__formal$ = 224
?__empty_global_delete@@YAXPEAX@Z PROC			; __empty_global_delete, COMDAT

$LN3:
	mov	QWORD PTR [rsp+8], rcx
	push	rbp
	push	rdi
	sub	rsp, 232				; 000000e8H
	lea	rbp, QWORD PTR [rsp+32]
	mov	rdi, rsp
	mov	ecx, 58					; 0000003aH
	mov	eax, -858993460				; ccccccccH
	rep stosd
	mov	rcx, QWORD PTR [rsp+264]
	lea	rcx, OFFSET FLAT:__89F77DF8_SubscriptionHandler@cpp
	call	__CheckForDebuggerJustMyCode
	lea	rsp, QWORD PTR [rbp+200]
	pop	rdi
	pop	rbp
	ret	0
?__empty_global_delete@@YAXPEAX@Z ENDP			; __empty_global_delete
_TEXT	ENDS
END
