 ConsoleApplication-x64-Debug

 Timestamp is 5f87af92 (Wed Oct 14 19:10:26 2020)

 Preferred load address is 0000000140000000

 Start         Length     Name                   Class
 0001:00000000 0001fd2dH .textbss                DATA
 0002:00000000 00005720H .text$di                CODE
 0002:00005720 0003db20H .text$mn                CODE
 0002:00043240 00001040H .text$mn$00             CODE
 0002:00044280 00004b40H .text$x                 CODE
 0002:00048dc0 000010c1H .text$yd                CODE
 0003:00000000 00000110H .CRT$XCA                DATA
 0003:00000110 00000110H .CRT$XCAA               DATA
 0003:00000220 00000110H .CRT$XCL                DATA
 0003:00000330 00000110H .CRT$XCU                DATA
 0003:00000440 00000110H .CRT$XCZ                DATA
 0003:00000550 00000110H .CRT$XIA                DATA
 0003:00000660 00000110H .CRT$XIAA               DATA
 0003:00000770 00000110H .CRT$XIAC               DATA
 0003:00000880 00000110H .CRT$XIC                DATA
 0003:00000990 00000110H .CRT$XIZ                DATA
 0003:00000aa0 00000008H .CRT$XLA                DATA
 0003:00000aa8 00000008H .CRT$XLZ                DATA
 0003:00000ab0 00000110H .CRT$XPA                DATA
 0003:00000bc0 00000110H .CRT$XPZ                DATA
 0003:00000cd0 00000110H .CRT$XTA                DATA
 0003:00000de0 00000110H .CRT$XTZ                DATA
 0003:00000ef0 000091d8H .rdata                  DATA
 0003:0000a0c8 00000130H .rdata$T                DATA
 0003:0000a1f8 000018f8H .rdata$r                DATA
 0003:0000baf0 00000208H .rdata$zzzdbg           DATA
 0003:0000bcf8 00000110H .rtc$IAA                DATA
 0003:0000be08 000001b0H .rtc$IMZ                DATA
 0003:0000bfb8 00000110H .rtc$IZZ                DATA
 0003:0000c0c8 00000110H .rtc$TAA                DATA
 0003:0000c1d8 000001b0H .rtc$TMZ                DATA
 0003:0000c388 00000110H .rtc$TZZ                DATA
 0003:0000c498 0000ad60H .xdata                  DATA
 0003:000171f8 000006a1H .xdata$x                DATA
 0003:00017899 00000000H .edata                  DATA
 0004:00000000 00000180H .data                   DATA
 0004:00000180 00000cd0H .data$r                 DATA
 0004:00000e50 000008e8H .bss                    DATA
 0005:00000000 000068a0H .pdata                  DATA
 0006:00000000 00000920H .idata$5                DATA
 0006:00000920 00000064H .idata$2                DATA
 0006:00000984 00000014H .idata$3                DATA
 0006:00000998 00000920H .idata$4                DATA
 0006:000012b8 000020dfH .idata$6                DATA
 0007:00000000 000003ccH .msvcjmc                DATA
 0008:00000000 00000104H .tls                    DATA
 0008:00000104 00000104H .tls$                   DATA
 0008:00000208 00000101H .tls$ZZZ                DATA
 0009:00000000 00000151H .00cfg                  DATA
 000a:00000000 00000170H .rsrc$01                DATA
 000a:00000170 000002ccH .rsrc$02                DATA

  Address         Publics by Value              Rva+Base               Lib:Object

 0000:00000000       __hybrid_auxiliary_iat     0000000000000000     <absolute>
 0000:00000000       __guard_iat_count          0000000000000000     <absolute>
 0000:00000000       __arm64x_redirection_metadata_count 0000000000000000     <absolute>
 0000:00000000       __arm64x_extra_rfe_table   0000000000000000     <absolute>
 0000:00000000       __guard_iat_table          0000000000000000     <absolute>
 0000:00000000       __AbsoluteZero             0000000000000000     <absolute>
 0000:00000000       ___safe_se_handler_table   0000000000000000     <absolute>
 0000:00000000       __guard_eh_cont_count      0000000000000000     <absolute>
 0000:00000000       __guard_longjmp_count      0000000000000000     <absolute>
 0000:00000000       __dynamic_value_reloc_table 0000000000000000     <absolute>
 0000:00000000       __arm64x_native_entrypoint 0000000000000000     <absolute>
 0000:00000000       __volatile_metadata        0000000000000000     <absolute>
 0000:00000000       __enclave_config           0000000000000000     <absolute>
 0000:00000000       __arm64x_redirection_metadata 0000000000000000     <absolute>
 0000:00000000       __arm64x_extra_rfe_table_size 0000000000000000     <absolute>
 0000:00000000       __guard_longjmp_table      0000000000000000     <absolute>
 0000:00000000       ___safe_se_handler_count   0000000000000000     <absolute>
 0000:00000000       __x64_code_ranges_to_entry_points 0000000000000000     <absolute>
 0000:00000000       __guard_fids_count         0000000000000000     <absolute>
 0000:00000000       __x64_code_ranges_to_entry_points_count 0000000000000000     <absolute>
 0000:00000000       __guard_eh_cont_table      0000000000000000     <absolute>
 0000:00000000       __hybrid_code_map          0000000000000000     <absolute>
 0000:00000000       __hybrid_code_map_count    0000000000000000     <absolute>
 0000:00000000       __guard_fids_table         0000000000000000     <absolute>
 0000:00000100       __guard_flags              0000000000000100     <absolute>
 0000:00000000       __ImageBase                0000000140000000     <linker-defined>
 0001:00000000       __enc$textbss$begin        0000000140001000     <linker-defined>
 0001:0001fd2d       __enc$textbss$end          0000000140020d2d     <linker-defined>
 0002:00005720       ??$?0$$V@?$_Compressed_pair@U?$default_delete@VClientHandler@Client@Domain@@@std@@PEAVClientHandler@Client@Domain@@$00@std@@QEAA@U_Zero_then_variadic_args_t@1@@Z 0000000140026720 f i ClientHandler.obj
 0002:00005790       ??$?0AEAPEAUClientSession@Client@Domain@@@?$_Compressed_pair@U?$default_delete@UClientSession@Client@Domain@@@std@@PEAUClientSession@Client@Domain@@$00@std@@QEAA@U_Zero_then_variadic_args_t@1@AEAPEAUClientSession@Client@Domain@@@Z 0000000140026790 f i ClientHandler.obj
 0002:00005820       ??$?0U?$default_delete@UClientSession@Client@Domain@@@std@@$0A@@?$unique_ptr@UClientSession@Client@Domain@@U?$default_delete@UClientSession@Client@Domain@@@std@@@std@@QEAA@PEAUClientSession@Client@Domain@@@Z 0000000140026820 f i ClientHandler.obj
 0002:000058c0       ??$?0U?$default_delete@UClientSession@Client@Domain@@@std@@PEAUClientSession@Client@Domain@@@?$_Compressed_pair@U?$default_delete@VClientHandler@Client@Domain@@@std@@PEAVClientHandler@Client@Domain@@$00@std@@QEAA@U_One_then_variadic_args_t@1@$$QEAU?$default_delete@UClientSession@Client@Domain@@@1@$$QEAPEAUClientSession@Client@Domain@@@Z 00000001400268c0 f i ClientHandler.obj
 0002:00005970       ??$?0U?$default_delete@VClientHandler@Client@Domain@@@std@@$0A@@?$unique_ptr@VClientHandler@Client@Domain@@U?$default_delete@VClientHandler@Client@Domain@@@std@@@std@@QEAA@$$T@Z 0000000140026970 f i ClientHandler.obj
 0002:00005a00       ??$?0UClientSession@Client@Domain@@$0A@@?$default_delete@VClientHandler@Client@Domain@@@std@@QEAA@AEBU?$default_delete@UClientSession@Client@Domain@@@1@@Z 0000000140026a00 f i ClientHandler.obj
 0002:00005a60       ??$?0UClientSession@Client@Domain@@U?$default_delete@UClientSession@Client@Domain@@@std@@$0A@@?$unique_ptr@VClientHandler@Client@Domain@@U?$default_delete@VClientHandler@Client@Domain@@@std@@@std@@QEAA@$$QEAV?$unique_ptr@UClientSession@Client@Domain@@U?$default_delete@UClientSession@Client@Domain@@@std@@@1@@Z 0000000140026a60 f i ClientHandler.obj
 0002:00005b50       ??$?8DU?$char_traits@D@std@@V?$allocator@D@1@@std@@YA_NAEBV?$basic_string@DU?$char_traits@D@std@@V?$allocator@D@2@@0@QEBD@Z 0000000140026b50 f i ClientHandler.obj
 0002:00005bc0       ??$?9DU?$char_traits@D@std@@V?$allocator@D@1@@std@@YA_NAEBV?$basic_string@DU?$char_traits@D@std@@V?$allocator@D@2@@0@QEBD@Z 0000000140026bc0 f i ClientHandler.obj
 0002:00005c60       ??$_Traits_equal@U?$char_traits@D@std@@@std@@YA_NQEBD_K01@Z 0000000140026c60 f i ClientHandler.obj
 0002:00005d20       ??$_Unfancy@D@std@@YAPEADPEAD@Z 0000000140026d20 f i ClientHandler.obj
 0002:00005d80       ??$exchange@PEAUClientSession@Client@Domain@@PEAU123@@std@@YAPEAUClientSession@Client@Domain@@AEAPEAU123@$$QEAPEAU123@@Z 0000000140026d80 f i ClientHandler.obj
 0002:00005e10       ??$forward@AEAPEAUClientSession@Client@Domain@@@std@@YAAEAPEAUClientSession@Client@Domain@@AEAPEAU123@@Z 0000000140026e10 f i ClientHandler.obj
 0002:00005e70       ??$forward@AEBUClient@Persistence@TechnicalServices@@@std@@YAAEBUClient@Persistence@TechnicalServices@@AEBU123@@Z 0000000140026e70 f i ClientHandler.obj
 0002:00005ed0       ??$forward@PEAUClientSession@Client@Domain@@@std@@YA$$QEAPEAUClientSession@Client@Domain@@AEAPEAU123@@Z 0000000140026ed0 f i ClientHandler.obj
 0002:00005f30       ??$forward@U?$default_delete@UClientSession@Client@Domain@@@std@@@std@@YA$$QEAU?$default_delete@UClientSession@Client@Domain@@@0@AEAU10@@Z 0000000140026f30 f i ClientHandler.obj
 0002:00005f90       ??$make_unique@UClientSession@Client@Domain@@AEBU2Persistence@TechnicalServices@@$0A@@std@@YA?AV?$unique_ptr@UClientSession@Client@Domain@@U?$default_delete@UClientSession@Client@Domain@@@std@@@0@AEBUClient@Persistence@TechnicalServices@@@Z 0000000140026f90 f i ClientHandler.obj
 0002:000060b0       ??1?$unique_ptr@UClientSession@Client@Domain@@U?$default_delete@UClientSession@Client@Domain@@@std@@@std@@QEAA@XZ 00000001400270b0 f i ClientHandler.obj
 0002:00006160       ??1ClientHandler@Client@Domain@@UEAA@XZ 0000000140027160 f   ClientHandler.obj
 0002:000061d0       ??R?$default_delete@UClientSession@Client@Domain@@@std@@QEBAXPEAUClientSession@Client@Domain@@@Z 00000001400271d0 f i ClientHandler.obj
 0002:00006290       ?_Equal@?$basic_string@DU?$char_traits@D@std@@V?$allocator@D@2@@std@@QEBA_NQEBD@Z 0000000140027290 f i ClientHandler.obj
 0002:00006360       ?_Get_first@?$_Compressed_pair@U?$default_delete@UClientSession@Client@Domain@@@std@@PEAUClientSession@Client@Domain@@$00@std@@QEAAAEAU?$default_delete@UClientSession@Client@Domain@@@2@XZ 0000000140027360 f i ClientHandler.obj
 0002:000063c0       ?_Large_string_engaged@?$_String_val@U?$_Simple_types@D@std@@@std@@QEBA_NXZ 00000001400273c0 f i ClientHandler.obj
 0002:00006450       ?_Myptr@?$_String_val@U?$_Simple_types@D@std@@@std@@QEBAPEBDXZ 0000000140027450 f i ClientHandler.obj
 0002:000064f0       ?__empty_global_delete@@YAXPEAX@Z 00000001400274f0 f i ClientHandler.obj
 0002:00006550       ?__empty_global_delete@@YAXPEAXW4align_val_t@std@@@Z 0000000140027550 f i ClientHandler.obj
 0002:000065b0       ?__global_delete@@YAXPEAX_K@Z 00000001400275b0 f i ClientHandler.obj
 0002:000065b0       ?__empty_global_delete@@YAXPEAX_K@Z 00000001400275b0 f i ClientHandler.obj
 0002:00006610       ?__empty_global_delete@@YAXPEAX_KW4align_val_t@std@@@Z 0000000140027610 f i ClientHandler.obj
 0002:00006670       ?compare@?$_Narrow_char_traits@DH@std@@SAHQEBD0_K@Z 0000000140027670 f i ClientHandler.obj
 0002:000066f0       ?createClient@ClientHandler@Client@Domain@@SA?AV?$unique_ptr@VClientHandler@Client@Domain@@U?$default_delete@VClientHandler@Client@Domain@@@std@@@std@@AEBU2Persistence@TechnicalServices@@@Z 00000001400276f0 f   ClientHandler.obj
 0002:00006820       ?get_deleter@?$unique_ptr@UClientSession@Client@Domain@@U?$default_delete@UClientSession@Client@Domain@@@std@@@std@@QEAAAEAU?$default_delete@UClientSession@Client@Domain@@@2@XZ 0000000140027820 f i ClientHandler.obj
 0002:00006890       ?length@?$_Narrow_char_traits@DH@std@@SA_KQEBD@Z 0000000140027890 f i ClientHandler.obj
 0002:00006930       ?release@?$unique_ptr@UClientSession@Client@Domain@@U?$default_delete@UClientSession@Client@Domain@@@std@@@std@@QEAAPEAUClientSession@Client@Domain@@XZ 0000000140027930 f i ClientHandler.obj
 0002:000069b0       __JustMyCode_Default       00000001400279b0 f i ClientHandler.obj
 0002:000069c0       ??$_Destroy_impl@V?$basic_string@DU?$char_traits@D@std@@V?$allocator@D@2@@std@@@_Any_small_RTTI@std@@SAXQEAX@Z 00000001400279c0 f i Session.obj
 0002:00006a20       ??$_Copy_impl@V?$basic_string@DU?$char_traits@D@std@@V?$allocator@D@2@@std@@@_Any_small_RTTI@std@@SAXQEAXQEBX@Z 0000000140027a20 f i Session.obj
 0002:00006a90       ??$_Move_impl@V?$basic_string@DU?$char_traits@D@std@@V?$allocator@D@2@@std@@@_Any_small_RTTI@std@@SAXQEAX0@Z 0000000140027a90 f i Session.obj
 0002:00006b10       ??$?0$$V@?$_Compressed_pair@V?$allocator@D@std@@V?$_String_val@U?$_Simple_types@D@std@@@2@$00@std@@QEAA@U_Zero_then_variadic_args_t@1@@Z 0000000140027b10 f i Session.obj
 0002:00006b90       ??$?0$$V@?$_Compressed_pair@V?$allocator@U?$_Tree_node@U?$pair@$$CBV?$basic_string@DU?$char_traits@D@std@@V?$allocator@D@2@@std@@P6A?AVany@2@AEAVSessionBase@Session@Domain@@AEBV?$vector@V?$basic_string@DU?$char_traits@D@std@@V?$allocator@D@2@@std@@V?$allocator@V?$basic_string@DU?$char_traits@D@std@@V?$allocator@D@2@@std@@@2@@2@@Z@std@@PEAX@std@@@std@@V?$_Tree_val@U?$_Tree_simple_types@U?$pair@$$CBV?$basic_string@DU?$char_traits@D@std@@V?$allocator@D@2@@std@@P6A?AVany@2@AEAVSessionBase@Session@Domain@@AEBV?$vector@V?$basic_string@DU?$char_traits@D@std@@V?$allocator@D@2@@std@@V?$allocator@V?$basic_string@DU?$char_traits@D@std@@V?$allocator@D@2@@std@@@2@@2@@Z@std@@@std@@@2@$00@std@@QEAA@U_Zero_then_variadic_args_t@1@@Z 0000000140027b90 f i Session.obj
 0002:00006c10       ??$?0$$V@?$_Compressed_pair@V?$allocator@UClient@Persistence@TechnicalServices@@@std@@V?$_Vector_val@U?$_Simple_types@UClient@Persistence@TechnicalServices@@@std@@@2@$00@std@@QEAA@U_Zero_then_variadic_args_t@1@@Z 0000000140027c10 f i Session.obj
 0002:00006c90       ??$?0$$V@?$_Compressed_pair@V?$allocator@V?$basic_string@DU?$char_traits@D@std@@V?$allocator@D@2@@std@@@std@@V?$_Vector_val@U?$_Simple_types@V?$basic_string@DU?$char_traits@D@std@@V?$allocator@D@2@@std@@@std@@@2@$00@std@@QEAA@U_Zero_then_variadic_args_t@1@@Z 0000000140027c90 f i Session.obj
 0002:00006d10       ??$?0AEAY04$$CBD$0A@@any@std@@QEAA@AEAY04$$CBD@Z 0000000140027d10 f i Session.obj
 0002:00006db0       ??$?0AEAY09$$CBDA6A?AVany@std@@AEAVSessionBase@Session@Domain@@AEBV?$vector@V?$basic_string@DU?$char_traits@D@std@@V?$allocator@D@2@@std@@V?$allocator@V?$basic_string@DU?$char_traits@D@std@@V?$allocator@D@2@@std@@@2@@1@@Z$0A@@?$pair@$$CBV?$basic_string@DU?$char_traits@D@std@@V?$allocator@D@2@@std@@P6A?AVany@2@AEAVSessionBase@Session@Domain@@AEBV?$vector@V?$basic_string@DU?$char_traits@D@std@@V?$allocator@D@2@@std@@V?$allocator@V?$basic_string@DU?$char_traits@D@std@@V?$allocator@D@2@@std@@@2@@2@@Z@std@@QEAA@AEAY09$$CBDA6A?AVany@1@AEAVSessionBase@Session@Domain@@AEBV?$vector@V?$basic_string@DU?$char_traits@D@std@@V?$allocator@D@2@@std@@V?$allocator@V?$basic_string@DU?$char_traits@D@std@@V?$allocator@D@2@@std@@@2@@1@@Z@Z 0000000140027db0 f i Session.obj
 0002:00006e70       ??$?0AEAY0BA@$$CBDA6A?AVany@std@@AEAVSessionBase@Session@Domain@@AEBV?$vector@V?$basic_string@DU?$char_traits@D@std@@V?$allocator@D@2@@std@@V?$allocator@V?$basic_string@DU?$char_traits@D@std@@V?$allocator@D@2@@std@@@2@@1@@Z$0A@@?$pair@$$CBV?$basic_string@DU?$char_traits@D@std@@V?$allocator@D@2@@std@@P6A?AVany@2@AEAVSessionBase@Session@Domain@@AEBV?$vector@V?$basic_string@DU?$char_traits@D@std@@V?$allocator@D@2@@std@@V?$allocator@V?$basic_string@DU?$char_traits@D@std@@V?$allocator@D@2@@std@@@2@@2@@Z@std@@QEAA@AEAY0BA@$$CBDA6A?AVany@1@AEAVSessionBase@Session@Domain@@AEBV?$vector@V?$basic_string@DU?$char_traits@D@std@@V?$allocator@D@2@@std@@V?$allocator@V?$basic_string@DU?$char_traits@D@std@@V?$allocator@D@2@@std@@@2@@1@@Z@Z 0000000140027e70 f i Session.obj
 0002:00006f30       ??$?0AEAY0BB@$$CBDA6A?AVany@std@@AEAVSessionBase@Session@Domain@@AEBV?$vector@V?$basic_string@DU?$char_traits@D@std@@V?$allocator@D@2@@std@@V?$allocator@V?$basic_string@DU?$char_traits@D@std@@V?$allocator@D@2@@std@@@2@@1@@Z$0A@@?$pair@$$CBV?$basic_string@DU?$char_traits@D@std@@V?$allocator@D@2@@std@@P6A?AVany@2@AEAVSessionBase@Session@Domain@@AEBV?$vector@V?$basic_string@DU?$char_traits@D@std@@V?$allocator@D@2@@std@@V?$allocator@V?$basic_string@DU?$char_traits@D@std@@V?$allocator@D@2@@std@@@2@@2@@Z@std@@QEAA@AEAY0BB@$$CBDA6A?AVany@1@AEAVSessionBase@Session@Domain@@AEBV?$vector@V?$basic_string@DU?$char_traits@D@std@@V?$allocator@D@2@@std@@V?$allocator@V?$basic_string@DU?$char_traits@D@std@@V?$allocator@D@2@@std@@@2@@1@@Z@Z 0000000140027f30 f i Session.obj
 0002:00006ff0       ??$?0AEAY0BE@$$CBDA6A?AVany@std@@AEAVSessionBase@Session@Domain@@AEBV?$vector@V?$basic_string@DU?$char_traits@D@std@@V?$allocator@D@2@@std@@V?$allocator@V?$basic_string@DU?$char_traits@D@std@@V?$allocator@D@2@@std@@@2@@1@@Z$0A@@?$pair@$$CBV?$basic_string@DU?$char_traits@D@std@@V?$allocator@D@2@@std@@P6A?AVany@2@AEAVSessionBase@Session@Domain@@AEBV?$vector@V?$basic_string@DU?$char_traits@D@std@@V?$allocator@D@2@@std@@V?$allocator@V?$basic_string@DU?$char_traits@D@std@@V?$allocator@D@2@@std@@@2@@2@@Z@std@@QEAA@AEAY0BE@$$CBDA6A?AVany@1@AEAVSessionBase@Session@Domain@@AEBV?$vector@V?$basic_string@DU?$char_traits@D@std@@V?$allocator@D@2@@std@@V?$allocator@V?$basic_string@DU?$char_traits@D@std@@V?$allocator@D@2@@std@@@2@@1@@Z@Z 0000000140027ff0 f i Session.obj
 0002:000070b0       ??$?0AEAY0BH@$$CBDA6A?AVany@std@@AEAVSessionBase@Session@Domain@@AEBV?$vector@V?$basic_string@DU?$char_traits@D@std@@V?$allocator@D@2@@std@@V?$allocator@V?$basic_string@DU?$char_traits@D@std@@V?$allocator@D@2@@std@@@2@@1@@Z$0A@@?$pair@$$CBV?$basic_string@DU?$char_traits@D@std@@V?$allocator@D@2@@std@@P6A?AVany@2@AEAVSessionBase@Session@Domain@@AEBV?$vector@V?$basic_string@DU?$char_traits@D@std@@V?$allocator@D@2@@std@@V?$allocator@V?$basic_string@DU?$char_traits@D@std@@V?$allocator@D@2@@std@@@2@@2@@Z@std@@QEAA@AEAY0BH@$$CBDA6A?AVany@1@AEAVSessionBase@Session@Domain@@AEBV?$vector@V?$basic_string@DU?$char_traits@D@std@@V?$allocator@D@2@@std@@V?$allocator@V?$basic_string@DU?$char_traits@D@std@@V?$allocator@D@2@@std@@@2@@1@@Z@Z 00000001400280b0 f i Session.obj
 0002:00007170       ??$?0AEAY0O@$$CBDA6A?AVany@std@@AEAVSessionBase@Session@Domain@@AEBV?$vector@V?$basic_string@DU?$char_traits@D@std@@V?$allocator@D@2@@std@@V?$allocator@V?$basic_string@DU?$char_traits@D@std@@V?$allocator@D@2@@std@@@2@@1@@Z$0A@@?$pair@$$CBV?$basic_string@DU?$char_traits@D@std@@V?$allocator@D@2@@std@@P6A?AVany@2@AEAVSessionBase@Session@Domain@@AEBV?$vector@V?$basic_string@DU?$char_traits@D@std@@V?$allocator@D@2@@std@@V?$allocator@V?$basic_string@DU?$char_traits@D@std@@V?$allocator@D@2@@std@@@2@@2@@Z@std@@QEAA@AEAY0O@$$CBDA6A?AVany@1@AEAVSessionBase@Session@Domain@@AEBV?$vector@V?$basic_string@DU?$char_traits@D@std@@V?$allocator@D@2@@std@@V?$allocator@V?$basic_string@DU?$char_traits@D@std@@V?$allocator@D@2@@std@@@2@@1@@Z@Z 0000000140028170 f i Session.obj
 0002:00007230       ??$?0AEAY0P@$$CBDA6A?AVany@std@@AEAVSessionBase@Session@Domain@@AEBV?$vector@V?$basic_string@DU?$char_traits@D@std@@V?$allocator@D@2@@std@@V?$allocator@V?$basic_string@DU?$char_traits@D@std@@V?$allocator@D@2@@std@@@2@@1@@Z$0A@@?$pair@$$CBV?$basic_string@DU?$char_traits@D@std@@V?$allocator@D@2@@std@@P6A?AVany@2@AEAVSessionBase@Session@Domain@@AEBV?$vector@V?$basic_string@DU?$char_traits@D@std@@V?$allocator@D@2@@std@@V?$allocator@V?$basic_string@DU?$char_traits@D@std@@V?$allocator@D@2@@std@@@2@@2@@Z@std@@QEAA@AEAY0P@$$CBDA6A?AVany@1@AEAVSessionBase@Session@Domain@@AEBV?$vector@V?$basic_string@DU?$char_traits@D@std@@V?$allocator@D@2@@std@@V?$allocator@V?$basic_string@DU?$char_traits@D@std@@V?$allocator@D@2@@std@@@2@@1@@Z@Z 0000000140028230 f i Session.obj
 0002:000072f0       ??$?0AEBU?$less@V?$basic_string@DU?$char_traits@D@std@@V?$allocator@D@2@@std@@@std@@U_Zero_then_variadic_args_t@1@@?$_Compressed_pair@U?$less@V?$basic_string@DU?$char_traits@D@std@@V?$allocator@D@2@@std@@@std@@V?$_Compressed_pair@V?$allocator@U?$_Tree_node@U?$pair@$$CBV?$basic_string@DU?$char_traits@D@std@@V?$allocator@D@2@@std@@P6A?AVany@2@AEAVSessionBase@Session@Domain@@AEBV?$vector@V?$basic_string@DU?$char_traits@D@std@@V?$allocator@D@2@@std@@V?$allocator@V?$basic_string@DU?$char_traits@D@std@@V?$allocator@D@2@@std@@@2@@2@@Z@std@@PEAX@std@@@std@@V?$_Tree_val@U?$_Tree_simple_types@U?$pair@$$CBV?$basic_string@DU?$char_traits@D@std@@V?$allocator@D@2@@std@@P6A?AVany@2@AEAVSessionBase@Session@Domain@@AEBV?$vector@V?$basic_string@DU?$char_traits@D@std@@V?$allocator@D@2@@std@@V?$allocator@V?$basic_string@DU?$char_traits@D@std@@V?$allocator@D@2@@std@@@2@@2@@Z@std@@@std@@@2@$00@2@$00@std@@QEAA@U_One_then_variadic_args_t@1@AEBU?$less@V?$basic_string@DU?$char_traits@D@std@@V?$allocator@D@2@@std@@@1@$$QEAU_Zero_then_variadic_args_t@1@@Z 00000001400282f0 f i Session.obj
 0002:000073a0       ??$?0AEBU?$pair@$$CBV?$basic_string@DU?$char_traits@D@std@@V?$allocator@D@2@@std@@P6A?AVany@2@AEAVSessionBase@Session@Domain@@AEBV?$vector@V?$basic_string@DU?$char_traits@D@std@@V?$allocator@D@2@@std@@V?$allocator@V?$basic_string@DU?$char_traits@D@std@@V?$allocator@D@2@@std@@@2@@2@@Z@std@@@?$_Tree_temp_node@V?$allocator@U?$_Tree_node@U?$pair@$$CBV?$basic_string@DU?$char_traits@D@std@@V?$allocator@D@2@@std@@P6A?AVany@2@AEAVSessionBase@Session@Domain@@AEBV?$vector@V?$basic_string@DU?$char_traits@D@std@@V?$allocator@D@2@@std@@V?$allocator@V?$basic_string@DU?$char_traits@D@std@@V?$allocator@D@2@@std@@@2@@2@@Z@std@@PEAX@std@@@std@@@std@@QEAA@AEAV?$allocator@U?$_Tree_node@U?$pair@$$CBV?$basic_string@DU?$char_traits@D@std@@V?$allocator@D@2@@std@@P6A?AVany@2@AEAVSessionBase@Session@Domain@@AEBV?$vector@V?$basic_string@DU?$char_traits@D@std@@V?$allocator@D@2@@std@@V?$allocator@V?$basic_string@DU?$char_traits@D@std@@V?$allocator@D@2@@std@@@2@@2@@Z@std@@PEAX@std@@@1@PEAU?$_Tree_node@U?$pair@$$CBV?$basic_string@DU?$char_traits@D@std@@V?$allocator@D@2@@std@@P6A?AVany@2@AEAVSessionBase@Session@Domain@@AEBV?$vector@V?$basic_string@DU?$char_traits@D@std@@V?$allocator@D@2@@std@@V?$allocator@V?$basic_string@DU?$char_traits@D@std@@V?$allocator@D@2@@std@@@2@@2@@Z@std@@PEAX@1@AEBU?$pair@$$CBV?$basic_string@DU?$char_traits@D@std@@V?$allocator@D@2@@std@@P6A?AVany@2@AEAVSessionBase@Session@Domain@@AEBV?$vector@V?$basic_string@DU?$char_traits@D@std@@V?$allocator@D@2@@std@@V?$allocator@V?$basic_string@DU?$char_traits@D@std@@V?$allocator@D@2@@std@@@2@@2@@Z@1@@Z 00000001400283a0 f i Session.obj
 0002:00007530       ??$?0AEBV?$allocator@D@std@@$$V@?$_Compressed_pair@V?$allocator@D@std@@V?$_String_val@U?$_Simple_types@D@std@@@2@$00@std@@QEAA@U_One_then_variadic_args_t@1@AEBV?$allocator@D@1@@Z 0000000140028530 f i Session.obj
 0002:000075c0       ??$?0D@?$allocator@U_Container_proxy@std@@@std@@QEAA@AEBV?$allocator@D@1@@Z 00000001400285c0 f i Session.obj
 0002:00007620       ??$?0PEAD$0A@@?$basic_string@DU?$char_traits@D@std@@V?$allocator@D@2@@std@@QEAA@PEAD0AEBV?$allocator@D@1@@Z 0000000140028620 f i Session.obj
 0002:00007810       ??$?0U?$_Tree_node@U?$pair@$$CBV?$basic_string@DU?$char_traits@D@std@@V?$allocator@D@2@@std@@P6A?AVany@2@AEAVSessionBase@Session@Domain@@AEBV?$vector@V?$basic_string@DU?$char_traits@D@std@@V?$allocator@D@2@@std@@V?$allocator@V?$basic_string@DU?$char_traits@D@std@@V?$allocator@D@2@@std@@@2@@2@@Z@std@@PEAX@std@@@?$allocator@U_Container_proxy@std@@@std@@QEAA@AEBV?$allocator@U?$_Tree_node@U?$pair@$$CBV?$basic_string@DU?$char_traits@D@std@@V?$allocator@D@2@@std@@P6A?AVany@2@AEAVSessionBase@Session@Domain@@AEBV?$vector@V?$basic_string@DU?$char_traits@D@std@@V?$allocator@D@2@@std@@V?$allocator@V?$basic_string@DU?$char_traits@D@std@@V?$allocator@D@2@@std@@@2@@2@@Z@std@@PEAX@std@@@1@@Z 0000000140028810 f i Session.obj
 0002:00007870       ??$?0UClient@Persistence@TechnicalServices@@@?$allocator@U_Container_proxy@std@@@std@@QEAA@AEBV?$allocator@UClient@Persistence@TechnicalServices@@@1@@Z 0000000140028870 f i Session.obj
 0002:000078d0       ??$?0V?$allocator@D@std@@$$V@?$_Compressed_pair@V?$allocator@D@std@@V?$_String_val@U?$_Simple_types@D@std@@@2@$00@std@@QEAA@U_One_then_variadic_args_t@1@$$QEAV?$allocator@D@1@@Z 00000001400288d0 f i Session.obj
 0002:00007960       ??$?0V?$allocator@UClient@Persistence@TechnicalServices@@@std@@$$V@?$_Compressed_pair@V?$allocator@UClient@Persistence@TechnicalServices@@@std@@V?$_Vector_val@U?$_Simple_types@UClient@Persistence@TechnicalServices@@@std@@@2@$00@std@@QEAA@U_One_then_variadic_args_t@1@$$QEAV?$allocator@UClient@Persistence@TechnicalServices@@@1@@Z 0000000140028960 f i Session.obj
 0002:000079f0       ??$?0V?$allocator@V?$basic_string@DU?$char_traits@D@std@@V?$allocator@D@2@@std@@@std@@$$V@?$_Compressed_pair@V?$allocator@V?$basic_string@DU?$char_traits@D@std@@V?$allocator@D@2@@std@@@std@@V?$_Vector_val@U?$_Simple_types@V?$basic_string@DU?$char_traits@D@std@@V?$allocator@D@2@@std@@@std@@@2@$00@std@@QEAA@U_One_then_variadic_args_t@1@$$QEAV?$allocator@V?$basic_string@DU?$char_traits@D@std@@V?$allocator@D@2@@std@@@1@@Z 00000001400289f0 f i Session.obj
 0002:00007a80       ??$?0V?$basic_string@DU?$char_traits@D@std@@V?$allocator@D@2@@std@@$0A@@any@std@@QEAA@$$QEAV?$basic_string@DU?$char_traits@D@std@@V?$allocator@D@2@@1@@Z 0000000140028a80 f i Session.obj
 0002:00007b20       ??$?0V?$basic_string@DU?$char_traits@D@std@@V?$allocator@D@2@@std@@@?$allocator@U_Container_proxy@std@@@std@@QEAA@AEBV?$allocator@V?$basic_string@DU?$char_traits@D@std@@V?$allocator@D@2@@std@@@1@@Z 0000000140028b20 f i Session.obj
 0002:00007b80       ??$?6DU?$char_traits@D@std@@V?$allocator@D@1@@std@@YAAEAV?$basic_ostream@DU?$char_traits@D@std@@@0@AEAV10@AEBV?$basic_string@DU?$char_traits@D@std@@V?$allocator@D@2@@0@@Z 0000000140028b80 f i Session.obj
 0002:00007c30       ??$?6DU?$char_traits@D@std@@_J@std@@YAAEAV?$basic_ostream@DU?$char_traits@D@std@@@0@AEAV10@AEBU?$_Smanip@_J@0@@Z 0000000140028c30 f i Session.obj
 0002:00007ce0       ??$?6U?$char_traits@D@std@@@std@@YAAEAV?$basic_ostream@DU?$char_traits@D@std@@@0@AEAV10@PEBD@Z 0000000140028ce0 f i Session.obj
 0002:00008260       ??$?HDU?$char_traits@D@std@@V?$allocator@D@1@@std@@YA?AV?$basic_string@DU?$char_traits@D@std@@V?$allocator@D@2@@0@$$QEAV10@AEBV10@@Z 0000000140029260 f i Session.obj
 0002:00008320       ??$?HDU?$char_traits@D@std@@V?$allocator@D@1@@std@@YA?AV?$basic_string@DU?$char_traits@D@std@@V?$allocator@D@2@@0@$$QEAV10@D@Z 0000000140029320 f i Session.obj
 0002:000083e0       ??$?HDU?$char_traits@D@std@@V?$allocator@D@1@@std@@YA?AV?$basic_string@DU?$char_traits@D@std@@V?$allocator@D@2@@0@$$QEAV10@QEBD@Z 00000001400293e0 f i Session.obj
 0002:000084a0       ??$?HDU?$char_traits@D@std@@V?$allocator@D@1@@std@@YA?AV?$basic_string@DU?$char_traits@D@std@@V?$allocator@D@2@@0@DAEBV10@@Z 00000001400294a0 f i Session.obj
 0002:00008600       ??$?HDU?$char_traits@D@std@@V?$allocator@D@1@@std@@YA?AV?$basic_string@DU?$char_traits@D@std@@V?$allocator@D@2@@0@QEBD$$QEAV10@@Z 0000000140029600 f i Session.obj
 0002:000086c0       ??$?HDU?$char_traits@D@std@@V?$allocator@D@1@@std@@YA?AV?$basic_string@DU?$char_traits@D@std@@V?$allocator@D@2@@0@QEBDAEBV10@@Z 00000001400296c0 f i Session.obj
 0002:00008810       ??$?MDU?$char_traits@D@std@@V?$allocator@D@1@@std@@YA_NAEBV?$basic_string@DU?$char_traits@D@std@@V?$allocator@D@2@@0@0@Z 0000000140029810 f i Session.obj
 0002:000088b0       ??$_Adl_verify_range@PEADPEAD@std@@YAXAEBQEAD0@Z 00000001400298b0 f i Session.obj
 0002:00008930       ??$_Adl_verify_range@PEAUClient@Persistence@TechnicalServices@@PEAU123@@std@@YAXAEBQEAUClient@Persistence@TechnicalServices@@0@Z 0000000140029930 f i Session.obj
 0002:000089b0       ??$_Adl_verify_range@PEBU?$pair@$$CBV?$basic_string@DU?$char_traits@D@std@@V?$allocator@D@2@@std@@P6A?AVany@2@AEAVSessionBase@Session@Domain@@AEBV?$vector@V?$basic_string@DU?$char_traits@D@std@@V?$allocator@D@2@@std@@V?$allocator@V?$basic_string@DU?$char_traits@D@std@@V?$allocator@D@2@@std@@@2@@2@@Z@std@@PEBU12@@std@@YAXAEBQEBU?$pair@$$CBV?$basic_string@DU?$char_traits@D@std@@V?$allocator@D@2@@std@@P6A?AVany@2@AEAVSessionBase@Session@Domain@@AEBV?$vector@V?$basic_string@DU?$char_traits@D@std@@V?$allocator@D@2@@std@@V?$allocator@V?$basic_string@DU?$char_traits@D@std@@V?$allocator@D@2@@std@@@2@@2@@Z@0@0@Z 00000001400299b0 f i Session.obj
 0002:00008a30       ??$_Alloc_proxy@V?$allocator@U_Container_proxy@std@@@std@@@_Container_base12@std@@QEAAX$$QEAV?$allocator@U_Container_proxy@std@@@1@@Z 0000000140029a30 f i Session.obj
 0002:00008b00       ??$_Allocate@$0BA@U_Default_allocate_traits@std@@$0A@@std@@YAPEAX_K@Z 0000000140029b00 f i Session.obj
 0002:00008ba0       ??$_Allocate_manually_vector_aligned@U_Default_allocate_traits@std@@@std@@YAPEAX_K@Z 0000000140029ba0 f i Session.obj
 0002:00008d20       ??$_Assign_range@PEAUClient@Persistence@TechnicalServices@@@?$vector@UClient@Persistence@TechnicalServices@@V?$allocator@UClient@Persistence@TechnicalServices@@@std@@@std@@AEAAXPEAUClient@Persistence@TechnicalServices@@0Uforward_iterator_tag@1@@Z 0000000140029d20 f i Session.obj
 0002:00008f80       ??$_Buyheadnode@V?$allocator@U?$_Tree_node@U?$pair@$$CBV?$basic_string@DU?$char_traits@D@std@@V?$allocator@D@2@@std@@P6A?AVany@2@AEAVSessionBase@Session@Domain@@AEBV?$vector@V?$basic_string@DU?$char_traits@D@std@@V?$allocator@D@2@@std@@V?$allocator@V?$basic_string@DU?$char_traits@D@std@@V?$allocator@D@2@@std@@@2@@2@@Z@std@@PEAX@std@@@std@@@?$_Tree_node@U?$pair@$$CBV?$basic_string@DU?$char_traits@D@std@@V?$allocator@D@2@@std@@P6A?AVany@2@AEAVSessionBase@Session@Domain@@AEBV?$vector@V?$basic_string@DU?$char_traits@D@std@@V?$allocator@D@2@@std@@V?$allocator@V?$basic_string@DU?$char_traits@D@std@@V?$allocator@D@2@@std@@@2@@2@@Z@std@@PEAX@std@@SAPEAU01@AEAV?$allocator@U?$_Tree_node@U?$pair@$$CBV?$basic_string@DU?$char_traits@D@std@@V?$allocator@D@2@@std@@P6A?AVany@2@AEAVSessionBase@Session@Domain@@AEBV?$vector@V?$basic_string@DU?$char_traits@D@std@@V?$allocator@D@2@@std@@V?$allocator@V?$basic_string@DU?$char_traits@D@std@@V?$allocator@D@2@@std@@@2@@2@@Z@std@@PEAX@std@@@1@@Z 0000000140029f80 f i Session.obj
 0002:00009090       ??$_Cast@V?$basic_string@DU?$char_traits@D@std@@V?$allocator@D@2@@std@@@any@std@@QEAAPEAV?$basic_string@DU?$char_traits@D@std@@V?$allocator@D@2@@1@XZ 000000014002a090 f i Session.obj
 0002:000090f0       ??$_Cast@V?$basic_string@DU?$char_traits@D@std@@V?$allocator@D@2@@std@@@any@std@@QEBAPEBV?$basic_string@DU?$char_traits@D@std@@V?$allocator@D@2@@1@XZ 000000014002a0f0 f i Session.obj
 0002:00009190       ??$_Construct_in_place@PEADAEBQEAD@std@@YAXAEAPEADAEBQEAD@Z 000000014002a190 f i Session.obj
 0002:00009230       ??$_Construct_in_place@PEAU?$_Tree_node@U?$pair@$$CBV?$basic_string@DU?$char_traits@D@std@@V?$allocator@D@2@@std@@P6A?AVany@2@AEAVSessionBase@Session@Domain@@AEBV?$vector@V?$basic_string@DU?$char_traits@D@std@@V?$allocator@D@2@@std@@V?$allocator@V?$basic_string@DU?$char_traits@D@std@@V?$allocator@D@2@@std@@@2@@2@@Z@std@@PEAX@std@@AEAPEAU12@@std@@YAXAEAPEAU?$_Tree_node@U?$pair@$$CBV?$basic_string@DU?$char_traits@D@std@@V?$allocator@D@2@@std@@P6A?AVany@2@AEAVSessionBase@Session@Domain@@AEBV?$vector@V?$basic_string@DU?$char_traits@D@std@@V?$allocator@D@2@@std@@V?$allocator@V?$basic_string@DU?$char_traits@D@std@@V?$allocator@D@2@@std@@@2@@2@@Z@std@@PEAX@0@0@Z 000000014002a230 f i Session.obj
 0002:000092d0       ??$_Construct_in_place@PEAU?$_Tree_node@U?$pair@$$CBV?$basic_string@DU?$char_traits@D@std@@V?$allocator@D@2@@std@@P6A?AVany@2@AEAVSessionBase@Session@Domain@@AEBV?$vector@V?$basic_string@DU?$char_traits@D@std@@V?$allocator@D@2@@std@@V?$allocator@V?$basic_string@DU?$char_traits@D@std@@V?$allocator@D@2@@std@@@2@@2@@Z@std@@PEAX@std@@AEBQEAU12@@std@@YAXAEAPEAU?$_Tree_node@U?$pair@$$CBV?$basic_string@DU?$char_traits@D@std@@V?$allocator@D@2@@std@@P6A?AVany@2@AEAVSessionBase@Session@Domain@@AEBV?$vector@V?$basic_string@DU?$char_traits@D@std@@V?$allocator@D@2@@std@@V?$allocator@V?$basic_string@DU?$char_traits@D@std@@V?$allocator@D@2@@std@@@2@@2@@Z@std@@PEAX@0@AEBQEAU10@@Z 000000014002a2d0 f i Session.obj
 0002:00009370       ??$_Construct_in_place@PEBDAEAY04$$CBD@std@@YAXAEAPEBDAEAY04$$CBD@Z 000000014002a370 f i Session.obj
 0002:00009410       ??$_Construct_in_place@U_Container_proxy@std@@PEAU_Container_base12@2@@std@@YAXAEAU_Container_proxy@0@$$QEAPEAU_Container_base12@0@@Z 000000014002a410 f i Session.obj
 0002:000094d0       ??$_Construct_in_place@V?$basic_string@DU?$char_traits@D@std@@V?$allocator@D@2@@std@@AEBV12@@std@@YAXAEAV?$basic_string@DU?$char_traits@D@std@@V?$allocator@D@2@@0@AEBV10@@Z 000000014002a4d0 f i Session.obj
 0002:00009580       ??$_Construct_in_place@V?$basic_string@DU?$char_traits@D@std@@V?$allocator@D@2@@std@@V12@@std@@YAXAEAV?$basic_string@DU?$char_traits@D@std@@V?$allocator@D@2@@0@$$QEAV10@@Z 000000014002a580 f i Session.obj
 0002:00009630       ??$_Convert_size@_K@std@@YA_K_K@Z 000000014002a630 f i Session.obj
 0002:00009690       ??$_Copy_unchecked@PEAUClient@Persistence@TechnicalServices@@PEAU123@@std@@YAPEAUClient@Persistence@TechnicalServices@@PEAU123@00@Z 000000014002a690 f i Session.obj
 0002:00009760       ??$_Deallocate@$0BA@$0A@@std@@YAXPEAX_K@Z 000000014002a760 f i Session.obj
 0002:00009800       ??$_Deallocate_plain@V?$allocator@U_Container_proxy@std@@@std@@@std@@YAXAEAV?$allocator@U_Container_proxy@std@@@0@QEAU_Container_proxy@0@@Z 000000014002a800 f i Session.obj
 0002:00009880       ??$_Debug_lt_pred@AEBU?$less@V?$basic_string@DU?$char_traits@D@std@@V?$allocator@D@2@@std@@@std@@AEBV?$basic_string@DU?$char_traits@D@std@@V?$allocator@D@2@@2@AEBV32@$0A@@std@@YA_NAEBU?$less@V?$basic_string@DU?$char_traits@D@std@@V?$allocator@D@2@@std@@@0@AEBV?$basic_string@DU?$char_traits@D@std@@V?$allocator@D@2@@0@1@Z 000000014002a880 f i Session.obj
 0002:000099e0       ??$_Delete_plain_internal@V?$allocator@U_Container_proxy@std@@@std@@@std@@YAXAEAV?$allocator@U_Container_proxy@std@@@0@QEAU_Container_proxy@0@@Z 000000014002a9e0 f i Session.obj
 0002:00009a50       ??$_Destroy_in_place@PEAD@std@@YAXAEAPEAD@Z 000000014002aa50 f i Session.obj
 0002:00009ab0       ??$_Destroy_in_place@PEAU?$_Tree_node@U?$pair@$$CBV?$basic_string@DU?$char_traits@D@std@@V?$allocator@D@2@@std@@P6A?AVany@2@AEAVSessionBase@Session@Domain@@AEBV?$vector@V?$basic_string@DU?$char_traits@D@std@@V?$allocator@D@2@@std@@V?$allocator@V?$basic_string@DU?$char_traits@D@std@@V?$allocator@D@2@@std@@@2@@2@@Z@std@@PEAX@std@@@std@@YAXAEAPEAU?$_Tree_node@U?$pair@$$CBV?$basic_string@DU?$char_traits@D@std@@V?$allocator@D@2@@std@@P6A?AVany@2@AEAVSessionBase@Session@Domain@@AEBV?$vector@V?$basic_string@DU?$char_traits@D@std@@V?$allocator@D@2@@std@@V?$allocator@V?$basic_string@DU?$char_traits@D@std@@V?$allocator@D@2@@std@@@2@@2@@Z@std@@PEAX@0@@Z 000000014002aab0 f i Session.obj
 0002:00009b10       ??$_Destroy_in_place@V?$basic_string@DU?$char_traits@D@std@@V?$allocator@D@2@@std@@@std@@YAXAEAV?$basic_string@DU?$char_traits@D@std@@V?$allocator@D@2@@0@@Z 000000014002ab10 f i Session.obj
 0002:00009b80       ??$_Destroy_range@V?$allocator@UClient@Persistence@TechnicalServices@@@std@@@std@@YAXPEAUClient@Persistence@TechnicalServices@@QEAU123@AEAV?$allocator@UClient@Persistence@TechnicalServices@@@0@@Z 000000014002ab80 f i Session.obj
 0002:00009c30       ??$_Destroy_range@V?$allocator@V?$basic_string@DU?$char_traits@D@std@@V?$allocator@D@2@@std@@@std@@@std@@YAXPEAV?$basic_string@DU?$char_traits@D@std@@V?$allocator@D@2@@0@QEAV10@AEAV?$allocator@V?$basic_string@DU?$char_traits@D@std@@V?$allocator@D@2@@std@@@0@@Z 000000014002ac30 f i Session.obj
 0002:00009ce0       ??$_Emplace@PEBDAEAY04$$CBD@any@std@@AEAAAEAPEBDAEAY04$$CBD@Z 000000014002ace0 f i Session.obj
 0002:00009d80       ??$_Emplace@V?$basic_string@DU?$char_traits@D@std@@V?$allocator@D@2@@std@@V12@@any@std@@AEAAAEAV?$basic_string@DU?$char_traits@D@std@@V?$allocator@D@2@@1@$$QEAV21@@Z 000000014002ad80 f i Session.obj
 0002:00009e40       ??$_Emplace_back@AEAUClient@Persistence@TechnicalServices@@@?$_Uninitialized_backout_al@V?$allocator@UClient@Persistence@TechnicalServices@@@std@@@std@@QEAAXAEAUClient@Persistence@TechnicalServices@@@Z 000000014002ae40 f i Session.obj
 0002:00009f30       ??$_Emplace_back@AEAV?$basic_string@DU?$char_traits@D@std@@V?$allocator@D@2@@std@@@?$_Uninitialized_backout_al@V?$allocator@V?$basic_string@DU?$char_traits@D@std@@V?$allocator@D@2@@std@@@std@@@std@@QEAAXAEAV?$basic_string@DU?$char_traits@D@std@@V?$allocator@D@2@@1@@Z 000000014002af30 f i Session.obj
 0002:0000a020       ??$_Emplace_back@UClient@Persistence@TechnicalServices@@@?$_Uninitialized_backout_al@V?$allocator@UClient@Persistence@TechnicalServices@@@std@@@std@@QEAAX$$QEAUClient@Persistence@TechnicalServices@@@Z 000000014002b020 f i Session.obj
 0002:0000a110       ??$_Emplace_back@V?$basic_string@DU?$char_traits@D@std@@V?$allocator@D@2@@std@@@?$_Uninitialized_backout_al@V?$allocator@V?$basic_string@DU?$char_traits@D@std@@V?$allocator@D@2@@std@@@std@@@std@@QEAAX$$QEAV?$basic_string@DU?$char_traits@D@std@@V?$allocator@D@2@@1@@Z 000000014002b110 f i Session.obj
 0002:0000a200       ??$_Emplace_back_with_unused_capacity@AEBUClient@Persistence@TechnicalServices@@@?$vector@UClient@Persistence@TechnicalServices@@V?$allocator@UClient@Persistence@TechnicalServices@@@std@@@std@@AEAA@AEBUClient@Persistence@TechnicalServices@@@Z 000000014002b200 f i Session.obj
 0002:0000a330       ??$_Emplace_back_with_unused_capacity@AEBV?$basic_string@DU?$char_traits@D@std@@V?$allocator@D@2@@std@@@?$vector@V?$basic_string@DU?$char_traits@D@std@@V?$allocator@D@2@@std@@V?$allocator@V?$basic_string@DU?$char_traits@D@std@@V?$allocator@D@2@@std@@@2@@std@@AEAA@AEBV?$basic_string@DU?$char_traits@D@std@@V?$allocator@D@2@@1@@Z 000000014002b330 f i Session.obj
 0002:0000a460       ??$_Emplace_hint@AEBU?$pair@$$CBV?$basic_string@DU?$char_traits@D@std@@V?$allocator@D@2@@std@@P6A?AVany@2@AEAVSessionBase@Session@Domain@@AEBV?$vector@V?$basic_string@DU?$char_traits@D@std@@V?$allocator@D@2@@std@@V?$allocator@V?$basic_string@DU?$char_traits@D@std@@V?$allocator@D@2@@std@@@2@@2@@Z@std@@@?$_Tree@V?$_Tmap_traits@V?$basic_string@DU?$char_traits@D@std@@V?$allocator@D@2@@std@@P6A?AVany@2@AEAVSessionBase@Session@Domain@@AEBV?$vector@V?$basic_string@DU?$char_traits@D@std@@V?$allocator@D@2@@std@@V?$allocator@V?$basic_string@DU?$char_traits@D@std@@V?$allocator@D@2@@std@@@2@@2@@ZU?$less@V?$basic_string@DU?$char_traits@D@std@@V?$allocator@D@2@@std@@@2@V?$allocator@U?$pair@$$CBV?$basic_string@DU?$char_traits@D@std@@V?$allocator@D@2@@std@@P6A?AVany@2@AEAVSessionBase@Session@Domain@@AEBV?$vector@V?$basic_string@DU?$char_traits@D@std@@V?$allocator@D@2@@std@@V?$allocator@V?$basic_string@DU?$char_traits@D@std@@V?$allocator@D@2@@std@@@2@@2@@Z@std@@@2@$0A@@std@@@std@@IEAAPEAU?$_Tree_node@U?$pair@$$CBV?$basic_string@DU?$char_traits@D@std@@V?$allocator@D@2@@std@@P6A?AVany@2@AEAVSessionBase@Session@Domain@@AEBV?$vector@V?$basic_string@DU?$char_traits@D@std@@V?$allocator@D@2@@std@@V?$allocator@V?$basic_string@DU?$char_traits@D@std@@V?$allocator@D@2@@std@@@2@@2@@Z@std@@PEAX@1@QEAU21@AEBU?$pair@$$CBV?$basic_string@DU?$char_traits@D@std@@V?$allocator@D@2@@std@@P6A?AVany@2@AEAVSessionBase@Session@Domain@@AEBV?$vector@V?$basic_string@DU?$char_traits@D@std@@V?$allocator@D@2@@std@@V?$allocator@V?$basic_string@DU?$char_traits@D@std@@V?$allocator@D@2@@std@@@2@@2@@Z@1@@Z 000000014002b460 f i Session.obj
 0002:0000a660       ??$_Emplace_reallocate@AEBUClient@Persistence@TechnicalServices@@@?$vector@UClient@Persistence@TechnicalServices@@V?$allocator@UClient@Persistence@TechnicalServices@@@std@@@std@@QEAAPEAUClient@Persistence@TechnicalServices@@QEAU234@AEBU234@@Z 000000014002b660 f i Session.obj
 0002:0000a980       ??$_Emplace_reallocate@AEBV?$basic_string@DU?$char_traits@D@std@@V?$allocator@D@2@@std@@@?$vector@V?$basic_string@DU?$char_traits@D@std@@V?$allocator@D@2@@std@@V?$allocator@V?$basic_string@DU?$char_traits@D@std@@V?$allocator@D@2@@std@@@2@@std@@QEAAPEAV?$basic_string@DU?$char_traits@D@std@@V?$allocator@D@2@@1@QEAV21@AEBV21@@Z 000000014002b980 f i Session.obj
 0002:0000aca0       ??$_Erase_head@V?$allocator@U?$_Tree_node@U?$pair@$$CBV?$basic_string@DU?$char_traits@D@std@@V?$allocator@D@2@@std@@P6A?AVany@2@AEAVSessionBase@Session@Domain@@AEBV?$vector@V?$basic_string@DU?$char_traits@D@std@@V?$allocator@D@2@@std@@V?$allocator@V?$basic_string@DU?$char_traits@D@std@@V?$allocator@D@2@@std@@@2@@2@@Z@std@@PEAX@std@@@std@@@?$_Tree_val@U?$_Tree_simple_types@U?$pair@$$CBV?$basic_string@DU?$char_traits@D@std@@V?$allocator@D@2@@std@@P6A?AVany@2@AEAVSessionBase@Session@Domain@@AEBV?$vector@V?$basic_string@DU?$char_traits@D@std@@V?$allocator@D@2@@std@@V?$allocator@V?$basic_string@DU?$char_traits@D@std@@V?$allocator@D@2@@std@@@2@@2@@Z@std@@@std@@@std@@QEAAXAEAV?$allocator@U?$_Tree_node@U?$pair@$$CBV?$basic_string@DU?$char_traits@D@std@@V?$allocator@D@2@@std@@P6A?AVany@2@AEAVSessionBase@Session@Domain@@AEBV?$vector@V?$basic_string@DU?$char_traits@D@std@@V?$allocator@D@2@@std@@V?$allocator@V?$basic_string@DU?$char_traits@D@std@@V?$allocator@D@2@@std@@@2@@2@@Z@std@@PEAX@std@@@1@@Z 000000014002bca0 f i Session.obj
 0002:0000ad50       ??$_Erase_tree@V?$allocator@U?$_Tree_node@U?$pair@$$CBV?$basic_string@DU?$char_traits@D@std@@V?$allocator@D@2@@std@@P6A?AVany@2@AEAVSessionBase@Session@Domain@@AEBV?$vector@V?$basic_string@DU?$char_traits@D@std@@V?$allocator@D@2@@std@@V?$allocator@V?$basic_string@DU?$char_traits@D@std@@V?$allocator@D@2@@std@@@2@@2@@Z@std@@PEAX@std@@@std@@@?$_Tree_val@U?$_Tree_simple_types@U?$pair@$$CBV?$basic_string@DU?$char_traits@D@std@@V?$allocator@D@2@@std@@P6A?AVany@2@AEAVSessionBase@Session@Domain@@AEBV?$vector@V?$basic_string@DU?$char_traits@D@std@@V?$allocator@D@2@@std@@V?$allocator@V?$basic_string@DU?$char_traits@D@std@@V?$allocator@D@2@@std@@@2@@2@@Z@std@@@std@@@std@@QEAAXAEAV?$allocator@U?$_Tree_node@U?$pair@$$CBV?$basic_string@DU?$char_traits@D@std@@V?$allocator@D@2@@std@@P6A?AVany@2@AEAVSessionBase@Session@Domain@@AEBV?$vector@V?$basic_string@DU?$char_traits@D@std@@V?$allocator@D@2@@std@@V?$allocator@V?$basic_string@DU?$char_traits@D@std@@V?$allocator@D@2@@std@@@2@@2@@Z@std@@PEAX@std@@@1@PEAU?$_Tree_node@U?$pair@$$CBV?$basic_string@DU?$char_traits@D@std@@V?$allocator@D@2@@std@@P6A?AVany@2@AEAVSessionBase@Session@Domain@@AEBV?$vector@V?$basic_string@DU?$char_traits@D@std@@V?$allocator@D@2@@std@@V?$allocator@V?$basic_string@DU?$char_traits@D@std@@V?$allocator@D@2@@std@@@2@@2@@Z@std@@PEAX@1@@Z 000000014002bd50 f i Session.obj
 0002:0000ae20       ??$_Find@V?$basic_string@DU?$char_traits@D@std@@V?$allocator@D@2@@std@@@?$_Tree@V?$_Tmap_traits@V?$basic_string@DU?$char_traits@D@std@@V?$allocator@D@2@@std@@P6A?AVany@2@AEAVSessionBase@Session@Domain@@AEBV?$vector@V?$basic_string@DU?$char_traits@D@std@@V?$allocator@D@2@@std@@V?$allocator@V?$basic_string@DU?$char_traits@D@std@@V?$allocator@D@2@@std@@@2@@2@@ZU?$less@V?$basic_string@DU?$char_traits@D@std@@V?$allocator@D@2@@std@@@2@V?$allocator@U?$pair@$$CBV?$basic_string@DU?$char_traits@D@std@@V?$allocator@D@2@@std@@P6A?AVany@2@AEAVSessionBase@Session@Domain@@AEBV?$vector@V?$basic_string@DU?$char_traits@D@std@@V?$allocator@D@2@@std@@V?$allocator@V?$basic_string@DU?$char_traits@D@std@@V?$allocator@D@2@@std@@@2@@2@@Z@std@@@2@$0A@@std@@@std@@AEBAPEAU?$_Tree_node@U?$pair@$$CBV?$basic_string@DU?$char_traits@D@std@@V?$allocator@D@2@@std@@P6A?AVany@2@AEAVSessionBase@Session@Domain@@AEBV?$vector@V?$basic_string@DU?$char_traits@D@std@@V?$allocator@D@2@@std@@V?$allocator@V?$basic_string@DU?$char_traits@D@std@@V?$allocator@D@2@@std@@@2@@2@@Z@std@@PEAX@1@AEBV?$basic_string@DU?$char_traits@D@std@@V?$allocator@D@2@@1@@Z 000000014002be20 f i Session.obj
 0002:0000af20       ??$_Find_hint@V?$basic_string@DU?$char_traits@D@std@@V?$allocator@D@2@@std@@@?$_Tree@V?$_Tmap_traits@V?$basic_string@DU?$char_traits@D@std@@V?$allocator@D@2@@std@@P6A?AVany@2@AEAVSessionBase@Session@Domain@@AEBV?$vector@V?$basic_string@DU?$char_traits@D@std@@V?$allocator@D@2@@std@@V?$allocator@V?$basic_string@DU?$char_traits@D@std@@V?$allocator@D@2@@std@@@2@@2@@ZU?$less@V?$basic_string@DU?$char_traits@D@std@@V?$allocator@D@2@@std@@@2@V?$allocator@U?$pair@$$CBV?$basic_string@DU?$char_traits@D@std@@V?$allocator@D@2@@std@@P6A?AVany@2@AEAVSessionBase@Session@Domain@@AEBV?$vector@V?$basic_string@DU?$char_traits@D@std@@V?$allocator@D@2@@std@@V?$allocator@V?$basic_string@DU?$char_traits@D@std@@V?$allocator@D@2@@std@@@2@@2@@Z@std@@@2@$0A@@std@@@std@@IEBA?AU?$_Tree_find_hint_result@PEAU?$_Tree_node@U?$pair@$$CBV?$basic_string@DU?$char_traits@D@std@@V?$allocator@D@2@@std@@P6A?AVany@2@AEAVSessionBase@Session@Domain@@AEBV?$vector@V?$basic_string@DU?$char_traits@D@std@@V?$allocator@D@2@@std@@V?$allocator@V?$basic_string@DU?$char_traits@D@std@@V?$allocator@D@2@@std@@@2@@2@@Z@std@@PEAX@std@@@1@QEAU?$_Tree_node@U?$pair@$$CBV?$basic_string@DU?$char_traits@D@std@@V?$allocator@D@2@@std@@P6A?AVany@2@AEAVSessionBase@Session@Domain@@AEBV?$vector@V?$basic_string@DU?$char_traits@D@std@@V?$allocator@D@2@@std@@V?$allocator@V?$basic_string@DU?$char_traits@D@std@@V?$allocator@D@2@@std@@@2@@2@@Z@std@@PEAX@1@AEBV?$basic_string@DU?$char_traits@D@std@@V?$allocator@D@2@@1@@Z 000000014002bf20 f i Session.obj
 0002:0000b4d0       ??$_Find_lower_bound@V?$basic_string@DU?$char_traits@D@std@@V?$allocator@D@2@@std@@@?$_Tree@V?$_Tmap_traits@V?$basic_string@DU?$char_traits@D@std@@V?$allocator@D@2@@std@@P6A?AVany@2@AEAVSessionBase@Session@Domain@@AEBV?$vector@V?$basic_string@DU?$char_traits@D@std@@V?$allocator@D@2@@std@@V?$allocator@V?$basic_string@DU?$char_traits@D@std@@V?$allocator@D@2@@std@@@2@@2@@ZU?$less@V?$basic_string@DU?$char_traits@D@std@@V?$allocator@D@2@@std@@@2@V?$allocator@U?$pair@$$CBV?$basic_string@DU?$char_traits@D@std@@V?$allocator@D@2@@std@@P6A?AVany@2@AEAVSessionBase@Session@Domain@@AEBV?$vector@V?$basic_string@DU?$char_traits@D@std@@V?$allocator@D@2@@std@@V?$allocator@V?$basic_string@DU?$char_traits@D@std@@V?$allocator@D@2@@std@@@2@@2@@Z@std@@@2@$0A@@std@@@std@@IEBA?AU?$_Tree_find_result@PEAU?$_Tree_node@U?$pair@$$CBV?$basic_string@DU?$char_traits@D@std@@V?$allocator@D@2@@std@@P6A?AVany@2@AEAVSessionBase@Session@Domain@@AEBV?$vector@V?$basic_string@DU?$char_traits@D@std@@V?$allocator@D@2@@std@@V?$allocator@V?$basic_string@DU?$char_traits@D@std@@V?$allocator@D@2@@std@@@2@@2@@Z@std@@PEAX@std@@@1@AEBV?$basic_string@DU?$char_traits@D@std@@V?$allocator@D@2@@1@@Z 000000014002c4d0 f i Session.obj
 0002:0000b6a0       ??$_Freenode0@V?$allocator@U?$_Tree_node@U?$pair@$$CBV?$basic_string@DU?$char_traits@D@std@@V?$allocator@D@2@@std@@P6A?AVany@2@AEAVSessionBase@Session@Domain@@AEBV?$vector@V?$basic_string@DU?$char_traits@D@std@@V?$allocator@D@2@@std@@V?$allocator@V?$basic_string@DU?$char_traits@D@std@@V?$allocator@D@2@@std@@@2@@2@@Z@std@@PEAX@std@@@std@@@?$_Tree_node@U?$pair@$$CBV?$basic_string@DU?$char_traits@D@std@@V?$allocator@D@2@@std@@P6A?AVany@2@AEAVSessionBase@Session@Domain@@AEBV?$vector@V?$basic_string@DU?$char_traits@D@std@@V?$allocator@D@2@@std@@V?$allocator@V?$basic_string@DU?$char_traits@D@std@@V?$allocator@D@2@@std@@@2@@2@@Z@std@@PEAX@std@@SAXAEAV?$allocator@U?$_Tree_node@U?$pair@$$CBV?$basic_string@DU?$char_traits@D@std@@V?$allocator@D@2@@std@@P6A?AVany@2@AEAVSessionBase@Session@Domain@@AEBV?$vector@V?$basic_string@DU?$char_traits@D@std@@V?$allocator@D@2@@std@@V?$allocator@V?$basic_string@DU?$char_traits@D@std@@V?$allocator@D@2@@std@@@2@@2@@Z@std@@PEAX@std@@@1@PEAU01@@Z 000000014002c6a0 f i Session.obj
 0002:0000b760       ??$_Freenode@V?$allocator@U?$_Tree_node@U?$pair@$$CBV?$basic_string@DU?$char_traits@D@std@@V?$allocator@D@2@@std@@P6A?AVany@2@AEAVSessionBase@Session@Domain@@AEBV?$vector@V?$basic_string@DU?$char_traits@D@std@@V?$allocator@D@2@@std@@V?$allocator@V?$basic_string@DU?$char_traits@D@std@@V?$allocator@D@2@@std@@@2@@2@@Z@std@@PEAX@std@@@std@@@?$_Tree_node@U?$pair@$$CBV?$basic_string@DU?$char_traits@D@std@@V?$allocator@D@2@@std@@P6A?AVany@2@AEAVSessionBase@Session@Domain@@AEBV?$vector@V?$basic_string@DU?$char_traits@D@std@@V?$allocator@D@2@@std@@V?$allocator@V?$basic_string@DU?$char_traits@D@std@@V?$allocator@D@2@@std@@@2@@2@@Z@std@@PEAX@std@@SAXAEAV?$allocator@U?$_Tree_node@U?$pair@$$CBV?$basic_string@DU?$char_traits@D@std@@V?$allocator@D@2@@std@@P6A?AVany@2@AEAVSessionBase@Session@Domain@@AEBV?$vector@V?$basic_string@DU?$char_traits@D@std@@V?$allocator@D@2@@std@@V?$allocator@V?$basic_string@DU?$char_traits@D@std@@V?$allocator@D@2@@std@@@2@@2@@Z@std@@PEAX@std@@@1@PEAU01@@Z 000000014002c760 f i Session.obj
 0002:0000b800       ??$_Get_size_of_n@$00@std@@YA_K_K@Z 000000014002c800 f i Session.obj
 0002:0000b860       ??$_Get_size_of_n@$0BA@@std@@YA_K_K@Z 000000014002c860 f i Session.obj
 0002:0000b8f0       ??$_Get_size_of_n@$0CI@@std@@YA_K_K@Z 000000014002c8f0 f i Session.obj
 0002:0000b980       ??$_Get_size_of_n@$0DA@@std@@YA_K_K@Z 000000014002c980 f i Session.obj
 0002:0000ba10       ??$_Get_size_of_n@$0FA@@std@@YA_K_K@Z 000000014002ca10 f i Session.obj
 0002:0000baa0       ??$_Get_unwrapped@AEAPEAD@std@@YA@AEAPEAD@Z 000000014002caa0 f i Session.obj
 0002:0000bb00       ??$_Get_unwrapped@AEAPEAUClient@Persistence@TechnicalServices@@@std@@YA@AEAPEAUClient@Persistence@TechnicalServices@@@Z 000000014002cb00 f i Session.obj
 0002:0000bb60       ??$_Get_unwrapped@AEAPEBU?$pair@$$CBV?$basic_string@DU?$char_traits@D@std@@V?$allocator@D@2@@std@@P6A?AVany@2@AEAVSessionBase@Session@Domain@@AEBV?$vector@V?$basic_string@DU?$char_traits@D@std@@V?$allocator@D@2@@std@@V?$allocator@V?$basic_string@DU?$char_traits@D@std@@V?$allocator@D@2@@std@@@2@@2@@Z@std@@@std@@YA@AEAPEBU?$pair@$$CBV?$basic_string@DU?$char_traits@D@std@@V?$allocator@D@2@@std@@P6A?AVany@2@AEAVSessionBase@Session@Domain@@AEBV?$vector@V?$basic_string@DU?$char_traits@D@std@@V?$allocator@D@2@@std@@V?$allocator@V?$basic_string@DU?$char_traits@D@std@@V?$allocator@D@2@@std@@@2@@2@@Z@0@@Z 000000014002cb60 f i Session.obj
 0002:0000bbc0       ??$_Get_unwrapped@AEBQEAUClient@Persistence@TechnicalServices@@@std@@YA@AEBQEAUClient@Persistence@TechnicalServices@@@Z 000000014002cbc0 f i Session.obj
 0002:0000bc20       ??$_Get_unwrapped@AEBQEAV?$basic_string@DU?$char_traits@D@std@@V?$allocator@D@2@@std@@@std@@YA@AEBQEAV?$basic_string@DU?$char_traits@D@std@@V?$allocator@D@2@@0@@Z 000000014002cc20 f i Session.obj
 0002:0000bc80       ??$_Getvals@_W@?$time_get@DV?$istreambuf_iterator@DU?$char_traits@D@std@@@std@@@std@@IEAAX_WAEBV_Locinfo@1@@Z 000000014002cc80 f i Session.obj
 0002:0000be60       ??$_Getvals@_W@?$time_get@_WV?$istreambuf_iterator@_WU?$char_traits@_W@std@@@std@@@std@@IEAAX_WAEBV_Locinfo@1@@Z 000000014002ce60 f i Session.obj
 0002:0000c040       ??$_Insert_string@DU?$char_traits@D@std@@_K@std@@YAAEAV?$basic_ostream@DU?$char_traits@D@std@@@0@AEAV10@QEBD_K@Z 000000014002d040 f i Session.obj
 0002:0000c5b0       ??$_Integral_to_string@DH@std@@YA?AV?$basic_string@DU?$char_traits@D@std@@V?$allocator@D@2@@0@H@Z 000000014002d5b0 f i Session.obj
 0002:0000c720       ??$_Kfn@$$CBV?$basic_string@DU?$char_traits@D@std@@V?$allocator@D@2@@std@@P6A?AVany@2@AEAVSessionBase@Session@Domain@@AEBV?$vector@V?$basic_string@DU?$char_traits@D@std@@V?$allocator@D@2@@std@@V?$allocator@V?$basic_string@DU?$char_traits@D@std@@V?$allocator@D@2@@std@@@2@@2@@Z@?$_Tmap_traits@V?$basic_string@DU?$char_traits@D@std@@V?$allocator@D@2@@std@@P6A?AVany@2@AEAVSessionBase@Session@Domain@@AEBV?$vector@V?$basic_string@DU?$char_traits@D@std@@V?$allocator@D@2@@std@@V?$allocator@V?$basic_string@DU?$char_traits@D@std@@V?$allocator@D@2@@std@@@2@@2@@ZU?$less@V?$basic_string@DU?$char_traits@D@std@@V?$allocator@D@2@@std@@@2@V?$allocator@U?$pair@$$CBV?$basic_string@DU?$char_traits@D@std@@V?$allocator@D@2@@std@@P6A?AVany@2@AEAVSessionBase@Session@Domain@@AEBV?$vector@V?$basic_string@DU?$char_traits@D@std@@V?$allocator@D@2@@std@@V?$allocator@V?$basic_string@DU?$char_traits@D@std@@V?$allocator@D@2@@std@@@2@@2@@Z@std@@@2@$0A@@std@@SAAEBV?$basic_string@DU?$char_traits@D@std@@V?$allocator@D@2@@1@AEBU?$pair@$$CBV?$basic_string@DU?$char_traits@D@std@@V?$allocator@D@2@@std@@P6A?AVany@2@AEAVSessionBase@Session@Domain@@AEBV?$vector@V?$basic_string@DU?$char_traits@D@std@@V?$allocator@D@2@@std@@V?$allocator@V?$basic_string@DU?$char_traits@D@std@@V?$allocator@D@2@@std@@@2@@2@@Z@1@@Z 000000014002d720 f i Session.obj
 0002:0000c780       ??$_Lower_bound_duplicate@V?$basic_string@DU?$char_traits@D@std@@V?$allocator@D@2@@std@@@?$_Tree@V?$_Tmap_traits@V?$basic_string@DU?$char_traits@D@std@@V?$allocator@D@2@@std@@P6A?AVany@2@AEAVSessionBase@Session@Domain@@AEBV?$vector@V?$basic_string@DU?$char_traits@D@std@@V?$allocator@D@2@@std@@V?$allocator@V?$basic_string@DU?$char_traits@D@std@@V?$allocator@D@2@@std@@@2@@2@@ZU?$less@V?$basic_string@DU?$char_traits@D@std@@V?$allocator@D@2@@std@@@2@V?$allocator@U?$pair@$$CBV?$basic_string@DU?$char_traits@D@std@@V?$allocator@D@2@@std@@P6A?AVany@2@AEAVSessionBase@Session@Domain@@AEBV?$vector@V?$basic_string@DU?$char_traits@D@std@@V?$allocator@D@2@@std@@V?$allocator@V?$basic_string@DU?$char_traits@D@std@@V?$allocator@D@2@@std@@@2@@2@@Z@std@@@2@$0A@@std@@@std@@IEBA_NQEAU?$_Tree_node@U?$pair@$$CBV?$basic_string@DU?$char_traits@D@std@@V?$allocator@D@2@@std@@P6A?AVany@2@AEAVSessionBase@Session@Domain@@AEBV?$vector@V?$basic_string@DU?$char_traits@D@std@@V?$allocator@D@2@@std@@V?$allocator@V?$basic_string@DU?$char_traits@D@std@@V?$allocator@D@2@@std@@@2@@2@@Z@std@@PEAX@1@AEBV?$basic_string@DU?$char_traits@D@std@@V?$allocator@D@2@@1@@Z 000000014002d780 f i Session.obj
 0002:0000c880       ??$_Maklocstr@D@std@@YAPEADPEBDPEADAEBU_Cvtvec@@@Z 000000014002d880 f i Session.obj
 0002:0000c9a0       ??$_Maklocstr@_W@std@@YAPEA_WPEBDPEA_WAEBU_Cvtvec@@@Z 000000014002d9a0 f i Session.obj
 0002:0000cc80       ??$_Pair_get@AEBQ6A?AVany@std@@AEAVSessionBase@Session@Domain@@AEBV?$vector@V?$basic_string@DU?$char_traits@D@std@@V?$allocator@D@2@@std@@V?$allocator@V?$basic_string@DU?$char_traits@D@std@@V?$allocator@D@2@@std@@@2@@2@@Z$$CBU?$pair@$$CBV?$basic_string@DU?$char_traits@D@std@@V?$allocator@D@2@@std@@P6A?AVany@2@AEAVSessionBase@Session@Domain@@AEBV?$vector@V?$basic_string@DU?$char_traits@D@std@@V?$allocator@D@2@@std@@V?$allocator@V?$basic_string@DU?$char_traits@D@std@@V?$allocator@D@2@@std@@@2@@2@@Z@2@@std@@YAAEBQ6A?AVany@0@AEAVSessionBase@Session@Domain@@AEBV?$vector@V?$basic_string@DU?$char_traits@D@std@@V?$allocator@D@2@@std@@V?$allocator@V?$basic_string@DU?$char_traits@D@std@@V?$allocator@D@2@@std@@@2@@0@@ZAEBU?$pair@$$CBV?$basic_string@DU?$char_traits@D@std@@V?$allocator@D@2@@std@@P6A?AVany@2@AEAVSessionBase@Session@Domain@@AEBV?$vector@V?$basic_string@DU?$char_traits@D@std@@V?$allocator@D@2@@std@@V?$allocator@V?$basic_string@DU?$char_traits@D@std@@V?$allocator@D@2@@std@@@2@@2@@Z@0@U?$integral_constant@_K$00@0@@Z 000000014002dc80 f i Session.obj
 0002:0000ccf0       ??$_Pair_get@AEBV?$basic_string@DU?$char_traits@D@std@@V?$allocator@D@2@@std@@$$CBU?$pair@$$CBV?$basic_string@DU?$char_traits@D@std@@V?$allocator@D@2@@std@@P6A?AVany@2@AEAVSessionBase@Session@Domain@@AEBV?$vector@V?$basic_string@DU?$char_traits@D@std@@V?$allocator@D@2@@std@@V?$allocator@V?$basic_string@DU?$char_traits@D@std@@V?$allocator@D@2@@std@@@2@@2@@Z@2@@std@@YAAEBV?$basic_string@DU?$char_traits@D@std@@V?$allocator@D@2@@0@AEBU?$pair@$$CBV?$basic_string@DU?$char_traits@D@std@@V?$allocator@D@2@@std@@P6A?AVany@2@AEAVSessionBase@Session@Domain@@AEBV?$vector@V?$basic_string@DU?$char_traits@D@std@@V?$allocator@D@2@@std@@V?$allocator@V?$basic_string@DU?$char_traits@D@std@@V?$allocator@D@2@@std@@@2@@2@@Z@0@U?$integral_constant@_K$0A@@0@@Z 000000014002dcf0 f i Session.obj
 0002:0000cd50       ??$_Pocca@V?$allocator@D@std@@@std@@YAXAEAV?$allocator@D@0@AEBV10@@Z 000000014002dd50 f i Session.obj
 0002:0000cdb0       ??$_Pocca@V?$allocator@UClient@Persistence@TechnicalServices@@@std@@@std@@YAXAEAV?$allocator@UClient@Persistence@TechnicalServices@@@0@AEBV10@@Z 000000014002ddb0 f i Session.obj
 0002:0000ce10       ??$_Reallocate_for@V<lambda_66f57f934f28d61049862f64df852ff0>@@PEBD@?$basic_string@DU?$char_traits@D@std@@V?$allocator@D@2@@std@@AEAAAEAV01@_KV<lambda_66f57f934f28d61049862f64df852ff0>@@PEBD@Z 000000014002de10 f i Session.obj
 0002:0000d020       ??$_Reallocate_grow_by@V<lambda_319d5e083f45f90dcdce5dce53cbb275>@@D@?$basic_string@DU?$char_traits@D@std@@V?$allocator@D@2@@std@@AEAAAEAV01@_KV<lambda_319d5e083f45f90dcdce5dce53cbb275>@@D@Z 000000014002e020 f i Session.obj
 0002:0000d2e0       ??$_Reallocate_grow_by@V<lambda_65e615be2a453ca0576c979606f46740>@@PEBD_K@?$basic_string@DU?$char_traits@D@std@@V?$allocator@D@2@@std@@AEAAAEAV01@_KV<lambda_65e615be2a453ca0576c979606f46740>@@PEBD_K@Z 000000014002e2e0 f i Session.obj
 0002:0000d5c0       ??$_Reallocate_grow_by@V<lambda_f3a66ab6a0570788f31503db83886f49>@@_KPEBD_K@?$basic_string@DU?$char_traits@D@std@@V?$allocator@D@2@@std@@AEAAAEAV01@_KV<lambda_f3a66ab6a0570788f31503db83886f49>@@_KPEBD2@Z 000000014002e5c0 f i Session.obj
 0002:0000d8c0       ??$_Traits_compare@U?$char_traits@D@std@@@std@@YAHQEBD_K01@Z 000000014002e8c0 f i Session.obj
 0002:0000d9b0       ??$_UIntegral_to_buff@DI@std@@YAPEADPEADI@Z 000000014002e9b0 f i Session.obj
 0002:0000da70       ??$_Ucopy@PEAUClient@Persistence@TechnicalServices@@@?$vector@UClient@Persistence@TechnicalServices@@V?$allocator@UClient@Persistence@TechnicalServices@@@std@@@std@@AEAAPEAUClient@Persistence@TechnicalServices@@PEAU234@00@Z 000000014002ea70 f i Session.obj
 0002:0000db10       ??$_Ucopy@PEAV?$basic_string@DU?$char_traits@D@std@@V?$allocator@D@2@@std@@@?$vector@V?$basic_string@DU?$char_traits@D@std@@V?$allocator@D@2@@std@@V?$allocator@V?$basic_string@DU?$char_traits@D@std@@V?$allocator@D@2@@std@@@2@@std@@AEAAPEAV?$basic_string@DU?$char_traits@D@std@@V?$allocator@D@2@@1@PEAV21@00@Z 000000014002eb10 f i Session.obj
 0002:0000dbb0       ??$_Unfancy@UClient@Persistence@TechnicalServices@@@std@@YAPEAUClient@Persistence@TechnicalServices@@PEAU123@@Z 000000014002ebb0 f i Session.obj
 0002:0000dc10       ??$_Unfancy@U_Container_proxy@std@@@std@@YAPEAU_Container_proxy@0@PEAU10@@Z 000000014002ec10 f i Session.obj
 0002:0000dc70       ??$_Unfancy@V?$basic_string@DU?$char_traits@D@std@@V?$allocator@D@2@@std@@@std@@YAPEAV?$basic_string@DU?$char_traits@D@std@@V?$allocator@D@2@@0@PEAV10@@Z 000000014002ec70 f i Session.obj
 0002:0000dcd0       ??$_Uninitialized_copy@PEAUClient@Persistence@TechnicalServices@@V?$allocator@UClient@Persistence@TechnicalServices@@@std@@@std@@YAPEAUClient@Persistence@TechnicalServices@@QEAU123@0PEAU123@AEAV?$allocator@UClient@Persistence@TechnicalServices@@@0@@Z 000000014002ecd0 f i Session.obj
 0002:0000de30       ??$_Uninitialized_copy@PEAV?$basic_string@DU?$char_traits@D@std@@V?$allocator@D@2@@std@@V?$allocator@V?$basic_string@DU?$char_traits@D@std@@V?$allocator@D@2@@std@@@2@@std@@YAPEAV?$basic_string@DU?$char_traits@D@std@@V?$allocator@D@2@@0@QEAV10@0PEAV10@AEAV?$allocator@V?$basic_string@DU?$char_traits@D@std@@V?$allocator@D@2@@std@@@0@@Z 000000014002ee30 f i Session.obj
 0002:0000df90       ??$_Uninitialized_move@PEAUClient@Persistence@TechnicalServices@@V?$allocator@UClient@Persistence@TechnicalServices@@@std@@@std@@YAPEAUClient@Persistence@TechnicalServices@@QEAU123@0PEAU123@AEAV?$allocator@UClient@Persistence@TechnicalServices@@@0@@Z 000000014002ef90 f i Session.obj
 0002:0000e0f0       ??$_Uninitialized_move@PEAV?$basic_string@DU?$char_traits@D@std@@V?$allocator@D@2@@std@@V?$allocator@V?$basic_string@DU?$char_traits@D@std@@V?$allocator@D@2@@std@@@2@@std@@YAPEAV?$basic_string@DU?$char_traits@D@std@@V?$allocator@D@2@@0@QEAV10@0PEAV10@AEAV?$allocator@V?$basic_string@DU?$char_traits@D@std@@V?$allocator@D@2@@std@@@0@@Z 000000014002f0f0 f i Session.obj
 0002:0000e250       ??$_Verify_range@D@std@@YAXQEBD0@Z 000000014002f250 f i Session.obj
 0002:0000e350       ??$_Verify_range@U?$pair@$$CBV?$basic_string@DU?$char_traits@D@std@@V?$allocator@D@2@@std@@P6A?AVany@2@AEAVSessionBase@Session@Domain@@AEBV?$vector@V?$basic_string@DU?$char_traits@D@std@@V?$allocator@D@2@@std@@V?$allocator@V?$basic_string@DU?$char_traits@D@std@@V?$allocator@D@2@@std@@@2@@2@@Z@std@@@std@@YAXQEBU?$pair@$$CBV?$basic_string@DU?$char_traits@D@std@@V?$allocator@D@2@@std@@P6A?AVany@2@AEAVSessionBase@Session@Domain@@AEBV?$vector@V?$basic_string@DU?$char_traits@D@std@@V?$allocator@D@2@@std@@V?$allocator@V?$basic_string@DU?$char_traits@D@std@@V?$allocator@D@2@@std@@@2@@2@@Z@0@0@Z 000000014002f350 f i Session.obj
 0002:0000e450       ??$_Verify_range@UClient@Persistence@TechnicalServices@@@std@@YAXQEBUClient@Persistence@TechnicalServices@@0@Z 000000014002f450 f i Session.obj
 0002:0000e550       ??$addressof@$$CBD@std@@YAPEBDAEBD@Z 000000014002f550 f i Session.obj
 0002:0000e5b0       ??$addressof@$$CBV?$_String_val@U?$_Simple_types@D@std@@@std@@@std@@YAPEBV?$_String_val@U?$_Simple_types@D@std@@@0@AEBV10@@Z 000000014002f5b0 f i Session.obj
 0002:0000e610       ??$addressof@$$CBV?$_Tree_val@U?$_Tree_simple_types@U?$pair@$$CBV?$basic_string@DU?$char_traits@D@std@@V?$allocator@D@2@@std@@P6A?AVany@2@AEAVSessionBase@Session@Domain@@AEBV?$vector@V?$basic_string@DU?$char_traits@D@std@@V?$allocator@D@2@@std@@V?$allocator@V?$basic_string@DU?$char_traits@D@std@@V?$allocator@D@2@@std@@@2@@2@@Z@std@@@std@@@std@@@std@@YAPEBV?$_Tree_val@U?$_Tree_simple_types@U?$pair@$$CBV?$basic_string@DU?$char_traits@D@std@@V?$allocator@D@2@@std@@P6A?AVany@2@AEAVSessionBase@Session@Domain@@AEBV?$vector@V?$basic_string@DU?$char_traits@D@std@@V?$allocator@D@2@@std@@V?$allocator@V?$basic_string@DU?$char_traits@D@std@@V?$allocator@D@2@@std@@@2@@2@@Z@std@@@std@@@0@AEBV10@@Z 000000014002f610 f i Session.obj
 0002:0000e670       ??$addressof@$$CBV?$basic_string@DU?$char_traits@D@std@@V?$allocator@D@2@@std@@@std@@YAPEBV?$basic_string@DU?$char_traits@D@std@@V?$allocator@D@2@@0@AEBV10@@Z 000000014002f670 f i Session.obj
 0002:0000e6d0       ??$addressof@$$CBV?$vector@UClient@Persistence@TechnicalServices@@V?$allocator@UClient@Persistence@TechnicalServices@@@std@@@std@@@std@@YAPEBV?$vector@UClient@Persistence@TechnicalServices@@V?$allocator@UClient@Persistence@TechnicalServices@@@std@@@0@AEBV10@@Z 000000014002f6d0 f i Session.obj
 0002:0000e730       ??$addressof@PEAD@std@@YAPEAPEADAEAPEAD@Z 000000014002f730 f i Session.obj
 0002:0000e790       ??$addressof@PEAU?$_Tree_node@U?$pair@$$CBV?$basic_string@DU?$char_traits@D@std@@V?$allocator@D@2@@std@@P6A?AVany@2@AEAVSessionBase@Session@Domain@@AEBV?$vector@V?$basic_string@DU?$char_traits@D@std@@V?$allocator@D@2@@std@@V?$allocator@V?$basic_string@DU?$char_traits@D@std@@V?$allocator@D@2@@std@@@2@@2@@Z@std@@PEAX@std@@@std@@YAPEAPEAU?$_Tree_node@U?$pair@$$CBV?$basic_string@DU?$char_traits@D@std@@V?$allocator@D@2@@std@@P6A?AVany@2@AEAVSessionBase@Session@Domain@@AEBV?$vector@V?$basic_string@DU?$char_traits@D@std@@V?$allocator@D@2@@std@@V?$allocator@V?$basic_string@DU?$char_traits@D@std@@V?$allocator@D@2@@std@@@2@@2@@Z@std@@PEAX@0@AEAPEAU10@@Z 000000014002f790 f i Session.obj
 0002:0000e7f0       ??$addressof@PEBD@std@@YAPEAPEBDAEAPEBD@Z 000000014002f7f0 f i Session.obj
 0002:0000e850       ??$addressof@U?$pair@$$CBV?$basic_string@DU?$char_traits@D@std@@V?$allocator@D@2@@std@@P6A?AVany@2@AEAVSessionBase@Session@Domain@@AEBV?$vector@V?$basic_string@DU?$char_traits@D@std@@V?$allocator@D@2@@std@@V?$allocator@V?$basic_string@DU?$char_traits@D@std@@V?$allocator@D@2@@std@@@2@@2@@Z@std@@@std@@YAPEAU?$pair@$$CBV?$basic_string@DU?$char_traits@D@std@@V?$allocator@D@2@@std@@P6A?AVany@2@AEAVSessionBase@Session@Domain@@AEBV?$vector@V?$basic_string@DU?$char_traits@D@std@@V?$allocator@D@2@@std@@V?$allocator@V?$basic_string@DU?$char_traits@D@std@@V?$allocator@D@2@@std@@@2@@2@@Z@0@AEAU10@@Z 000000014002f850 f i Session.obj
 0002:0000e8b0       ??$addressof@U_Container_base12@std@@@std@@YAPEAU_Container_base12@0@AEAU10@@Z 000000014002f8b0 f i Session.obj
 0002:0000e910       ??$addressof@U_Container_proxy@std@@@std@@YAPEAU_Container_proxy@0@AEAU10@@Z 000000014002f910 f i Session.obj
 0002:0000e970       ??$addressof@V?$_String_val@U?$_Simple_types@D@std@@@std@@@std@@YAPEAV?$_String_val@U?$_Simple_types@D@std@@@0@AEAV10@@Z 000000014002f970 f i Session.obj
 0002:0000e9d0       ??$addressof@V?$_Tree_val@U?$_Tree_simple_types@U?$pair@$$CBV?$basic_string@DU?$char_traits@D@std@@V?$allocator@D@2@@std@@P6A?AVany@2@AEAVSessionBase@Session@Domain@@AEBV?$vector@V?$basic_string@DU?$char_traits@D@std@@V?$allocator@D@2@@std@@V?$allocator@V?$basic_string@DU?$char_traits@D@std@@V?$allocator@D@2@@std@@@2@@2@@Z@std@@@std@@@std@@@std@@YAPEAV?$_Tree_val@U?$_Tree_simple_types@U?$pair@$$CBV?$basic_string@DU?$char_traits@D@std@@V?$allocator@D@2@@std@@P6A?AVany@2@AEAVSessionBase@Session@Domain@@AEBV?$vector@V?$basic_string@DU?$char_traits@D@std@@V?$allocator@D@2@@std@@V?$allocator@V?$basic_string@DU?$char_traits@D@std@@V?$allocator@D@2@@std@@@2@@2@@Z@std@@@std@@@0@AEAV10@@Z 000000014002f9d0 f i Session.obj
 0002:0000ea30       ??$addressof@V?$basic_string@DU?$char_traits@D@std@@V?$allocator@D@2@@std@@@std@@YAPEAV?$basic_string@DU?$char_traits@D@std@@V?$allocator@D@2@@0@AEAV10@@Z 000000014002fa30 f i Session.obj
 0002:0000ea90       ??$advance@PEAUClient@Persistence@TechnicalServices@@_J@std@@YAXAEAPEAUClient@Persistence@TechnicalServices@@_J@Z 000000014002fa90 f i Session.obj
 0002:0000eb10       ??$any_cast@AEBV?$basic_string@DU?$char_traits@D@std@@V?$allocator@D@2@@std@@@std@@YAAEBV?$basic_string@DU?$char_traits@D@std@@V?$allocator@D@2@@0@AEAVany@0@@Z 000000014002fb10 f i Session.obj
 0002:0000eb90       ??$any_cast@V?$basic_string@DU?$char_traits@D@std@@V?$allocator@D@2@@std@@@std@@YAPEAV?$basic_string@DU?$char_traits@D@std@@V?$allocator@D@2@@0@QEAVany@0@@Z 000000014002fb90 f i Session.obj
 0002:0000ec10       ??$assign@PEAUClient@Persistence@TechnicalServices@@$0A@@?$vector@UClient@Persistence@TechnicalServices@@V?$allocator@UClient@Persistence@TechnicalServices@@@std@@@std@@QEAAXPEAUClient@Persistence@TechnicalServices@@0@Z 000000014002fc10 f i Session.obj
 0002:0000ed20       ??$construct@U?$pair@$$CBV?$basic_string@DU?$char_traits@D@std@@V?$allocator@D@2@@std@@P6A?AVany@2@AEAVSessionBase@Session@Domain@@AEBV?$vector@V?$basic_string@DU?$char_traits@D@std@@V?$allocator@D@2@@std@@V?$allocator@V?$basic_string@DU?$char_traits@D@std@@V?$allocator@D@2@@std@@@2@@2@@Z@std@@AEBU12@@?$_Default_allocator_traits@V?$allocator@U?$_Tree_node@U?$pair@$$CBV?$basic_string@DU?$char_traits@D@std@@V?$allocator@D@2@@std@@P6A?AVany@2@AEAVSessionBase@Session@Domain@@AEBV?$vector@V?$basic_string@DU?$char_traits@D@std@@V?$allocator@D@2@@std@@V?$allocator@V?$basic_string@DU?$char_traits@D@std@@V?$allocator@D@2@@std@@@2@@2@@Z@std@@PEAX@std@@@std@@@std@@SAXAEAV?$allocator@U?$_Tree_node@U?$pair@$$CBV?$basic_string@DU?$char_traits@D@std@@V?$allocator@D@2@@std@@P6A?AVany@2@AEAVSessionBase@Session@Domain@@AEBV?$vector@V?$basic_string@DU?$char_traits@D@std@@V?$allocator@D@2@@std@@V?$allocator@V?$basic_string@DU?$char_traits@D@std@@V?$allocator@D@2@@std@@@2@@2@@Z@std@@PEAX@std@@@1@QEAU?$pair@$$CBV?$basic_string@DU?$char_traits@D@std@@V?$allocator@D@2@@std@@P6A?AVany@2@AEAVSessionBase@Session@Domain@@AEBV?$vector@V?$basic_string@DU?$char_traits@D@std@@V?$allocator@D@2@@std@@V?$allocator@V?$basic_string@DU?$char_traits@D@std@@V?$allocator@D@2@@std@@@2@@2@@Z@1@AEBU31@@Z 000000014002fd20 f i Session.obj
 0002:0000edd0       ??$construct@UClient@Persistence@TechnicalServices@@AEAU123@@?$_Default_allocator_traits@V?$allocator@UClient@Persistence@TechnicalServices@@@std@@@std@@SAXAEAV?$allocator@UClient@Persistence@TechnicalServices@@@1@QEAUClient@Persistence@TechnicalServices@@AEAU345@@Z 000000014002fdd0 f i Session.obj
 0002:0000ee80       ??$construct@UClient@Persistence@TechnicalServices@@AEBU123@@?$_Default_allocator_traits@V?$allocator@UClient@Persistence@TechnicalServices@@@std@@@std@@SAXAEAV?$allocator@UClient@Persistence@TechnicalServices@@@1@QEAUClient@Persistence@TechnicalServices@@AEBU345@@Z 000000014002fe80 f i Session.obj
 0002:0000ef30       ??$construct@UClient@Persistence@TechnicalServices@@U123@@?$_Default_allocator_traits@V?$allocator@UClient@Persistence@TechnicalServices@@@std@@@std@@SAXAEAV?$allocator@UClient@Persistence@TechnicalServices@@@1@QEAUClient@Persistence@TechnicalServices@@$$QEAU345@@Z 000000014002ff30 f i Session.obj
 0002:0000efe0       ??$construct@V?$basic_string@DU?$char_traits@D@std@@V?$allocator@D@2@@std@@AEAV12@@?$_Default_allocator_traits@V?$allocator@V?$basic_string@DU?$char_traits@D@std@@V?$allocator@D@2@@std@@@std@@@std@@SAXAEAV?$allocator@V?$basic_string@DU?$char_traits@D@std@@V?$allocator@D@2@@std@@@1@QEAV?$basic_string@DU?$char_traits@D@std@@V?$allocator@D@2@@1@AEAV31@@Z 000000014002ffe0 f i Session.obj
 0002:0000f090       ??$construct@V?$basic_string@DU?$char_traits@D@std@@V?$allocator@D@2@@std@@AEBV12@@?$_Default_allocator_traits@V?$allocator@V?$basic_string@DU?$char_traits@D@std@@V?$allocator@D@2@@std@@@std@@@std@@SAXAEAV?$allocator@V?$basic_string@DU?$char_traits@D@std@@V?$allocator@D@2@@std@@@1@QEAV?$basic_string@DU?$char_traits@D@std@@V?$allocator@D@2@@1@AEBV31@@Z 0000000140030090 f i Session.obj
 0002:0000f140       ??$construct@V?$basic_string@DU?$char_traits@D@std@@V?$allocator@D@2@@std@@V12@@?$_Default_allocator_traits@V?$allocator@V?$basic_string@DU?$char_traits@D@std@@V?$allocator@D@2@@std@@@std@@@std@@SAXAEAV?$allocator@V?$basic_string@DU?$char_traits@D@std@@V?$allocator@D@2@@std@@@1@QEAV?$basic_string@DU?$char_traits@D@std@@V?$allocator@D@2@@1@$$QEAV31@@Z 0000000140030140 f i Session.obj
 0002:0000f1f0       ??$destroy@U?$pair@$$CBV?$basic_string@DU?$char_traits@D@std@@V?$allocator@D@2@@std@@P6A?AVany@2@AEAVSessionBase@Session@Domain@@AEBV?$vector@V?$basic_string@DU?$char_traits@D@std@@V?$allocator@D@2@@std@@V?$allocator@V?$basic_string@DU?$char_traits@D@std@@V?$allocator@D@2@@std@@@2@@2@@Z@std@@@?$_Default_allocator_traits@V?$allocator@U?$_Tree_node@U?$pair@$$CBV?$basic_string@DU?$char_traits@D@std@@V?$allocator@D@2@@std@@P6A?AVany@2@AEAVSessionBase@Session@Domain@@AEBV?$vector@V?$basic_string@DU?$char_traits@D@std@@V?$allocator@D@2@@std@@V?$allocator@V?$basic_string@DU?$char_traits@D@std@@V?$allocator@D@2@@std@@@2@@2@@Z@std@@PEAX@std@@@std@@@std@@SAXAEAV?$allocator@U?$_Tree_node@U?$pair@$$CBV?$basic_string@DU?$char_traits@D@std@@V?$allocator@D@2@@std@@P6A?AVany@2@AEAVSessionBase@Session@Domain@@AEBV?$vector@V?$basic_string@DU?$char_traits@D@std@@V?$allocator@D@2@@std@@V?$allocator@V?$basic_string@DU?$char_traits@D@std@@V?$allocator@D@2@@std@@@2@@2@@Z@std@@PEAX@std@@@1@QEAU?$pair@$$CBV?$basic_string@DU?$char_traits@D@std@@V?$allocator@D@2@@std@@P6A?AVany@2@AEAVSessionBase@Session@Domain@@AEBV?$vector@V?$basic_string@DU?$char_traits@D@std@@V?$allocator@D@2@@std@@V?$allocator@V?$basic_string@DU?$char_traits@D@std@@V?$allocator@D@2@@std@@@2@@2@@Z@1@@Z 00000001400301f0 f i Session.obj
 0002:0000f260       ??$destroy@UClient@Persistence@TechnicalServices@@@?$_Default_allocator_traits@V?$allocator@UClient@Persistence@TechnicalServices@@@std@@@std@@SAXAEAV?$allocator@UClient@Persistence@TechnicalServices@@@1@QEAUClient@Persistence@TechnicalServices@@@Z 0000000140030260 f i Session.obj
 0002:0000f2d0       ??$destroy@V?$basic_string@DU?$char_traits@D@std@@V?$allocator@D@2@@std@@@?$_Default_allocator_traits@V?$allocator@V?$basic_string@DU?$char_traits@D@std@@V?$allocator@D@2@@std@@@std@@@std@@SAXAEAV?$allocator@V?$basic_string@DU?$char_traits@D@std@@V?$allocator@D@2@@std@@@1@QEAV?$basic_string@DU?$char_traits@D@std@@V?$allocator@D@2@@1@@Z 00000001400302d0 f i Session.obj
 0002:0000f340       ??$distance@PEAUClient@Persistence@TechnicalServices@@@std@@YA_JPEAUClient@Persistence@TechnicalServices@@0@Z 0000000140030340 f i Session.obj
 0002:0000f3c0       ??$emplace_back@AEBUClient@Persistence@TechnicalServices@@@?$vector@UClient@Persistence@TechnicalServices@@V?$allocator@UClient@Persistence@TechnicalServices@@@std@@@std@@QEAA@AEBUClient@Persistence@TechnicalServices@@@Z 00000001400303c0 f i Session.obj
 0002:0000f4c0       ??$emplace_back@AEBV?$basic_string@DU?$char_traits@D@std@@V?$allocator@D@2@@std@@@?$vector@V?$basic_string@DU?$char_traits@D@std@@V?$allocator@D@2@@std@@V?$allocator@V?$basic_string@DU?$char_traits@D@std@@V?$allocator@D@2@@std@@@2@@std@@QEAA@AEBV?$basic_string@DU?$char_traits@D@std@@V?$allocator@D@2@@1@@Z 00000001400304c0 f i Session.obj
 0002:0000f5c0       ??$end@D$0BF@@std@@YAPEADAEAY0BF@D@Z 00000001400305c0 f i Session.obj
 0002:0000f620       ??$endl@DU?$char_traits@D@std@@@std@@YAAEAV?$basic_ostream@DU?$char_traits@D@std@@@0@AEAV10@@Z 0000000140030620 f i Session.obj
 0002:0000f6e0       ??$exchange@PEAU?$_Tree_node@U?$pair@$$CBV?$basic_string@DU?$char_traits@D@std@@V?$allocator@D@2@@std@@P6A?AVany@2@AEAVSessionBase@Session@Domain@@AEBV?$vector@V?$basic_string@DU?$char_traits@D@std@@V?$allocator@D@2@@std@@V?$allocator@V?$basic_string@DU?$char_traits@D@std@@V?$allocator@D@2@@std@@@2@@2@@Z@std@@PEAX@std@@$$T@std@@YAPEAU?$_Tree_node@U?$pair@$$CBV?$basic_string@DU?$char_traits@D@std@@V?$allocator@D@2@@std@@P6A?AVany@2@AEAVSessionBase@Session@Domain@@AEBV?$vector@V?$basic_string@DU?$char_traits@D@std@@V?$allocator@D@2@@std@@V?$allocator@V?$basic_string@DU?$char_traits@D@std@@V?$allocator@D@2@@std@@@2@@2@@Z@std@@PEAX@0@AEAPEAU10@$$QEA$$T@Z 00000001400306e0 f i Session.obj
 0002:0000f770       ??$exchange@PEAU?$_Tree_node@U?$pair@$$CBV?$basic_string@DU?$char_traits@D@std@@V?$allocator@D@2@@std@@P6A?AVany@2@AEAVSessionBase@Session@Domain@@AEBV?$vector@V?$basic_string@DU?$char_traits@D@std@@V?$allocator@D@2@@std@@V?$allocator@V?$basic_string@DU?$char_traits@D@std@@V?$allocator@D@2@@std@@@2@@2@@Z@std@@PEAX@std@@AEAPEAU12@@std@@YAPEAU?$_Tree_node@U?$pair@$$CBV?$basic_string@DU?$char_traits@D@std@@V?$allocator@D@2@@std@@P6A?AVany@2@AEAVSessionBase@Session@Domain@@AEBV?$vector@V?$basic_string@DU?$char_traits@D@std@@V?$allocator@D@2@@std@@V?$allocator@V?$basic_string@DU?$char_traits@D@std@@V?$allocator@D@2@@std@@@2@@2@@Z@std@@PEAX@0@AEAPEAU10@0@Z 0000000140030770 f i Session.obj
 0002:0000f800       ??$exchange@PEAU_Container_proxy@std@@$$T@std@@YAPEAU_Container_proxy@0@AEAPEAU10@$$QEA$$T@Z 0000000140030800 f i Session.obj
 0002:0000f890       ??$forward@A6A?AVany@std@@AEAVSessionBase@Session@Domain@@AEBV?$vector@V?$basic_string@DU?$char_traits@D@std@@V?$allocator@D@2@@std@@V?$allocator@V?$basic_string@DU?$char_traits@D@std@@V?$allocator@D@2@@std@@@2@@2@@Z@std@@YAA6A?AVany@0@AEAVSessionBase@Session@Domain@@AEBV?$vector@V?$basic_string@DU?$char_traits@D@std@@V?$allocator@D@2@@std@@V?$allocator@V?$basic_string@DU?$char_traits@D@std@@V?$allocator@D@2@@std@@@2@@0@@ZA6A?AV10@01@Z@Z 0000000140030890 f i Session.obj
 0002:0000f8f0       ??$forward@AEAPEAU?$_Tree_node@U?$pair@$$CBV?$basic_string@DU?$char_traits@D@std@@V?$allocator@D@2@@std@@P6A?AVany@2@AEAVSessionBase@Session@Domain@@AEBV?$vector@V?$basic_string@DU?$char_traits@D@std@@V?$allocator@D@2@@std@@V?$allocator@V?$basic_string@DU?$char_traits@D@std@@V?$allocator@D@2@@std@@@2@@2@@Z@std@@PEAX@std@@@std@@YAAEAPEAU?$_Tree_node@U?$pair@$$CBV?$basic_string@DU?$char_traits@D@std@@V?$allocator@D@2@@std@@P6A?AVany@2@AEAVSessionBase@Session@Domain@@AEBV?$vector@V?$basic_string@DU?$char_traits@D@std@@V?$allocator@D@2@@std@@V?$allocator@V?$basic_string@DU?$char_traits@D@std@@V?$allocator@D@2@@std@@@2@@2@@Z@std@@PEAX@0@AEAPEAU10@@Z 00000001400308f0 f i Session.obj
 0002:0000f950       ??$forward@AEAUClient@Persistence@TechnicalServices@@@std@@YAAEAUClient@Persistence@TechnicalServices@@AEAU123@@Z 0000000140030950 f i Session.obj
 0002:0000f9b0       ??$forward@AEAV?$basic_string@DU?$char_traits@D@std@@V?$allocator@D@2@@std@@@std@@YAAEAV?$basic_string@DU?$char_traits@D@std@@V?$allocator@D@2@@0@AEAV10@@Z 00000001400309b0 f i Session.obj
 0002:0000fa10       ??$forward@AEAY04$$CBD@std@@YAAEAY04$$CBDAEAY04$$CBD@Z 0000000140030a10 f i Session.obj
 0002:0000fa70       ??$forward@AEAY09$$CBD@std@@YAAEAY09$$CBDAEAY09$$CBD@Z 0000000140030a70 f i Session.obj
 0002:0000fad0       ??$forward@AEAY0BA@$$CBD@std@@YAAEAY0BA@$$CBDAEAY0BA@$$CBD@Z 0000000140030ad0 f i Session.obj
 0002:0000fb30       ??$forward@AEAY0BB@$$CBD@std@@YAAEAY0BB@$$CBDAEAY0BB@$$CBD@Z 0000000140030b30 f i Session.obj
 0002:0000fb90       ??$forward@AEAY0BE@$$CBD@std@@YAAEAY0BE@$$CBDAEAY0BE@$$CBD@Z 0000000140030b90 f i Session.obj
 0002:0000fbf0       ??$forward@AEAY0BH@$$CBD@std@@YAAEAY0BH@$$CBDAEAY0BH@$$CBD@Z 0000000140030bf0 f i Session.obj
 0002:0000fc50       ??$forward@AEAY0O@$$CBD@std@@YAAEAY0O@$$CBDAEAY0O@$$CBD@Z 0000000140030c50 f i Session.obj
 0002:0000fcb0       ??$forward@AEAY0P@$$CBD@std@@YAAEAY0P@$$CBDAEAY0P@$$CBD@Z 0000000140030cb0 f i Session.obj
 0002:0000fd10       ??$forward@AEBQEAD@std@@YAAEBQEADAEBQEAD@Z 0000000140030d10 f i Session.obj
 0002:0000fd70       ??$forward@AEBQEAU?$_Tree_node@U?$pair@$$CBV?$basic_string@DU?$char_traits@D@std@@V?$allocator@D@2@@std@@P6A?AVany@2@AEAVSessionBase@Session@Domain@@AEBV?$vector@V?$basic_string@DU?$char_traits@D@std@@V?$allocator@D@2@@std@@V?$allocator@V?$basic_string@DU?$char_traits@D@std@@V?$allocator@D@2@@std@@@2@@2@@Z@std@@PEAX@std@@@std@@YAAEBQEAU?$_Tree_node@U?$pair@$$CBV?$basic_string@DU?$char_traits@D@std@@V?$allocator@D@2@@std@@P6A?AVany@2@AEAVSessionBase@Session@Domain@@AEBV?$vector@V?$basic_string@DU?$char_traits@D@std@@V?$allocator@D@2@@std@@V?$allocator@V?$basic_string@DU?$char_traits@D@std@@V?$allocator@D@2@@std@@@2@@2@@Z@std@@PEAX@0@AEBQEAU10@@Z 0000000140030d70 f i Session.obj
 0002:0000fdd0       ??$forward@AEBU?$less@V?$basic_string@DU?$char_traits@D@std@@V?$allocator@D@2@@std@@@std@@@std@@YAAEBU?$less@V?$basic_string@DU?$char_traits@D@std@@V?$allocator@D@2@@std@@@0@AEBU10@@Z 0000000140030dd0 f i Session.obj
 0002:0000fe30       ??$forward@AEBU?$pair@$$CBV?$basic_string@DU?$char_traits@D@std@@V?$allocator@D@2@@std@@P6A?AVany@2@AEAVSessionBase@Session@Domain@@AEBV?$vector@V?$basic_string@DU?$char_traits@D@std@@V?$allocator@D@2@@std@@V?$allocator@V?$basic_string@DU?$char_traits@D@std@@V?$allocator@D@2@@std@@@2@@2@@Z@std@@@std@@YAAEBU?$pair@$$CBV?$basic_string@DU?$char_traits@D@std@@V?$allocator@D@2@@std@@P6A?AVany@2@AEAVSessionBase@Session@Domain@@AEBV?$vector@V?$basic_string@DU?$char_traits@D@std@@V?$allocator@D@2@@std@@V?$allocator@V?$basic_string@DU?$char_traits@D@std@@V?$allocator@D@2@@std@@@2@@2@@Z@0@AEBU10@@Z 0000000140030e30 f i Session.obj
 0002:0000fe90       ??$forward@AEBV?$allocator@D@std@@@std@@YAAEBV?$allocator@D@0@AEBV10@@Z 0000000140030e90 f i Session.obj
 0002:0000fef0       ??$forward@AEBV?$basic_string@DU?$char_traits@D@std@@V?$allocator@D@2@@std@@@std@@YAAEBV?$basic_string@DU?$char_traits@D@std@@V?$allocator@D@2@@0@AEBV10@@Z 0000000140030ef0 f i Session.obj
 0002:0000ff50       ??$forward@PEAU_Container_base12@std@@@std@@YA$$QEAPEAU_Container_base12@0@AEAPEAU10@@Z 0000000140030f50 f i Session.obj
 0002:0000ffb0       ??$forward@UClient@Persistence@TechnicalServices@@@std@@YA$$QEAUClient@Persistence@TechnicalServices@@AEAU123@@Z 0000000140030fb0 f i Session.obj
 0002:00010010       ??$forward@U_Zero_then_variadic_args_t@std@@@std@@YA$$QEAU_Zero_then_variadic_args_t@0@AEAU10@@Z 0000000140031010 f i Session.obj
 0002:00010070       ??$forward@V?$allocator@D@std@@@std@@YA$$QEAV?$allocator@D@0@AEAV10@@Z 0000000140031070 f i Session.obj
 0002:000100d0       ??$forward@V?$allocator@UClient@Persistence@TechnicalServices@@@std@@@std@@YA$$QEAV?$allocator@UClient@Persistence@TechnicalServices@@@0@AEAV10@@Z 00000001400310d0 f i Session.obj
 0002:00010130       ??$forward@V?$allocator@V?$basic_string@DU?$char_traits@D@std@@V?$allocator@D@2@@std@@@std@@@std@@YA$$QEAV?$allocator@V?$basic_string@DU?$char_traits@D@std@@V?$allocator@D@2@@std@@@0@AEAV10@@Z 0000000140031130 f i Session.obj
 0002:00010190       ??$forward@V?$basic_string@DU?$char_traits@D@std@@V?$allocator@D@2@@std@@@std@@YA$$QEAV?$basic_string@DU?$char_traits@D@std@@V?$allocator@D@2@@0@AEAV10@@Z 0000000140031190 f i Session.obj
 0002:000101f0       ??$get@$00$$CBV?$basic_string@DU?$char_traits@D@std@@V?$allocator@D@2@@std@@P6A?AVany@2@AEAVSessionBase@Session@Domain@@AEBV?$vector@V?$basic_string@DU?$char_traits@D@std@@V?$allocator@D@2@@std@@V?$allocator@V?$basic_string@DU?$char_traits@D@std@@V?$allocator@D@2@@std@@@2@@2@@Z@std@@YAAEBQ6A?AVany@0@AEAVSessionBase@Session@Domain@@AEBV?$vector@V?$basic_string@DU?$char_traits@D@std@@V?$allocator@D@2@@std@@V?$allocator@V?$basic_string@DU?$char_traits@D@std@@V?$allocator@D@2@@std@@@2@@0@@ZAEBU?$pair@$$CBV?$basic_string@DU?$char_traits@D@std@@V?$allocator@D@2@@std@@P6A?AVany@2@AEAVSessionBase@Session@Domain@@AEBV?$vector@V?$basic_string@DU?$char_traits@D@std@@V?$allocator@D@2@@std@@V?$allocator@V?$basic_string@DU?$char_traits@D@std@@V?$allocator@D@2@@std@@@2@@2@@Z@0@@Z 00000001400311f0 f i Session.obj
 0002:00010260       ??$get@$0A@$$CBV?$basic_string@DU?$char_traits@D@std@@V?$allocator@D@2@@std@@P6A?AVany@2@AEAVSessionBase@Session@Domain@@AEBV?$vector@V?$basic_string@DU?$char_traits@D@std@@V?$allocator@D@2@@std@@V?$allocator@V?$basic_string@DU?$char_traits@D@std@@V?$allocator@D@2@@std@@@2@@2@@Z@std@@YAAEBV?$basic_string@DU?$char_traits@D@std@@V?$allocator@D@2@@0@AEBU?$pair@$$CBV?$basic_string@DU?$char_traits@D@std@@V?$allocator@D@2@@std@@P6A?AVany@2@AEAVSessionBase@Session@Domain@@AEBV?$vector@V?$basic_string@DU?$char_traits@D@std@@V?$allocator@D@2@@std@@V?$allocator@V?$basic_string@DU?$char_traits@D@std@@V?$allocator@D@2@@std@@@2@@2@@Z@0@@Z 0000000140031260 f i Session.obj
 0002:000102d0       ??$insert@PEBU?$pair@$$CBV?$basic_string@DU?$char_traits@D@std@@V?$allocator@D@2@@std@@P6A?AVany@2@AEAVSessionBase@Session@Domain@@AEBV?$vector@V?$basic_string@DU?$char_traits@D@std@@V?$allocator@D@2@@std@@V?$allocator@V?$basic_string@DU?$char_traits@D@std@@V?$allocator@D@2@@std@@@2@@2@@Z@std@@@?$_Tree@V?$_Tmap_traits@V?$basic_string@DU?$char_traits@D@std@@V?$allocator@D@2@@std@@P6A?AVany@2@AEAVSessionBase@Session@Domain@@AEBV?$vector@V?$basic_string@DU?$char_traits@D@std@@V?$allocator@D@2@@std@@V?$allocator@V?$basic_string@DU?$char_traits@D@std@@V?$allocator@D@2@@std@@@2@@2@@ZU?$less@V?$basic_string@DU?$char_traits@D@std@@V?$allocator@D@2@@std@@@2@V?$allocator@U?$pair@$$CBV?$basic_string@DU?$char_traits@D@std@@V?$allocator@D@2@@std@@P6A?AVany@2@AEAVSessionBase@Session@Domain@@AEBV?$vector@V?$basic_string@DU?$char_traits@D@std@@V?$allocator@D@2@@std@@V?$allocator@V?$basic_string@DU?$char_traits@D@std@@V?$allocator@D@2@@std@@@2@@2@@Z@std@@@2@$0A@@std@@@std@@QEAAXPEBU?$pair@$$CBV?$basic_string@DU?$char_traits@D@std@@V?$allocator@D@2@@std@@P6A?AVany@2@AEAVSessionBase@Session@Domain@@AEBV?$vector@V?$basic_string@DU?$char_traits@D@std@@V?$allocator@D@2@@std@@V?$allocator@V?$basic_string@DU?$char_traits@D@std@@V?$allocator@D@2@@std@@@2@@2@@Z@1@0@Z 00000001400312d0 f i Session.obj
 0002:000103c0       ??$max@_K@std@@YAAEB_KAEB_K0@Z 00000001400313c0 f i Session.obj
 0002:00010480       ??$min@_K@std@@YAAEB_KAEB_K0@Z 0000000140031480 f i Session.obj
 0002:00010540       ??$move@AEAUClient@Persistence@TechnicalServices@@@std@@YA$$QEAUClient@Persistence@TechnicalServices@@AEAU123@@Z 0000000140031540 f i Session.obj
 0002:000105a0       ??$move@AEAV?$allocator@D@std@@@std@@YA$$QEAV?$allocator@D@0@AEAV10@@Z 00000001400315a0 f i Session.obj
 0002:00010600       ??$move@AEAV?$allocator@V?$basic_string@DU?$char_traits@D@std@@V?$allocator@D@2@@std@@@std@@@std@@YA$$QEAV?$allocator@V?$basic_string@DU?$char_traits@D@std@@V?$allocator@D@2@@std@@@0@AEAV10@@Z 0000000140031600 f i Session.obj
 0002:00010660       ??$move@AEAV?$basic_string@DU?$char_traits@D@std@@V?$allocator@D@2@@std@@@std@@YA$$QEAV?$basic_string@DU?$char_traits@D@std@@V?$allocator@D@2@@0@AEAV10@@Z 0000000140031660 f i Session.obj
 0002:000106c0       ??$next@PEAUClient@Persistence@TechnicalServices@@@std@@YAPEAUClient@Persistence@TechnicalServices@@PEAU123@_J@Z 00000001400316c0 f i Session.obj
 0002:00010740       ??0?$_Alloc_construct_ptr@V?$allocator@U?$_Tree_node@U?$pair@$$CBV?$basic_string@DU?$char_traits@D@std@@V?$allocator@D@2@@std@@P6A?AVany@2@AEAVSessionBase@Session@Domain@@AEBV?$vector@V?$basic_string@DU?$char_traits@D@std@@V?$allocator@D@2@@std@@V?$allocator@V?$basic_string@DU?$char_traits@D@std@@V?$allocator@D@2@@std@@@2@@2@@Z@std@@PEAX@std@@@std@@@std@@QEAA@AEAV?$allocator@U?$_Tree_node@U?$pair@$$CBV?$basic_string@DU?$char_traits@D@std@@V?$allocator@D@2@@std@@P6A?AVany@2@AEAVSessionBase@Session@Domain@@AEBV?$vector@V?$basic_string@DU?$char_traits@D@std@@V?$allocator@D@2@@std@@V?$allocator@V?$basic_string@DU?$char_traits@D@std@@V?$allocator@D@2@@std@@@2@@2@@Z@std@@PEAX@std@@@1@@Z 0000000140031740 f i Session.obj
 0002:000107d0       ??0?$_Container_proxy_ptr12@V?$allocator@U_Container_proxy@std@@@std@@@std@@QEAA@AEAV?$allocator@U_Container_proxy@std@@@1@AEAU_Container_base12@1@@Z 00000001400317d0 f i Session.obj
 0002:000108d0       ??0?$_String_val@U?$_Simple_types@D@std@@@std@@QEAA@XZ 00000001400318d0 f i Session.obj
 0002:00010980       ??0?$_Tree@V?$_Tmap_traits@V?$basic_string@DU?$char_traits@D@std@@V?$allocator@D@2@@std@@P6A?AVany@2@AEAVSessionBase@Session@Domain@@AEBV?$vector@V?$basic_string@DU?$char_traits@D@std@@V?$allocator@D@2@@std@@V?$allocator@V?$basic_string@DU?$char_traits@D@std@@V?$allocator@D@2@@std@@@2@@2@@ZU?$less@V?$basic_string@DU?$char_traits@D@std@@V?$allocator@D@2@@std@@@2@V?$allocator@U?$pair@$$CBV?$basic_string@DU?$char_traits@D@std@@V?$allocator@D@2@@std@@P6A?AVany@2@AEAVSessionBase@Session@Domain@@AEBV?$vector@V?$basic_string@DU?$char_traits@D@std@@V?$allocator@D@2@@std@@V?$allocator@V?$basic_string@DU?$char_traits@D@std@@V?$allocator@D@2@@std@@@2@@2@@Z@std@@@2@$0A@@std@@@std@@QEAA@AEBU?$less@V?$basic_string@DU?$char_traits@D@std@@V?$allocator@D@2@@std@@@1@@Z 0000000140031980 f i Session.obj
 0002:00010a30       ??0?$_Tree_const_iterator@V?$_Tree_val@U?$_Tree_simple_types@U?$pair@$$CBV?$basic_string@DU?$char_traits@D@std@@V?$allocator@D@2@@std@@P6A?AVany@2@AEAVSessionBase@Session@Domain@@AEBV?$vector@V?$basic_string@DU?$char_traits@D@std@@V?$allocator@D@2@@std@@V?$allocator@V?$basic_string@DU?$char_traits@D@std@@V?$allocator@D@2@@std@@@2@@2@@Z@std@@@std@@@std@@@std@@QEAA@PEAU?$_Tree_node@U?$pair@$$CBV?$basic_string@DU?$char_traits@D@std@@V?$allocator@D@2@@std@@P6A?AVany@2@AEAVSessionBase@Session@Domain@@AEBV?$vector@V?$basic_string@DU?$char_traits@D@std@@V?$allocator@D@2@@std@@V?$allocator@V?$basic_string@DU?$char_traits@D@std@@V?$allocator@D@2@@std@@@2@@2@@Z@std@@PEAX@1@PEBV?$_Tree_val@U?$_Tree_simple_types@U?$pair@$$CBV?$basic_string@DU?$char_traits@D@std@@V?$allocator@D@2@@std@@P6A?AVany@2@AEAVSessionBase@Session@Domain@@AEBV?$vector@V?$basic_string@DU?$char_traits@D@std@@V?$allocator@D@2@@std@@V?$allocator@V?$basic_string@DU?$char_traits@D@std@@V?$allocator@D@2@@std@@@2@@2@@Z@std@@@std@@@1@@Z 0000000140031a30 f i Session.obj
 0002:00010ab0       ??0?$_Tree_iterator@V?$_Tree_val@U?$_Tree_simple_types@U?$pair@$$CBV?$basic_string@DU?$char_traits@D@std@@V?$allocator@D@2@@std@@P6A?AVany@2@AEAVSessionBase@Session@Domain@@AEBV?$vector@V?$basic_string@DU?$char_traits@D@std@@V?$allocator@D@2@@std@@V?$allocator@V?$basic_string@DU?$char_traits@D@std@@V?$allocator@D@2@@std@@@2@@2@@Z@std@@@std@@@std@@@std@@QEAA@PEAU?$_Tree_node@U?$pair@$$CBV?$basic_string@DU?$char_traits@D@std@@V?$allocator@D@2@@std@@P6A?AVany@2@AEAVSessionBase@Session@Domain@@AEBV?$vector@V?$basic_string@DU?$char_traits@D@std@@V?$allocator@D@2@@std@@V?$allocator@V?$basic_string@DU?$char_traits@D@std@@V?$allocator@D@2@@std@@@2@@2@@Z@std@@PEAX@1@PEBV?$_Tree_val@U?$_Tree_simple_types@U?$pair@$$CBV?$basic_string@DU?$char_traits@D@std@@V?$allocator@D@2@@std@@P6A?AVany@2@AEAVSessionBase@Session@Domain@@AEBV?$vector@V?$basic_string@DU?$char_traits@D@std@@V?$allocator@D@2@@std@@V?$allocator@V?$basic_string@DU?$char_traits@D@std@@V?$allocator@D@2@@std@@@2@@2@@Z@std@@@std@@@1@@Z 0000000140031ab0 f i Session.obj
 0002:00010b30       ??0?$_Tree_temp_node_alloc@V?$allocator@U?$_Tree_node@U?$pair@$$CBV?$basic_string@DU?$char_traits@D@std@@V?$allocator@D@2@@std@@P6A?AVany@2@AEAVSessionBase@Session@Domain@@AEBV?$vector@V?$basic_string@DU?$char_traits@D@std@@V?$allocator@D@2@@std@@V?$allocator@V?$basic_string@DU?$char_traits@D@std@@V?$allocator@D@2@@std@@@2@@2@@Z@std@@PEAX@std@@@std@@@std@@QEAA@AEAV?$allocator@U?$_Tree_node@U?$pair@$$CBV?$basic_string@DU?$char_traits@D@std@@V?$allocator@D@2@@std@@P6A?AVany@2@AEAVSessionBase@Session@Domain@@AEBV?$vector@V?$basic_string@DU?$char_traits@D@std@@V?$allocator@D@2@@std@@V?$allocator@V?$basic_string@DU?$char_traits@D@std@@V?$allocator@D@2@@std@@@2@@2@@Z@std@@PEAX@std@@@1@@Z 0000000140031b30 f i Session.obj
 0002:00010bc0       ??0?$_Tree_unchecked_const_iterator@V?$_Tree_val@U?$_Tree_simple_types@U?$pair@$$CBV?$basic_string@DU?$char_traits@D@std@@V?$allocator@D@2@@std@@P6A?AVany@2@AEAVSessionBase@Session@Domain@@AEBV?$vector@V?$basic_string@DU?$char_traits@D@std@@V?$allocator@D@2@@std@@V?$allocator@V?$basic_string@DU?$char_traits@D@std@@V?$allocator@D@2@@std@@@2@@2@@Z@std@@@std@@@std@@U_Iterator_base0@2@@std@@QEAA@PEAU?$_Tree_node@U?$pair@$$CBV?$basic_string@DU?$char_traits@D@std@@V?$allocator@D@2@@std@@P6A?AVany@2@AEAVSessionBase@Session@Domain@@AEBV?$vector@V?$basic_string@DU?$char_traits@D@std@@V?$allocator@D@2@@std@@V?$allocator@V?$basic_string@DU?$char_traits@D@std@@V?$allocator@D@2@@std@@@2@@2@@Z@std@@PEAX@1@PEBV?$_Tree_val@U?$_Tree_simple_types@U?$pair@$$CBV?$basic_string@DU?$char_traits@D@std@@V?$allocator@D@2@@std@@P6A?AVany@2@AEAVSessionBase@Session@Domain@@AEBV?$vector@V?$basic_string@DU?$char_traits@D@std@@V?$allocator@D@2@@std@@V?$allocator@V?$basic_string@DU?$char_traits@D@std@@V?$allocator@D@2@@std@@@2@@2@@Z@std@@@std@@@1@@Z 0000000140031bc0 f i Session.obj
 0002:00010c60       ??0?$_Tree_unchecked_const_iterator@V?$_Tree_val@U?$_Tree_simple_types@U?$pair@$$CBV?$basic_string@DU?$char_traits@D@std@@V?$allocator@D@2@@std@@P6A?AVany@2@AEAVSessionBase@Session@Domain@@AEBV?$vector@V?$basic_string@DU?$char_traits@D@std@@V?$allocator@D@2@@std@@V?$allocator@V?$basic_string@DU?$char_traits@D@std@@V?$allocator@D@2@@std@@@2@@2@@Z@std@@@std@@@std@@U_Iterator_base12@2@@std@@QEAA@PEAU?$_Tree_node@U?$pair@$$CBV?$basic_string@DU?$char_traits@D@std@@V?$allocator@D@2@@std@@P6A?AVany@2@AEAVSessionBase@Session@Domain@@AEBV?$vector@V?$basic_string@DU?$char_traits@D@std@@V?$allocator@D@2@@std@@V?$allocator@V?$basic_string@DU?$char_traits@D@std@@V?$allocator@D@2@@std@@@2@@2@@Z@std@@PEAX@1@PEBV?$_Tree_val@U?$_Tree_simple_types@U?$pair@$$CBV?$basic_string@DU?$char_traits@D@std@@V?$allocator@D@2@@std@@P6A?AVany@2@AEAVSessionBase@Session@Domain@@AEBV?$vector@V?$basic_string@DU?$char_traits@D@std@@V?$allocator@D@2@@std@@V?$allocator@V?$basic_string@DU?$char_traits@D@std@@V?$allocator@D@2@@std@@@2@@2@@Z@std@@@std@@@1@@Z 0000000140031c60 f i Session.obj
 0002:00010d10       ??0?$_Tree_unchecked_iterator@V?$_Tree_val@U?$_Tree_simple_types@U?$pair@$$CBV?$basic_string@DU?$char_traits@D@std@@V?$allocator@D@2@@std@@P6A?AVany@2@AEAVSessionBase@Session@Domain@@AEBV?$vector@V?$basic_string@DU?$char_traits@D@std@@V?$allocator@D@2@@std@@V?$allocator@V?$basic_string@DU?$char_traits@D@std@@V?$allocator@D@2@@std@@@2@@2@@Z@std@@@std@@@std@@@std@@QEAA@PEAU?$_Tree_node@U?$pair@$$CBV?$basic_string@DU?$char_traits@D@std@@V?$allocator@D@2@@std@@P6A?AVany@2@AEAVSessionBase@Session@Domain@@AEBV?$vector@V?$basic_string@DU?$char_traits@D@std@@V?$allocator@D@2@@std@@V?$allocator@V?$basic_string@DU?$char_traits@D@std@@V?$allocator@D@2@@std@@@2@@2@@Z@std@@PEAX@1@PEBV?$_Tree_val@U?$_Tree_simple_types@U?$pair@$$CBV?$basic_string@DU?$char_traits@D@std@@V?$allocator@D@2@@std@@P6A?AVany@2@AEAVSessionBase@Session@Domain@@AEBV?$vector@V?$basic_string@DU?$char_traits@D@std@@V?$allocator@D@2@@std@@V?$allocator@V?$basic_string@DU?$char_traits@D@std@@V?$allocator@D@2@@std@@@2@@2@@Z@std@@@std@@@1@@Z 0000000140031d10 f i Session.obj
 0002:00010d90       ??0?$_Tree_val@U?$_Tree_simple_types@U?$pair@$$CBV?$basic_string@DU?$char_traits@D@std@@V?$allocator@D@2@@std@@P6A?AVany@2@AEAVSessionBase@Session@Domain@@AEBV?$vector@V?$basic_string@DU?$char_traits@D@std@@V?$allocator@D@2@@std@@V?$allocator@V?$basic_string@DU?$char_traits@D@std@@V?$allocator@D@2@@std@@@2@@2@@Z@std@@@std@@@std@@QEAA@XZ 0000000140031d90 f i Session.obj
 0002:00010e20       ??0?$_Uninitialized_backout_al@V?$allocator@UClient@Persistence@TechnicalServices@@@std@@@std@@QEAA@PEAUClient@Persistence@TechnicalServices@@AEAV?$allocator@UClient@Persistence@TechnicalServices@@@1@@Z 0000000140031e20 f i Session.obj
 0002:00010ed0       ??0?$_Uninitialized_backout_al@V?$allocator@V?$basic_string@DU?$char_traits@D@std@@V?$allocator@D@2@@std@@@std@@@std@@QEAA@PEAV?$basic_string@DU?$char_traits@D@std@@V?$allocator@D@2@@1@AEAV?$allocator@V?$basic_string@DU?$char_traits@D@std@@V?$allocator@D@2@@std@@@1@@Z 0000000140031ed0 f i Session.obj
 0002:00010f80       ??0?$_Vector_val@U?$_Simple_types@UClient@Persistence@TechnicalServices@@@std@@@std@@QEAA@XZ 0000000140031f80 f i Session.obj
 0002:00011020       ??0?$_Vector_val@U?$_Simple_types@V?$basic_string@DU?$char_traits@D@std@@V?$allocator@D@2@@std@@@std@@@std@@QEAA@XZ 0000000140032020 f i Session.obj
 0002:000110c0       ??0?$allocator@D@std@@QEAA@XZ 00000001400320c0 f i Session.obj
 0002:00011120       ??0?$allocator@U?$_Tree_node@U?$pair@$$CBV?$basic_string@DU?$char_traits@D@std@@V?$allocator@D@2@@std@@P6A?AVany@2@AEAVSessionBase@Session@Domain@@AEBV?$vector@V?$basic_string@DU?$char_traits@D@std@@V?$allocator@D@2@@std@@V?$allocator@V?$basic_string@DU?$char_traits@D@std@@V?$allocator@D@2@@std@@@2@@2@@Z@std@@PEAX@std@@@std@@QEAA@XZ 0000000140032120 f i Session.obj
 0002:00011180       ??0?$allocator@UClient@Persistence@TechnicalServices@@@std@@QEAA@XZ 0000000140032180 f i Session.obj
 0002:000111e0       ??0?$allocator@V?$basic_string@DU?$char_traits@D@std@@V?$allocator@D@2@@std@@@std@@QEAA@XZ 00000001400321e0 f i Session.obj
 0002:00011240       ??0?$basic_string@DU?$char_traits@D@std@@V?$allocator@D@2@@std@@QEAA@$$QEAV01@@Z 0000000140032240 f i Session.obj
 0002:00011390       ??0?$basic_string@DU?$char_traits@D@std@@V?$allocator@D@2@@std@@QEAA@AEBV01@@Z 0000000140032390 f i Session.obj
 0002:00011520       ??0?$basic_string@DU?$char_traits@D@std@@V?$allocator@D@2@@std@@QEAA@QEBD@Z 0000000140032520 f i Session.obj
 0002:00011680       ??0?$basic_string@DU?$char_traits@D@std@@V?$allocator@D@2@@std@@QEAA@U_String_constructor_concat_tag@1@AEBV01@QEBD_K23@Z 0000000140032680 f i Session.obj
 0002:000119b0       ??0?$basic_string@DU?$char_traits@D@std@@V?$allocator@D@2@@std@@QEAA@XZ 00000001400329b0 f i Session.obj
 0002:00011a90       ??0?$initializer_list@U?$pair@$$CBV?$basic_string@DU?$char_traits@D@std@@V?$allocator@D@2@@std@@P6A?AVany@2@AEAVSessionBase@Session@Domain@@AEBV?$vector@V?$basic_string@DU?$char_traits@D@std@@V?$allocator@D@2@@std@@V?$allocator@V?$basic_string@DU?$char_traits@D@std@@V?$allocator@D@2@@std@@@2@@2@@Z@std@@@std@@QEAA@PEBU?$pair@$$CBV?$basic_string@DU?$char_traits@D@std@@V?$allocator@D@2@@std@@P6A?AVany@2@AEAVSessionBase@Session@Domain@@AEBV?$vector@V?$basic_string@DU?$char_traits@D@std@@V?$allocator@D@2@@std@@V?$allocator@V?$basic_string@DU?$char_traits@D@std@@V?$allocator@D@2@@std@@@2@@2@@Z@1@0@Z 0000000140032a90 f i Session.obj
 0002:00011b30       ??0?$map@V?$basic_string@DU?$char_traits@D@std@@V?$allocator@D@2@@std@@P6A?AVany@2@AEAVSessionBase@Session@Domain@@AEBV?$vector@V?$basic_string@DU?$char_traits@D@std@@V?$allocator@D@2@@std@@V?$allocator@V?$basic_string@DU?$char_traits@D@std@@V?$allocator@D@2@@std@@@2@@2@@ZU?$less@V?$basic_string@DU?$char_traits@D@std@@V?$allocator@D@2@@std@@@2@V?$allocator@U?$pair@$$CBV?$basic_string@DU?$char_traits@D@std@@V?$allocator@D@2@@std@@P6A?AVany@2@AEAVSessionBase@Session@Domain@@AEBV?$vector@V?$basic_string@DU?$char_traits@D@std@@V?$allocator@D@2@@std@@V?$allocator@V?$basic_string@DU?$char_traits@D@std@@V?$allocator@D@2@@std@@@2@@2@@Z@std@@@2@@std@@QEAA@XZ 0000000140032b30 f i Session.obj
 0002:00011ba0       ??0?$pair@$$CBV?$basic_string@DU?$char_traits@D@std@@V?$allocator@D@2@@std@@P6A?AVany@2@AEAVSessionBase@Session@Domain@@AEBV?$vector@V?$basic_string@DU?$char_traits@D@std@@V?$allocator@D@2@@std@@V?$allocator@V?$basic_string@DU?$char_traits@D@std@@V?$allocator@D@2@@std@@@2@@2@@Z@std@@QEAA@AEBU01@@Z 0000000140032ba0 f i Session.obj
 0002:00011c50       ??0?$vector@UClient@Persistence@TechnicalServices@@V?$allocator@UClient@Persistence@TechnicalServices@@@std@@@std@@QEAA@AEBV01@@Z 0000000140032c50 f i Session.obj
 0002:00011eb0       ??0?$vector@UClient@Persistence@TechnicalServices@@V?$allocator@UClient@Persistence@TechnicalServices@@@std@@@std@@QEAA@XZ 0000000140032eb0 f i Session.obj
 0002:00011f80       ??0?$vector@V?$basic_string@DU?$char_traits@D@std@@V?$allocator@D@2@@std@@V?$allocator@V?$basic_string@DU?$char_traits@D@std@@V?$allocator@D@2@@std@@@2@@std@@QEAA@$$QEAV01@@Z 0000000140032f80 f i Session.obj
 0002:000120d0       ??0?$vector@V?$basic_string@DU?$char_traits@D@std@@V?$allocator@D@2@@std@@V?$allocator@V?$basic_string@DU?$char_traits@D@std@@V?$allocator@D@2@@std@@@2@@std@@QEAA@AEBV01@@Z 00000001400330d0 f i Session.obj
 0002:00012330       ??0?$vector@V?$basic_string@DU?$char_traits@D@std@@V?$allocator@D@2@@std@@V?$allocator@V?$basic_string@DU?$char_traits@D@std@@V?$allocator@D@2@@std@@@2@@std@@QEAA@XZ 0000000140033330 f i Session.obj
 0002:00012400       ??0AssistantSession@Session@Domain@@QEAA@AEBUUserCredentials@Persistence@TechnicalServices@@@Z 0000000140033400 f   Session.obj
 0002:00012730       ??0BadCommand@SessionHandler@Session@Domain@@QEAA@AEBU0123@@Z 0000000140033730 f i Session.obj
 0002:000127b0       ??0BadCommand@SessionHandler@Session@Domain@@QEAA@AEBV?$basic_string@DU?$char_traits@D@std@@V?$allocator@D@2@@std@@@Z 00000001400337b0 f i Session.obj
 0002:00012830       ??0Client@Persistence@TechnicalServices@@QEAA@$$QEAU012@@Z 0000000140033830 f i Session.obj
 0002:000128d0       ??0Client@Persistence@TechnicalServices@@QEAA@AEBU012@@Z 00000001400338d0 f i Session.obj
 0002:00012970       ??0ClientDomain@Client@Domain@@QEAA@AEBV?$basic_string@DU?$char_traits@D@std@@V?$allocator@D@2@@std@@AEBU1Persistence@TechnicalServices@@@Z 0000000140033970 f   Session.obj
 0002:00012bc0       ??0ClientHandler@Client@Domain@@QEAA@XZ 0000000140033bc0 f i Session.obj
 0002:00012c20       ??0ClientSession@Client@Domain@@QEAA@AEBU1Persistence@TechnicalServices@@@Z 0000000140033c20 f   Session.obj
 0002:00012dd0       ??0ITAdministratorSession@Session@Domain@@QEAA@AEBUUserCredentials@Persistence@TechnicalServices@@@Z 0000000140033dd0 f   Session.obj
 0002:00013060       ??0SalesManagerSession@Session@Domain@@QEAA@AEBUUserCredentials@Persistence@TechnicalServices@@@Z 0000000140034060 f   Session.obj
 0002:000132d0       ??0SalespersonSession@Session@Domain@@QEAA@AEBUUserCredentials@Persistence@TechnicalServices@@@Z 00000001400342d0 f   Session.obj
 0002:00013540       ??0SessionBase@Session@Domain@@QEAA@AEBV?$basic_string@DU?$char_traits@D@std@@V?$allocator@D@2@@std@@AEBUUserCredentials@Persistence@TechnicalServices@@@Z 0000000140034540 f   Session.obj
 0002:00013790       ??0SessionException@SessionHandler@Session@Domain@@QEAA@AEBU0123@@Z 0000000140034790 f i Session.obj
 0002:00013810       ??0SessionException@SessionHandler@Session@Domain@@QEAA@AEBV?$basic_string@DU?$char_traits@D@std@@V?$allocator@D@2@@std@@@Z 0000000140034810 f i Session.obj
 0002:00013890       ??0SessionHandler@Session@Domain@@QEAA@XZ 0000000140034890 f i Session.obj
 0002:000138f0       ??0UserCredentials@Persistence@TechnicalServices@@QEAA@AEBU012@@Z 00000001400348f0 f i Session.obj
 0002:000139e0       ??0_Bxty@?$_String_val@U?$_Simple_types@D@std@@@std@@QEAA@XZ 00000001400349e0 f i Session.obj
 0002:00013a40       ??0_Container_base12@std@@QEAA@XZ 0000000140034a40 f i Session.obj
 0002:00013ab0       ??0_Container_proxy@std@@QEAA@PEAU_Container_base12@1@@Z 0000000140034ab0 f i Session.obj
 0002:00013b40       ??0_Iterator_base12@std@@QEAA@XZ 0000000140034b40 f i Session.obj
 0002:00013bc0       ??0_Sentry_base@?$basic_ostream@DU?$char_traits@D@std@@@std@@QEAA@AEAV12@@Z 0000000140034bc0 f i Session.obj
 0002:00013ca0       ??0any@std@@QEAA@$$QEAV01@@Z 0000000140034ca0 f i Session.obj
 0002:00013d40       ??0any@std@@QEAA@XZ        0000000140034d40 f i Session.obj
 0002:00013dc0       ??0bad_alloc@std@@AEAA@QEBD@Z 0000000140034dc0 f i Session.obj
 0002:00013e60       ??0bad_alloc@std@@QEAA@AEBV01@@Z 0000000140034e60 f i Session.obj
 0002:00013ee0       ??0bad_any_cast@std@@QEAA@AEBV01@@Z 0000000140034ee0 f i Session.obj
 0002:00013f60       ??0bad_any_cast@std@@QEAA@XZ 0000000140034f60 f i Session.obj
 0002:00013fd0       ??0bad_array_new_length@std@@QEAA@AEBV01@@Z 0000000140034fd0 f i Session.obj
 0002:00014050       ??0bad_array_new_length@std@@QEAA@XZ 0000000140035050 f i Session.obj
 0002:000140e0       ??0bad_cast@std@@QEAA@AEBV01@@Z 00000001400350e0 f i Session.obj
 0002:00014160       ??0bad_cast@std@@QEAA@XZ   0000000140035160 f i Session.obj
 0002:000141f0       ??0exception@std@@QEAA@AEBV01@@Z 00000001400351f0 f i Session.obj
 0002:000142b0       ??0exception@std@@QEAA@QEBD@Z 00000001400352b0 f i Session.obj
 0002:000143c0       ??0exception@std@@QEAA@QEBDH@Z 00000001400353c0 f i Session.obj
 0002:00014470       ??0runtime_error@std@@QEAA@AEBV01@@Z 0000000140035470 f i Session.obj
 0002:000144f0       ??0runtime_error@std@@QEAA@AEBV?$basic_string@DU?$char_traits@D@std@@V?$allocator@D@2@@1@@Z 00000001400354f0 f i Session.obj
 0002:00014590       ??0sentry@?$basic_ostream@DU?$char_traits@D@std@@@std@@QEAA@AEAV12@@Z 0000000140035590 f i Session.obj
 0002:00014700       ??1?$_Alloc_construct_ptr@V?$allocator@U?$_Tree_node@U?$pair@$$CBV?$basic_string@DU?$char_traits@D@std@@V?$allocator@D@2@@std@@P6A?AVany@2@AEAVSessionBase@Session@Domain@@AEBV?$vector@V?$basic_string@DU?$char_traits@D@std@@V?$allocator@D@2@@std@@V?$allocator@V?$basic_string@DU?$char_traits@D@std@@V?$allocator@D@2@@std@@@2@@2@@Z@std@@PEAX@std@@@std@@@std@@QEAA@XZ 0000000140035700 f i Session.obj
 0002:000147a0       ??1?$_Compressed_pair@V?$allocator@D@std@@V?$_String_val@U?$_Simple_types@D@std@@@2@$00@std@@QEAA@XZ 00000001400357a0 f i Session.obj
 0002:00014800       ??1?$_Container_proxy_ptr12@V?$allocator@U_Container_proxy@std@@@std@@@std@@QEAA@XZ 0000000140035800 f i Session.obj
 0002:00014890       ??1?$_String_val@U?$_Simple_types@D@std@@@std@@QEAA@XZ 0000000140035890 f i Session.obj
 0002:000148f0       ??1?$_Tidy_guard@V?$vector@UClient@Persistence@TechnicalServices@@V?$allocator@UClient@Persistence@TechnicalServices@@@std@@@std@@@std@@QEAA@XZ 00000001400358f0 f i Session.obj
 0002:00014970       ??1?$_Tidy_guard@V?$vector@V?$basic_string@DU?$char_traits@D@std@@V?$allocator@D@2@@std@@V?$allocator@V?$basic_string@DU?$char_traits@D@std@@V?$allocator@D@2@@std@@@2@@std@@@std@@QEAA@XZ 0000000140035970 f i Session.obj
 0002:000149f0       ??1?$_Tree@V?$_Tmap_traits@V?$basic_string@DU?$char_traits@D@std@@V?$allocator@D@2@@std@@P6A?AVany@2@AEAVSessionBase@Session@Domain@@AEBV?$vector@V?$basic_string@DU?$char_traits@D@std@@V?$allocator@D@2@@std@@V?$allocator@V?$basic_string@DU?$char_traits@D@std@@V?$allocator@D@2@@std@@@2@@2@@ZU?$less@V?$basic_string@DU?$char_traits@D@std@@V?$allocator@D@2@@std@@@2@V?$allocator@U?$pair@$$CBV?$basic_string@DU?$char_traits@D@std@@V?$allocator@D@2@@std@@P6A?AVany@2@AEAVSessionBase@Session@Domain@@AEBV?$vector@V?$basic_string@DU?$char_traits@D@std@@V?$allocator@D@2@@std@@V?$allocator@V?$basic_string@DU?$char_traits@D@std@@V?$allocator@D@2@@std@@@2@@2@@Z@std@@@2@$0A@@std@@@std@@QEAA@XZ 00000001400359f0 f i Session.obj
 0002:00014af0       ??1?$_Tree_const_iterator@V?$_Tree_val@U?$_Tree_simple_types@U?$pair@$$CBV?$basic_string@DU?$char_traits@D@std@@V?$allocator@D@2@@std@@P6A?AVany@2@AEAVSessionBase@Session@Domain@@AEBV?$vector@V?$basic_string@DU?$char_traits@D@std@@V?$allocator@D@2@@std@@V?$allocator@V?$basic_string@DU?$char_traits@D@std@@V?$allocator@D@2@@std@@@2@@2@@Z@std@@@std@@@std@@@std@@QEAA@XZ 0000000140035af0 f i Session.obj
 0002:00014b40       ??1?$_Tree_iterator@V?$_Tree_val@U?$_Tree_simple_types@U?$pair@$$CBV?$basic_string@DU?$char_traits@D@std@@V?$allocator@D@2@@std@@P6A?AVany@2@AEAVSessionBase@Session@Domain@@AEBV?$vector@V?$basic_string@DU?$char_traits@D@std@@V?$allocator@D@2@@std@@V?$allocator@V?$basic_string@DU?$char_traits@D@std@@V?$allocator@D@2@@std@@@2@@2@@Z@std@@@std@@@std@@@std@@QEAA@XZ 0000000140035b40 f i Session.obj
 0002:00014b90       ??1?$_Tree_temp_node@V?$allocator@U?$_Tree_node@U?$pair@$$CBV?$basic_string@DU?$char_traits@D@std@@V?$allocator@D@2@@std@@P6A?AVany@2@AEAVSessionBase@Session@Domain@@AEBV?$vector@V?$basic_string@DU?$char_traits@D@std@@V?$allocator@D@2@@std@@V?$allocator@V?$basic_string@DU?$char_traits@D@std@@V?$allocator@D@2@@std@@@2@@2@@Z@std@@PEAX@std@@@std@@@std@@QEAA@XZ 0000000140035b90 f i Session.obj
 0002:00014cb0       ??1?$_Tree_temp_node_alloc@V?$allocator@U?$_Tree_node@U?$pair@$$CBV?$basic_string@DU?$char_traits@D@std@@V?$allocator@D@2@@std@@P6A?AVany@2@AEAVSessionBase@Session@Domain@@AEBV?$vector@V?$basic_string@DU?$char_traits@D@std@@V?$allocator@D@2@@std@@V?$allocator@V?$basic_string@DU?$char_traits@D@std@@V?$allocator@D@2@@std@@@2@@2@@Z@std@@PEAX@std@@@std@@@std@@QEAA@XZ 0000000140035cb0 f i Session.obj
 0002:00014d00       ??1?$_Tree_unchecked_const_iterator@V?$_Tree_val@U?$_Tree_simple_types@U?$pair@$$CBV?$basic_string@DU?$char_traits@D@std@@V?$allocator@D@2@@std@@P6A?AVany@2@AEAVSessionBase@Session@Domain@@AEBV?$vector@V?$basic_string@DU?$char_traits@D@std@@V?$allocator@D@2@@std@@V?$allocator@V?$basic_string@DU?$char_traits@D@std@@V?$allocator@D@2@@std@@@2@@2@@Z@std@@@std@@@std@@U_Iterator_base12@2@@std@@QEAA@XZ 0000000140035d00 f i Session.obj
 0002:00014d50       ??1?$_Uninitialized_backout_al@V?$allocator@UClient@Persistence@TechnicalServices@@@std@@@std@@QEAA@XZ 0000000140035d50 f i Session.obj
 0002:00014dd0       ??1?$_Uninitialized_backout_al@V?$allocator@V?$basic_string@DU?$char_traits@D@std@@V?$allocator@D@2@@std@@@std@@@std@@QEAA@XZ 0000000140035dd0 f i Session.obj
 0002:00014e50       ??1?$basic_string@DU?$char_traits@D@std@@V?$allocator@D@2@@std@@QEAA@XZ 0000000140035e50 f i Session.obj
 0002:00014f60       ??1?$map@V?$basic_string@DU?$char_traits@D@std@@V?$allocator@D@2@@std@@P6A?AVany@2@AEAVSessionBase@Session@Domain@@AEBV?$vector@V?$basic_string@DU?$char_traits@D@std@@V?$allocator@D@2@@std@@V?$allocator@V?$basic_string@DU?$char_traits@D@std@@V?$allocator@D@2@@std@@@2@@2@@ZU?$less@V?$basic_string@DU?$char_traits@D@std@@V?$allocator@D@2@@std@@@2@V?$allocator@U?$pair@$$CBV?$basic_string@DU?$char_traits@D@std@@V?$allocator@D@2@@std@@P6A?AVany@2@AEAVSessionBase@Session@Domain@@AEBV?$vector@V?$basic_string@DU?$char_traits@D@std@@V?$allocator@D@2@@std@@V?$allocator@V?$basic_string@DU?$char_traits@D@std@@V?$allocator@D@2@@std@@@2@@2@@Z@std@@@2@@std@@QEAA@XZ 0000000140035f60 f i Session.obj
 0002:00014fb0       ??1?$pair@$$CBV?$basic_string@DU?$char_traits@D@std@@V?$allocator@D@2@@std@@P6A?AVany@2@AEAVSessionBase@Session@Domain@@AEBV?$vector@V?$basic_string@DU?$char_traits@D@std@@V?$allocator@D@2@@std@@V?$allocator@V?$basic_string@DU?$char_traits@D@std@@V?$allocator@D@2@@std@@@2@@2@@Z@std@@QEAA@XZ 0000000140035fb0 f i Session.obj
 0002:00015010       ??1?$unique_ptr@VLoggerHandler@Logging@TechnicalServices@@U?$default_delete@VLoggerHandler@Logging@TechnicalServices@@@std@@@std@@QEAA@XZ 0000000140036010 f i Session.obj
 0002:000150c0       ??1?$vector@UClient@Persistence@TechnicalServices@@V?$allocator@UClient@Persistence@TechnicalServices@@@std@@@std@@QEAA@XZ 00000001400360c0 f i Session.obj
 0002:000151c0       ??1?$vector@V?$basic_string@DU?$char_traits@D@std@@V?$allocator@D@2@@std@@V?$allocator@V?$basic_string@DU?$char_traits@D@std@@V?$allocator@D@2@@std@@@2@@std@@QEAA@XZ 00000001400361c0 f i Session.obj
 0002:000152c0       ??1AssistantSession@Session@Domain@@UEAA@XZ 00000001400362c0 f i Session.obj
 0002:00015310       ??1BadCommand@SessionHandler@Session@Domain@@UEAA@XZ 0000000140036310 f i Session.obj
 0002:00015360       ??1Client@Persistence@TechnicalServices@@QEAA@XZ 0000000140036360 f i Session.obj
 0002:000153c0       ??1ClientDomain@Client@Domain@@UEAA@XZ 00000001400363c0 f i Session.obj
 0002:00015550       ??1ClientSession@Client@Domain@@UEAA@XZ 0000000140036550 f i Session.obj
 0002:000155a0       ??1ITAdministratorSession@Session@Domain@@UEAA@XZ 00000001400365a0 f i Session.obj
 0002:000155f0       ??1SalesManagerSession@Session@Domain@@UEAA@XZ 00000001400365f0 f i Session.obj
 0002:00015640       ??1SalespersonSession@Session@Domain@@UEAA@XZ 0000000140036640 f i Session.obj
 0002:00015690       ??1SessionBase@Session@Domain@@UEAA@XZ 0000000140036690 f   Session.obj
 0002:00015830       ??1SessionException@SessionHandler@Session@Domain@@UEAA@XZ 0000000140036830 f i Session.obj
 0002:00015880       ??1UserCredentials@Persistence@TechnicalServices@@QEAA@XZ 0000000140036880 f i Session.obj
 0002:00015910       ??1_Bxty@?$_String_val@U?$_Simple_types@D@std@@@std@@QEAA@XZ 0000000140036910 f i Session.obj
 0002:00015970       ??1_Iterator_base12@std@@QEAA@XZ 0000000140036970 f i Session.obj
 0002:00015a30       ??1_Sentry_base@?$basic_ostream@DU?$char_traits@D@std@@@std@@QEAA@XZ 0000000140036a30 f i Session.obj
 0002:00015af0       ??1any@std@@QEAA@XZ        0000000140036af0 f i Session.obj
 0002:00015b50       ??1bad_alloc@std@@UEAA@XZ  0000000140036b50 f i Session.obj
 0002:00015ba0       ??1bad_any_cast@std@@UEAA@XZ 0000000140036ba0 f i Session.obj
 0002:00015bf0       ??1bad_array_new_length@std@@UEAA@XZ 0000000140036bf0 f i Session.obj
 0002:00015c40       ??1bad_cast@std@@UEAA@XZ   0000000140036c40 f i Session.obj
 0002:00015c90       ??1exception@std@@UEAA@XZ  0000000140036c90 f i Session.obj
 0002:00015d10       ??1runtime_error@std@@UEAA@XZ 0000000140036d10 f i Session.obj
 0002:00015d60       ??1sentry@?$basic_ostream@DU?$char_traits@D@std@@@std@@QEAA@XZ 0000000140036d60 f i Session.obj
 0002:00015e10       ??2@YAPEAX_KPEAX@Z         0000000140036e10 f i Session.obj
 0002:00015e70       ??4?$basic_string@DU?$char_traits@D@std@@V?$allocator@D@2@@std@@QEAAAEAV01@AEBV01@@Z 0000000140036e70 f i Session.obj
 0002:00015f30       ??4?$map@V?$basic_string@DU?$char_traits@D@std@@V?$allocator@D@2@@std@@P6A?AVany@2@AEAVSessionBase@Session@Domain@@AEBV?$vector@V?$basic_string@DU?$char_traits@D@std@@V?$allocator@D@2@@std@@V?$allocator@V?$basic_string@DU?$char_traits@D@std@@V?$allocator@D@2@@std@@@2@@2@@ZU?$less@V?$basic_string@DU?$char_traits@D@std@@V?$allocator@D@2@@std@@@2@V?$allocator@U?$pair@$$CBV?$basic_string@DU?$char_traits@D@std@@V?$allocator@D@2@@std@@P6A?AVany@2@AEAVSessionBase@Session@Domain@@AEBV?$vector@V?$basic_string@DU?$char_traits@D@std@@V?$allocator@D@2@@std@@V?$allocator@V?$basic_string@DU?$char_traits@D@std@@V?$allocator@D@2@@std@@@2@@2@@Z@std@@@2@@std@@QEAAAEAV01@V?$initializer_list@U?$pair@$$CBV?$basic_string@DU?$char_traits@D@std@@V?$allocator@D@2@@std@@P6A?AVany@2@AEAVSessionBase@Session@Domain@@AEBV?$vector@V?$basic_string@DU?$char_traits@D@std@@V?$allocator@D@2@@std@@V?$allocator@V?$basic_string@DU?$char_traits@D@std@@V?$allocator@D@2@@std@@@2@@2@@Z@std@@@1@@Z 0000000140036f30 f i Session.obj
 0002:00015fe0       ??4?$vector@UClient@Persistence@TechnicalServices@@V?$allocator@UClient@Persistence@TechnicalServices@@@std@@@std@@QEAAAEAV01@AEBV01@@Z 0000000140036fe0 f i Session.obj
 0002:000160a0       ??4Client@Persistence@TechnicalServices@@QEAAAEAU012@AEBU012@@Z 00000001400370a0 f i Session.obj
 0002:00016130       ??8?$_Tree_const_iterator@V?$_Tree_val@U?$_Tree_simple_types@U?$pair@$$CBV?$basic_string@DU?$char_traits@D@std@@V?$allocator@D@2@@std@@P6A?AVany@2@AEAVSessionBase@Session@Domain@@AEBV?$vector@V?$basic_string@DU?$char_traits@D@std@@V?$allocator@D@2@@std@@V?$allocator@V?$basic_string@DU?$char_traits@D@std@@V?$allocator@D@2@@std@@@2@@2@@Z@std@@@std@@@std@@@std@@QEBA_NAEBV01@@Z 0000000140037130 f i Session.obj
 0002:000162a0       ??9?$_Tree_unchecked_const_iterator@V?$_Tree_val@U?$_Tree_simple_types@U?$pair@$$CBV?$basic_string@DU?$char_traits@D@std@@V?$allocator@D@2@@std@@P6A?AVany@2@AEAVSessionBase@Session@Domain@@AEBV?$vector@V?$basic_string@DU?$char_traits@D@std@@V?$allocator@D@2@@std@@V?$allocator@V?$basic_string@DU?$char_traits@D@std@@V?$allocator@D@2@@std@@@2@@2@@Z@std@@@std@@@std@@U_Iterator_base0@2@@std@@QEBA_NU_Default_sentinel@1@@Z 00000001400372a0 f i Session.obj
 0002:00016330       ??9type_info@@QEBA_NAEBV0@@Z 0000000140037330 f i Session.obj
 0002:000163e0       ??A?$vector@V?$basic_string@DU?$char_traits@D@std@@V?$allocator@D@2@@std@@V?$allocator@V?$basic_string@DU?$char_traits@D@std@@V?$allocator@D@2@@std@@@2@@std@@QEBAAEBV?$basic_string@DU?$char_traits@D@std@@V?$allocator@D@2@@1@_K@Z 00000001400373e0 f i Session.obj
 0002:00016520       ??Bsentry@?$basic_ostream@DU?$char_traits@D@std@@@std@@QEBA_NXZ 0000000140037520 f i Session.obj
 0002:00016580       ??C?$_Tree_iterator@V?$_Tree_val@U?$_Tree_simple_types@U?$pair@$$CBV?$basic_string@DU?$char_traits@D@std@@V?$allocator@D@2@@std@@P6A?AVany@2@AEAVSessionBase@Session@Domain@@AEBV?$vector@V?$basic_string@DU?$char_traits@D@std@@V?$allocator@D@2@@std@@V?$allocator@V?$basic_string@DU?$char_traits@D@std@@V?$allocator@D@2@@std@@@2@@2@@Z@std@@@std@@@std@@@std@@QEBAPEAU?$pair@$$CBV?$basic_string@DU?$char_traits@D@std@@V?$allocator@D@2@@std@@P6A?AVany@2@AEAVSessionBase@Session@Domain@@AEBV?$vector@V?$basic_string@DU?$char_traits@D@std@@V?$allocator@D@2@@std@@V?$allocator@V?$basic_string@DU?$char_traits@D@std@@V?$allocator@D@2@@std@@@2@@2@@Z@1@XZ 0000000140037580 f i Session.obj
 0002:000165f0       ??D?$_Tree_const_iterator@V?$_Tree_val@U?$_Tree_simple_types@U?$pair@$$CBV?$basic_string@DU?$char_traits@D@std@@V?$allocator@D@2@@std@@P6A?AVany@2@AEAVSessionBase@Session@Domain@@AEBV?$vector@V?$basic_string@DU?$char_traits@D@std@@V?$allocator@D@2@@std@@V?$allocator@V?$basic_string@DU?$char_traits@D@std@@V?$allocator@D@2@@std@@@2@@2@@Z@std@@@std@@@std@@@std@@QEBAAEBU?$pair@$$CBV?$basic_string@DU?$char_traits@D@std@@V?$allocator@D@2@@std@@P6A?AVany@2@AEAVSessionBase@Session@Domain@@AEBV?$vector@V?$basic_string@DU?$char_traits@D@std@@V?$allocator@D@2@@std@@V?$allocator@V?$basic_string@DU?$char_traits@D@std@@V?$allocator@D@2@@std@@@2@@2@@Z@1@XZ 00000001400375f0 f i Session.obj
 0002:000167b0       ??D?$_Tree_iterator@V?$_Tree_val@U?$_Tree_simple_types@U?$pair@$$CBV?$basic_string@DU?$char_traits@D@std@@V?$allocator@D@2@@std@@P6A?AVany@2@AEAVSessionBase@Session@Domain@@AEBV?$vector@V?$basic_string@DU?$char_traits@D@std@@V?$allocator@D@2@@std@@V?$allocator@V?$basic_string@DU?$char_traits@D@std@@V?$allocator@D@2@@std@@@2@@2@@Z@std@@@std@@@std@@@std@@QEBAAEAU?$pair@$$CBV?$basic_string@DU?$char_traits@D@std@@V?$allocator@D@2@@std@@P6A?AVany@2@AEAVSessionBase@Session@Domain@@AEBV?$vector@V?$basic_string@DU?$char_traits@D@std@@V?$allocator@D@2@@std@@V?$allocator@V?$basic_string@DU?$char_traits@D@std@@V?$allocator@D@2@@std@@@2@@2@@Z@1@XZ 00000001400377b0 f i Session.obj
 0002:00016810       ??D?$_Tree_unchecked_const_iterator@V?$_Tree_val@U?$_Tree_simple_types@U?$pair@$$CBV?$basic_string@DU?$char_traits@D@std@@V?$allocator@D@2@@std@@P6A?AVany@2@AEAVSessionBase@Session@Domain@@AEBV?$vector@V?$basic_string@DU?$char_traits@D@std@@V?$allocator@D@2@@std@@V?$allocator@V?$basic_string@DU?$char_traits@D@std@@V?$allocator@D@2@@std@@@2@@2@@Z@std@@@std@@@std@@U_Iterator_base0@2@@std@@QEBAAEBU?$pair@$$CBV?$basic_string@DU?$char_traits@D@std@@V?$allocator@D@2@@std@@P6A?AVany@2@AEAVSessionBase@Session@Domain@@AEBV?$vector@V?$basic_string@DU?$char_traits@D@std@@V?$allocator@D@2@@std@@V?$allocator@V?$basic_string@DU?$char_traits@D@std@@V?$allocator@D@2@@std@@@2@@2@@Z@1@XZ 0000000140037810 f i Session.obj
 0002:00016880       ??D?$_Tree_unchecked_iterator@V?$_Tree_val@U?$_Tree_simple_types@U?$pair@$$CBV?$basic_string@DU?$char_traits@D@std@@V?$allocator@D@2@@std@@P6A?AVany@2@AEAVSessionBase@Session@Domain@@AEBV?$vector@V?$basic_string@DU?$char_traits@D@std@@V?$allocator@D@2@@std@@V?$allocator@V?$basic_string@DU?$char_traits@D@std@@V?$allocator@D@2@@std@@@2@@2@@Z@std@@@std@@@std@@@std@@QEBAAEAU?$pair@$$CBV?$basic_string@DU?$char_traits@D@std@@V?$allocator@D@2@@std@@P6A?AVany@2@AEAVSessionBase@Session@Domain@@AEBV?$vector@V?$basic_string@DU?$char_traits@D@std@@V?$allocator@D@2@@std@@V?$allocator@V?$basic_string@DU?$char_traits@D@std@@V?$allocator@D@2@@std@@@2@@2@@Z@1@XZ 0000000140037880 f i Session.obj
 0002:000168e0       ??D?$unique_ptr@VLoggerHandler@Logging@TechnicalServices@@U?$default_delete@VLoggerHandler@Logging@TechnicalServices@@@std@@@std@@QEBAAEAVLoggerHandler@Logging@TechnicalServices@@XZ 00000001400378e0 f i Session.obj
 0002:00016940       ??E?$_Tree_unchecked_const_iterator@V?$_Tree_val@U?$_Tree_simple_types@U?$pair@$$CBV?$basic_string@DU?$char_traits@D@std@@V?$allocator@D@2@@std@@P6A?AVany@2@AEAVSessionBase@Session@Domain@@AEBV?$vector@V?$basic_string@DU?$char_traits@D@std@@V?$allocator@D@2@@std@@V?$allocator@V?$basic_string@DU?$char_traits@D@std@@V?$allocator@D@2@@std@@@2@@2@@Z@std@@@std@@@std@@U_Iterator_base0@2@@std@@QEAAAEAV01@XZ 0000000140037940 f i Session.obj
 0002:00016a40       ??E?$_Tree_unchecked_iterator@V?$_Tree_val@U?$_Tree_simple_types@U?$pair@$$CBV?$basic_string@DU?$char_traits@D@std@@V?$allocator@D@2@@std@@P6A?AVany@2@AEAVSessionBase@Session@Domain@@AEBV?$vector@V?$basic_string@DU?$char_traits@D@std@@V?$allocator@D@2@@std@@V?$allocator@V?$basic_string@DU?$char_traits@D@std@@V?$allocator@D@2@@std@@@2@@2@@Z@std@@@std@@@std@@@std@@QEAAAEAV01@XZ 0000000140037a40 f i Session.obj
 0002:00016ab0       ??F?$_Tree_unchecked_const_iterator@V?$_Tree_val@U?$_Tree_simple_types@U?$pair@$$CBV?$basic_string@DU?$char_traits@D@std@@V?$allocator@D@2@@std@@P6A?AVany@2@AEAVSessionBase@Session@Domain@@AEBV?$vector@V?$basic_string@DU?$char_traits@D@std@@V?$allocator@D@2@@std@@V?$allocator@V?$basic_string@DU?$char_traits@D@std@@V?$allocator@D@2@@std@@@2@@2@@Z@std@@@std@@@std@@U_Iterator_base0@2@@std@@QEAAAEAV01@XZ 0000000140037ab0 f i Session.obj
 0002:00016c00       ??R<lambda_319d5e083f45f90dcdce5dce53cbb275>@@QEBA@QEADQEBD_KD@Z 0000000140037c00 f i Session.obj
 0002:00016cf0       ??R<lambda_65e615be2a453ca0576c979606f46740>@@QEBA@QEADQEBD_K12@Z 0000000140037cf0 f i Session.obj
 0002:00016df0       ??R<lambda_66f57f934f28d61049862f64df852ff0>@@QEBA@QEAD_KQEBD@Z 0000000140037df0 f i Session.obj
 0002:00016eb0       ??R<lambda_f3a66ab6a0570788f31503db83886f49>@@QEBA@QEADQEBD_K212@Z 0000000140037eb0 f i Session.obj
 0002:00016ff0       ??R?$default_delete@VLoggerHandler@Logging@TechnicalServices@@@std@@QEBAXPEAVLoggerHandler@Logging@TechnicalServices@@@Z 0000000140037ff0 f i Session.obj
 0002:000170b0       ??R?$less@V?$basic_string@DU?$char_traits@D@std@@V?$allocator@D@2@@std@@@std@@QEBA_NAEBV?$basic_string@DU?$char_traits@D@std@@V?$allocator@D@2@@1@0@Z 00000001400380b0 f i Session.obj
 0002:00017130       ??Y?$basic_string@DU?$char_traits@D@std@@V?$allocator@D@2@@std@@QEAAAEAV01@AEBV01@@Z 0000000140038130 f i Session.obj
 0002:000171a0       ??_G?$basic_string@DU?$char_traits@D@std@@V?$allocator@D@2@@std@@QEAAPEAXI@Z 00000001400381a0 f i Session.obj
 0002:00017230       ??_G?$pair@$$CBV?$basic_string@DU?$char_traits@D@std@@V?$allocator@D@2@@std@@P6A?AVany@2@AEAVSessionBase@Session@Domain@@AEBV?$vector@V?$basic_string@DU?$char_traits@D@std@@V?$allocator@D@2@@std@@V?$allocator@V?$basic_string@DU?$char_traits@D@std@@V?$allocator@D@2@@std@@@2@@2@@Z@std@@QEAAPEAXI@Z 0000000140038230 f i Session.obj
 0002:000172c0       ??_GAssistantSession@Session@Domain@@UEAAPEAXI@Z 00000001400382c0 f i Session.obj
 0002:000172c0       ??_EAssistantSession@Session@Domain@@UEAAPEAXI@Z 00000001400382c0 f i Session.obj
 0002:00017350       ??_GBadCommand@SessionHandler@Session@Domain@@UEAAPEAXI@Z 0000000140038350 f i Session.obj
 0002:00017350       ??_EBadCommand@SessionHandler@Session@Domain@@UEAAPEAXI@Z 0000000140038350 f i Session.obj
 0002:000173e0       ??_GClient@Persistence@TechnicalServices@@QEAAPEAXI@Z 00000001400383e0 f i Session.obj
 0002:00017470       ??_EClientSession@Client@Domain@@UEAAPEAXI@Z 0000000140038470 f i Session.obj
 0002:00017470       ??_GClientSession@Client@Domain@@UEAAPEAXI@Z 0000000140038470 f i Session.obj
 0002:00017500       ??_GITAdministratorSession@Session@Domain@@UEAAPEAXI@Z 0000000140038500 f i Session.obj
 0002:00017500       ??_EITAdministratorSession@Session@Domain@@UEAAPEAXI@Z 0000000140038500 f i Session.obj
 0002:00017590       ??_GSalesManagerSession@Session@Domain@@UEAAPEAXI@Z 0000000140038590 f i Session.obj
 0002:00017590       ??_ESalesManagerSession@Session@Domain@@UEAAPEAXI@Z 0000000140038590 f i Session.obj
 0002:00017620       ??_ESalespersonSession@Session@Domain@@UEAAPEAXI@Z 0000000140038620 f i Session.obj
 0002:00017620       ??_GSalespersonSession@Session@Domain@@UEAAPEAXI@Z 0000000140038620 f i Session.obj
 0002:000176b0       ??_ESessionException@SessionHandler@Session@Domain@@UEAAPEAXI@Z 00000001400386b0 f i Session.obj
 0002:000176b0       ??_GSessionException@SessionHandler@Session@Domain@@UEAAPEAXI@Z 00000001400386b0 f i Session.obj
 0002:00017740       ??_Ebad_alloc@std@@UEAAPEAXI@Z 0000000140038740 f i Session.obj
 0002:00017740       ??_Gbad_alloc@std@@UEAAPEAXI@Z 0000000140038740 f i Session.obj
 0002:000177d0       ??_Ebad_any_cast@std@@UEAAPEAXI@Z 00000001400387d0 f i Session.obj
 0002:000177d0       ??_Gbad_any_cast@std@@UEAAPEAXI@Z 00000001400387d0 f i Session.obj
 0002:00017860       ??_Ebad_array_new_length@std@@UEAAPEAXI@Z 0000000140038860 f i Session.obj
 0002:00017860       ??_Gbad_array_new_length@std@@UEAAPEAXI@Z 0000000140038860 f i Session.obj
 0002:000178f0       ??_Ebad_cast@std@@UEAAPEAXI@Z 00000001400388f0 f i Session.obj
 0002:000178f0       ??_Gbad_cast@std@@UEAAPEAXI@Z 00000001400388f0 f i Session.obj
 0002:00017980       ??_Eexception@std@@UEAAPEAXI@Z 0000000140038980 f i Session.obj
 0002:00017980       ??_Gexception@std@@UEAAPEAXI@Z 0000000140038980 f i Session.obj
 0002:00017a10       ??_Gruntime_error@std@@UEAAPEAXI@Z 0000000140038a10 f i Session.obj
 0002:00017a10       ??_Eruntime_error@std@@UEAAPEAXI@Z 0000000140038a10 f i Session.obj
 0002:00017aa0       ?ClientsDB@ClientDomain@Client@Domain@@UEAA?AV?$vector@UClient@Persistence@TechnicalServices@@V?$allocator@UClient@Persistence@TechnicalServices@@@std@@@std@@AEBV45@@Z 0000000140038aa0 f   Session.obj
 0002:00017c10       ?_Adjust_manually_vector_aligned@std@@YAXAEAPEAXAEA_K@Z 0000000140038c10 f i Session.obj
 0002:00017e70       ?_Adopt@_Iterator_base0@std@@QEAAXPEBX@Z 0000000140038e70 f i Session.obj
 0002:00017ed0       ?_Adopt@_Iterator_base12@std@@QEAAXPEBU_Container_base12@2@@Z 0000000140038ed0 f i Session.obj
 0002:00018030       ?_Alloc_sentinel_and_proxy@?$_Tree@V?$_Tmap_traits@V?$basic_string@DU?$char_traits@D@std@@V?$allocator@D@2@@std@@P6A?AVany@2@AEAVSessionBase@Session@Domain@@AEBV?$vector@V?$basic_string@DU?$char_traits@D@std@@V?$allocator@D@2@@std@@V?$allocator@V?$basic_string@DU?$char_traits@D@std@@V?$allocator@D@2@@std@@@2@@2@@ZU?$less@V?$basic_string@DU?$char_traits@D@std@@V?$allocator@D@2@@std@@@2@V?$allocator@U?$pair@$$CBV?$basic_string@DU?$char_traits@D@std@@V?$allocator@D@2@@std@@P6A?AVany@2@AEAVSessionBase@Session@Domain@@AEBV?$vector@V?$basic_string@DU?$char_traits@D@std@@V?$allocator@D@2@@std@@V?$allocator@V?$basic_string@DU?$char_traits@D@std@@V?$allocator@D@2@@std@@@2@@2@@Z@std@@@2@$0A@@std@@@std@@IEAAXXZ 0000000140039030 f i Session.obj
 0002:00018150       ?_Allocate@?$_Alloc_construct_ptr@V?$allocator@U?$_Tree_node@U?$pair@$$CBV?$basic_string@DU?$char_traits@D@std@@V?$allocator@D@2@@std@@P6A?AVany@2@AEAVSessionBase@Session@Domain@@AEBV?$vector@V?$basic_string@DU?$char_traits@D@std@@V?$allocator@D@2@@std@@V?$allocator@V?$basic_string@DU?$char_traits@D@std@@V?$allocator@D@2@@std@@@2@@2@@Z@std@@PEAX@std@@@std@@@std@@QEAAXXZ 0000000140039150 f i Session.obj
 0002:000181f0       ?_Allocate@_Default_allocate_traits@std@@SAPEAX_K@Z 00000001400391f0 f i Session.obj
 0002:00018250       ?_Buy_raw@?$vector@UClient@Persistence@TechnicalServices@@V?$allocator@UClient@Persistence@TechnicalServices@@@std@@@std@@AEAAX_K@Z 0000000140039250 f i Session.obj
 0002:00018360       ?_Buy_raw@?$vector@V?$basic_string@DU?$char_traits@D@std@@V?$allocator@D@2@@std@@V?$allocator@V?$basic_string@DU?$char_traits@D@std@@V?$allocator@D@2@@std@@@2@@std@@AEAAX_K@Z 0000000140039360 f i Session.obj
 0002:00018470       ?_Calculate_growth@?$basic_string@DU?$char_traits@D@std@@V?$allocator@D@2@@std@@AEBA_K_K@Z 0000000140039470 f i Session.obj
 0002:00018520       ?_Calculate_growth@?$basic_string@DU?$char_traits@D@std@@V?$allocator@D@2@@std@@CA_K_K00@Z 0000000140039520 f i Session.obj
 0002:00018670       ?_Calculate_growth@?$vector@UClient@Persistence@TechnicalServices@@V?$allocator@UClient@Persistence@TechnicalServices@@@std@@@std@@AEBA_K_K@Z 0000000140039670 f i Session.obj
 0002:00018770       ?_Calculate_growth@?$vector@V?$basic_string@DU?$char_traits@D@std@@V?$allocator@D@2@@std@@V?$allocator@V?$basic_string@DU?$char_traits@D@std@@V?$allocator@D@2@@std@@@2@@std@@AEBA_K_K@Z 0000000140039770 f i Session.obj
 0002:00018870       ?_Change_array@?$vector@UClient@Persistence@TechnicalServices@@V?$allocator@UClient@Persistence@TechnicalServices@@@std@@@std@@AEAAXQEAUClient@Persistence@TechnicalServices@@_K1@Z 0000000140039870 f i Session.obj
 0002:00018a20       ?_Change_array@?$vector@V?$basic_string@DU?$char_traits@D@std@@V?$allocator@D@2@@std@@V?$allocator@V?$basic_string@DU?$char_traits@D@std@@V?$allocator@D@2@@std@@@2@@std@@AEAAXQEAV?$basic_string@DU?$char_traits@D@std@@V?$allocator@D@2@@2@_K1@Z 0000000140039a20 f i Session.obj
 0002:00018bd0       ?_Check_grow_by_1@?$_Tree@V?$_Tmap_traits@V?$basic_string@DU?$char_traits@D@std@@V?$allocator@D@2@@std@@P6A?AVany@2@AEAVSessionBase@Session@Domain@@AEBV?$vector@V?$basic_string@DU?$char_traits@D@std@@V?$allocator@D@2@@std@@V?$allocator@V?$basic_string@DU?$char_traits@D@std@@V?$allocator@D@2@@std@@@2@@2@@ZU?$less@V?$basic_string@DU?$char_traits@D@std@@V?$allocator@D@2@@std@@@2@V?$allocator@U?$pair@$$CBV?$basic_string@DU?$char_traits@D@std@@V?$allocator@D@2@@std@@P6A?AVany@2@AEAVSessionBase@Session@Domain@@AEBV?$vector@V?$basic_string@DU?$char_traits@D@std@@V?$allocator@D@2@@std@@V?$allocator@V?$basic_string@DU?$char_traits@D@std@@V?$allocator@D@2@@std@@@2@@2@@Z@std@@@2@$0A@@std@@@std@@IEAAXXZ 0000000140039bd0 f i Session.obj
 0002:00018c60       ?_Check_offset@?$_String_val@U?$_Simple_types@D@std@@@std@@QEBAX_K@Z 0000000140039c60 f i Session.obj
 0002:00018ce0       ?_Clear_and_reserve_geometric@?$vector@UClient@Persistence@TechnicalServices@@V?$allocator@UClient@Persistence@TechnicalServices@@@std@@@std@@AEAAX_K@Z 0000000140039ce0 f i Session.obj
 0002:00018ea0       ?_Construct@?$basic_string@DU?$char_traits@D@std@@V?$allocator@D@2@@std@@QEAAXQEAD0Urandom_access_iterator_tag@2@@Z 0000000140039ea0 f i Session.obj
 0002:00018f60       ?_Construct_lv_contents@?$basic_string@DU?$char_traits@D@std@@V?$allocator@D@2@@std@@AEAAXAEBV12@@Z 0000000140039f60 f i Session.obj
 0002:00019190       ?_Copy_assign@?$basic_string@DU?$char_traits@D@std@@V?$allocator@D@2@@std@@AEAAXAEBV12@U?$integral_constant@_N$0A@@2@@Z 000000014003a190 f i Session.obj
 0002:00019290       ?_Copy_assign@?$vector@UClient@Persistence@TechnicalServices@@V?$allocator@UClient@Persistence@TechnicalServices@@@std@@@std@@AEAAXAEBV12@U?$integral_constant@_N$0A@@2@@Z 000000014003a290 f i Session.obj
 0002:00019370       ?_Destroy@?$vector@UClient@Persistence@TechnicalServices@@V?$allocator@UClient@Persistence@TechnicalServices@@@std@@@std@@AEAAXPEAUClient@Persistence@TechnicalServices@@0@Z 000000014003a370 f i Session.obj
 0002:00019400       ?_Destroy@?$vector@V?$basic_string@DU?$char_traits@D@std@@V?$allocator@D@2@@std@@V?$allocator@V?$basic_string@DU?$char_traits@D@std@@V?$allocator@D@2@@std@@@2@@std@@AEAAXPEAV?$basic_string@DU?$char_traits@D@std@@V?$allocator@D@2@@2@0@Z 000000014003a400 f i Session.obj
 0002:00019490       ?_Extract@?$_In_place_key_extract_map@V?$basic_string@DU?$char_traits@D@std@@V?$allocator@D@2@@std@@U?$pair@$$CBV?$basic_string@DU?$char_traits@D@std@@V?$allocator@D@2@@std@@P6A?AVany@2@AEAVSessionBase@Session@Domain@@AEBV?$vector@V?$basic_string@DU?$char_traits@D@std@@V?$allocator@D@2@@std@@V?$allocator@V?$basic_string@DU?$char_traits@D@std@@V?$allocator@D@2@@std@@@2@@2@@Z@2@@std@@SAAEBV?$basic_string@DU?$char_traits@D@std@@V?$allocator@D@2@@2@AEBU?$pair@$$CBV?$basic_string@DU?$char_traits@D@std@@V?$allocator@D@2@@std@@P6A?AVany@2@AEAVSessionBase@Session@Domain@@AEBV?$vector@V?$basic_string@DU?$char_traits@D@std@@V?$allocator@D@2@@std@@V?$allocator@V?$basic_string@DU?$char_traits@D@std@@V?$allocator@D@2@@std@@@2@@2@@Z@2@@Z 000000014003a490 f i Session.obj
 0002:000194f0       ?_Get_first@?$_Compressed_pair@U?$default_delete@VLoggerHandler@Logging@TechnicalServices@@@std@@PEAVLoggerHandler@Logging@TechnicalServices@@$00@std@@QEAAAEAU?$default_delete@VLoggerHandler@Logging@TechnicalServices@@@2@XZ 000000014003a4f0 f i Session.obj
 0002:00019550       ?_Get_first@?$_Compressed_pair@U?$less@V?$basic_string@DU?$char_traits@D@std@@V?$allocator@D@2@@std@@@std@@V?$_Compressed_pair@V?$allocator@U?$_Tree_node@U?$pair@$$CBV?$basic_string@DU?$char_traits@D@std@@V?$allocator@D@2@@std@@P6A?AVany@2@AEAVSessionBase@Session@Domain@@AEBV?$vector@V?$basic_string@DU?$char_traits@D@std@@V?$allocator@D@2@@std@@V?$allocator@V?$basic_string@DU?$char_traits@D@std@@V?$allocator@D@2@@std@@@2@@2@@Z@std@@PEAX@std@@@std@@V?$_Tree_val@U?$_Tree_simple_types@U?$pair@$$CBV?$basic_string@DU?$char_traits@D@std@@V?$allocator@D@2@@std@@P6A?AVany@2@AEAVSessionBase@Session@Domain@@AEBV?$vector@V?$basic_string@DU?$char_traits@D@std@@V?$allocator@D@2@@std@@V?$allocator@V?$basic_string@DU?$char_traits@D@std@@V?$allocator@D@2@@std@@@2@@2@@Z@std@@@std@@@2@$00@2@$00@std@@QEBAAEBU?$less@V?$basic_string@DU?$char_traits@D@std@@V?$allocator@D@2@@std@@@2@XZ 000000014003a550 f i Session.obj
 0002:000195b0       ?_Get_first@?$_Compressed_pair@V?$allocator@D@std@@V?$_String_val@U?$_Simple_types@D@std@@@2@$00@std@@QEAAAEAV?$allocator@D@2@XZ 000000014003a5b0 f i Session.obj
 0002:00019610       ?_Get_first@?$_Compressed_pair@V?$allocator@D@std@@V?$_String_val@U?$_Simple_types@D@std@@@2@$00@std@@QEBAAEBV?$allocator@D@2@XZ 000000014003a610 f i Session.obj
 0002:00019670       ?_Get_first@?$_Compressed_pair@V?$allocator@U?$_Tree_node@U?$pair@$$CBV?$basic_string@DU?$char_traits@D@std@@V?$allocator@D@2@@std@@P6A?AVany@2@AEAVSessionBase@Session@Domain@@AEBV?$vector@V?$basic_string@DU?$char_traits@D@std@@V?$allocator@D@2@@std@@V?$allocator@V?$basic_string@DU?$char_traits@D@std@@V?$allocator@D@2@@std@@@2@@2@@Z@std@@PEAX@std@@@std@@V?$_Tree_val@U?$_Tree_simple_types@U?$pair@$$CBV?$basic_string@DU?$char_traits@D@std@@V?$allocator@D@2@@std@@P6A?AVany@2@AEAVSessionBase@Session@Domain@@AEBV?$vector@V?$basic_string@DU?$char_traits@D@std@@V?$allocator@D@2@@std@@V?$allocator@V?$basic_string@DU?$char_traits@D@std@@V?$allocator@D@2@@std@@@2@@2@@Z@std@@@std@@@2@$00@std@@QEAAAEAV?$allocator@U?$_Tree_node@U?$pair@$$CBV?$basic_string@DU?$char_traits@D@std@@V?$allocator@D@2@@std@@P6A?AVany@2@AEAVSessionBase@Session@Domain@@AEBV?$vector@V?$basic_string@DU?$char_traits@D@std@@V?$allocator@D@2@@std@@V?$allocator@V?$basic_string@DU?$char_traits@D@std@@V?$allocator@D@2@@std@@@2@@2@@Z@std@@PEAX@std@@@2@XZ 000000014003a670 f i Session.obj
 0002:000196d0       ?_Get_first@?$_Compressed_pair@V?$allocator@U?$_Tree_node@U?$pair@$$CBV?$basic_string@DU?$char_traits@D@std@@V?$allocator@D@2@@std@@P6A?AVany@2@AEAVSessionBase@Session@Domain@@AEBV?$vector@V?$basic_string@DU?$char_traits@D@std@@V?$allocator@D@2@@std@@V?$allocator@V?$basic_string@DU?$char_traits@D@std@@V?$allocator@D@2@@std@@@2@@2@@Z@std@@PEAX@std@@@std@@V?$_Tree_val@U?$_Tree_simple_types@U?$pair@$$CBV?$basic_string@DU?$char_traits@D@std@@V?$allocator@D@2@@std@@P6A?AVany@2@AEAVSessionBase@Session@Domain@@AEBV?$vector@V?$basic_string@DU?$char_traits@D@std@@V?$allocator@D@2@@std@@V?$allocator@V?$basic_string@DU?$char_traits@D@std@@V?$allocator@D@2@@std@@@2@@2@@Z@std@@@std@@@2@$00@std@@QEBAAEBV?$allocator@U?$_Tree_node@U?$pair@$$CBV?$basic_string@DU?$char_traits@D@std@@V?$allocator@D@2@@std@@P6A?AVany@2@AEAVSessionBase@Session@Domain@@AEBV?$vector@V?$basic_string@DU?$char_traits@D@std@@V?$allocator@D@2@@std@@V?$allocator@V?$basic_string@DU?$char_traits@D@std@@V?$allocator@D@2@@std@@@2@@2@@Z@std@@PEAX@std@@@2@XZ 000000014003a6d0 f i Session.obj
 0002:00019730       ?_Get_first@?$_Compressed_pair@V?$allocator@UClient@Persistence@TechnicalServices@@@std@@V?$_Vector_val@U?$_Simple_types@UClient@Persistence@TechnicalServices@@@std@@@2@$00@std@@QEAAAEAV?$allocator@UClient@Persistence@TechnicalServices@@@2@XZ 000000014003a730 f i Session.obj
 0002:00019790       ?_Get_first@?$_Compressed_pair@V?$allocator@UClient@Persistence@TechnicalServices@@@std@@V?$_Vector_val@U?$_Simple_types@UClient@Persistence@TechnicalServices@@@std@@@2@$00@std@@QEBAAEBV?$allocator@UClient@Persistence@TechnicalServices@@@2@XZ 000000014003a790 f i Session.obj
 0002:000197f0       ?_Get_first@?$_Compressed_pair@V?$allocator@V?$basic_string@DU?$char_traits@D@std@@V?$allocator@D@2@@std@@@std@@V?$_Vector_val@U?$_Simple_types@V?$basic_string@DU?$char_traits@D@std@@V?$allocator@D@2@@std@@@std@@@2@$00@std@@QEAAAEAV?$allocator@V?$basic_string@DU?$char_traits@D@std@@V?$allocator@D@2@@std@@@2@XZ 000000014003a7f0 f i Session.obj
 0002:00019850       ?_Get_first@?$_Compressed_pair@V?$allocator@V?$basic_string@DU?$char_traits@D@std@@V?$allocator@D@2@@std@@@std@@V?$_Vector_val@U?$_Simple_types@V?$basic_string@DU?$char_traits@D@std@@V?$allocator@D@2@@std@@@std@@@2@$00@std@@QEBAAEBV?$allocator@V?$basic_string@DU?$char_traits@D@std@@V?$allocator@D@2@@std@@@2@XZ 000000014003a850 f i Session.obj
 0002:000198b0       ?_Get_scary@?$_Tree@V?$_Tmap_traits@V?$basic_string@DU?$char_traits@D@std@@V?$allocator@D@2@@std@@P6A?AVany@2@AEAVSessionBase@Session@Domain@@AEBV?$vector@V?$basic_string@DU?$char_traits@D@std@@V?$allocator@D@2@@std@@V?$allocator@V?$basic_string@DU?$char_traits@D@std@@V?$allocator@D@2@@std@@@2@@2@@ZU?$less@V?$basic_string@DU?$char_traits@D@std@@V?$allocator@D@2@@std@@@2@V?$allocator@U?$pair@$$CBV?$basic_string@DU?$char_traits@D@std@@V?$allocator@D@2@@std@@P6A?AVany@2@AEAVSessionBase@Session@Domain@@AEBV?$vector@V?$basic_string@DU?$char_traits@D@std@@V?$allocator@D@2@@std@@V?$allocator@V?$basic_string@DU?$char_traits@D@std@@V?$allocator@D@2@@std@@@2@@2@@Z@std@@@2@$0A@@std@@@std@@IEAAPEAV?$_Tree_val@U?$_Tree_simple_types@U?$pair@$$CBV?$basic_string@DU?$char_traits@D@std@@V?$allocator@D@2@@std@@P6A?AVany@2@AEAVSessionBase@Session@Domain@@AEBV?$vector@V?$basic_string@DU?$char_traits@D@std@@V?$allocator@D@2@@std@@V?$allocator@V?$basic_string@DU?$char_traits@D@std@@V?$allocator@D@2@@std@@@2@@2@@Z@std@@@std@@@2@XZ 000000014003a8b0 f i Session.obj
 0002:00019920       ?_Get_scary@?$_Tree@V?$_Tmap_traits@V?$basic_string@DU?$char_traits@D@std@@V?$allocator@D@2@@std@@P6A?AVany@2@AEAVSessionBase@Session@Domain@@AEBV?$vector@V?$basic_string@DU?$char_traits@D@std@@V?$allocator@D@2@@std@@V?$allocator@V?$basic_string@DU?$char_traits@D@std@@V?$allocator@D@2@@std@@@2@@2@@ZU?$less@V?$basic_string@DU?$char_traits@D@std@@V?$allocator@D@2@@std@@@2@V?$allocator@U?$pair@$$CBV?$basic_string@DU?$char_traits@D@std@@V?$allocator@D@2@@std@@P6A?AVany@2@AEAVSessionBase@Session@Domain@@AEBV?$vector@V?$basic_string@DU?$char_traits@D@std@@V?$allocator@D@2@@std@@V?$allocator@V?$basic_string@DU?$char_traits@D@std@@V?$allocator@D@2@@std@@@2@@2@@Z@std@@@2@$0A@@std@@@std@@IEBAPEBV?$_Tree_val@U?$_Tree_simple_types@U?$pair@$$CBV?$basic_string@DU?$char_traits@D@std@@V?$allocator@D@2@@std@@P6A?AVany@2@AEAVSessionBase@Session@Domain@@AEBV?$vector@V?$basic_string@DU?$char_traits@D@std@@V?$allocator@D@2@@std@@V?$allocator@V?$basic_string@DU?$char_traits@D@std@@V?$allocator@D@2@@std@@@2@@2@@Z@std@@@std@@@2@XZ 000000014003a920 f i Session.obj
 0002:00019990       ?_Getal@?$_Tree@V?$_Tmap_traits@V?$basic_string@DU?$char_traits@D@std@@V?$allocator@D@2@@std@@P6A?AVany@2@AEAVSessionBase@Session@Domain@@AEBV?$vector@V?$basic_string@DU?$char_traits@D@std@@V?$allocator@D@2@@std@@V?$allocator@V?$basic_string@DU?$char_traits@D@std@@V?$allocator@D@2@@std@@@2@@2@@ZU?$less@V?$basic_string@DU?$char_traits@D@std@@V?$allocator@D@2@@std@@@2@V?$allocator@U?$pair@$$CBV?$basic_string@DU?$char_traits@D@std@@V?$allocator@D@2@@std@@P6A?AVany@2@AEAVSessionBase@Session@Domain@@AEBV?$vector@V?$basic_string@DU?$char_traits@D@std@@V?$allocator@D@2@@std@@V?$allocator@V?$basic_string@DU?$char_traits@D@std@@V?$allocator@D@2@@std@@@2@@2@@Z@std@@@2@$0A@@std@@@std@@IEAAAEAV?$allocator@U?$_Tree_node@U?$pair@$$CBV?$basic_string@DU?$char_traits@D@std@@V?$allocator@D@2@@std@@P6A?AVany@2@AEAVSessionBase@Session@Domain@@AEBV?$vector@V?$basic_string@DU?$char_traits@D@std@@V?$allocator@D@2@@std@@V?$allocator@V?$basic_string@DU?$char_traits@D@std@@V?$allocator@D@2@@std@@@2@@2@@Z@std@@PEAX@std@@@2@XZ 000000014003a990 f i Session.obj
 0002:00019a00       ?_Getal@?$_Tree@V?$_Tmap_traits@V?$basic_string@DU?$char_traits@D@std@@V?$allocator@D@2@@std@@P6A?AVany@2@AEAVSessionBase@Session@Domain@@AEBV?$vector@V?$basic_string@DU?$char_traits@D@std@@V?$allocator@D@2@@std@@V?$allocator@V?$basic_string@DU?$char_traits@D@std@@V?$allocator@D@2@@std@@@2@@2@@ZU?$less@V?$basic_string@DU?$char_traits@D@std@@V?$allocator@D@2@@std@@@2@V?$allocator@U?$pair@$$CBV?$basic_string@DU?$char_traits@D@std@@V?$allocator@D@2@@std@@P6A?AVany@2@AEAVSessionBase@Session@Domain@@AEBV?$vector@V?$basic_string@DU?$char_traits@D@std@@V?$allocator@D@2@@std@@V?$allocator@V?$basic_string@DU?$char_traits@D@std@@V?$allocator@D@2@@std@@@2@@2@@Z@std@@@2@$0A@@std@@@std@@IEBAAEBV?$allocator@U?$_Tree_node@U?$pair@$$CBV?$basic_string@DU?$char_traits@D@std@@V?$allocator@D@2@@std@@P6A?AVany@2@AEAVSessionBase@Session@Domain@@AEBV?$vector@V?$basic_string@DU?$char_traits@D@std@@V?$allocator@D@2@@std@@V?$allocator@V?$basic_string@DU?$char_traits@D@std@@V?$allocator@D@2@@std@@@2@@2@@Z@std@@PEAX@std@@@2@XZ 000000014003aa00 f i Session.obj
 0002:00019a70       ?_Getal@?$basic_string@DU?$char_traits@D@std@@V?$allocator@D@2@@std@@AEAAAEAV?$allocator@D@2@XZ 000000014003aa70 f i Session.obj
 0002:00019ae0       ?_Getal@?$basic_string@DU?$char_traits@D@std@@V?$allocator@D@2@@std@@AEBAAEBV?$allocator@D@2@XZ 000000014003aae0 f i Session.obj
 0002:00019b50       ?_Getal@?$vector@UClient@Persistence@TechnicalServices@@V?$allocator@UClient@Persistence@TechnicalServices@@@std@@@std@@AEAAAEAV?$allocator@UClient@Persistence@TechnicalServices@@@2@XZ 000000014003ab50 f i Session.obj
 0002:00019bc0       ?_Getal@?$vector@UClient@Persistence@TechnicalServices@@V?$allocator@UClient@Persistence@TechnicalServices@@@std@@@std@@AEBAAEBV?$allocator@UClient@Persistence@TechnicalServices@@@2@XZ 000000014003abc0 f i Session.obj
 0002:00019c30       ?_Getal@?$vector@V?$basic_string@DU?$char_traits@D@std@@V?$allocator@D@2@@std@@V?$allocator@V?$basic_string@DU?$char_traits@D@std@@V?$allocator@D@2@@std@@@2@@std@@AEAAAEAV?$allocator@V?$basic_string@DU?$char_traits@D@std@@V?$allocator@D@2@@std@@@2@XZ 000000014003ac30 f i Session.obj
 0002:00019ca0       ?_Getal@?$vector@V?$basic_string@DU?$char_traits@D@std@@V?$allocator@D@2@@std@@V?$allocator@V?$basic_string@DU?$char_traits@D@std@@V?$allocator@D@2@@std@@@2@@std@@AEBAAEBV?$allocator@V?$basic_string@DU?$char_traits@D@std@@V?$allocator@D@2@@std@@@2@XZ 000000014003aca0 f i Session.obj
 0002:00019d10       ?_Getcomp@?$_Tree@V?$_Tmap_traits@V?$basic_string@DU?$char_traits@D@std@@V?$allocator@D@2@@std@@P6A?AVany@2@AEAVSessionBase@Session@Domain@@AEBV?$vector@V?$basic_string@DU?$char_traits@D@std@@V?$allocator@D@2@@std@@V?$allocator@V?$basic_string@DU?$char_traits@D@std@@V?$allocator@D@2@@std@@@2@@2@@ZU?$less@V?$basic_string@DU?$char_traits@D@std@@V?$allocator@D@2@@std@@@2@V?$allocator@U?$pair@$$CBV?$basic_string@DU?$char_traits@D@std@@V?$allocator@D@2@@std@@P6A?AVany@2@AEAVSessionBase@Session@Domain@@AEBV?$vector@V?$basic_string@DU?$char_traits@D@std@@V?$allocator@D@2@@std@@V?$allocator@V?$basic_string@DU?$char_traits@D@std@@V?$allocator@D@2@@std@@@2@@2@@Z@std@@@2@$0A@@std@@@std@@IEBAAEBU?$less@V?$basic_string@DU?$char_traits@D@std@@V?$allocator@D@2@@std@@@2@XZ 000000014003ad10 f i Session.obj
 0002:00019d80       ?_Getcont@_Iterator_base12@std@@QEBAPEBU_Container_base12@2@XZ 000000014003ad80 f i Session.obj
 0002:00019e20       ?_Insert_node@?$_Tree_val@U?$_Tree_simple_types@U?$pair@$$CBV?$basic_string@DU?$char_traits@D@std@@V?$allocator@D@2@@std@@P6A?AVany@2@AEAVSessionBase@Session@Domain@@AEBV?$vector@V?$basic_string@DU?$char_traits@D@std@@V?$allocator@D@2@@std@@V?$allocator@V?$basic_string@DU?$char_traits@D@std@@V?$allocator@D@2@@std@@@2@@2@@Z@std@@@std@@@std@@QEAAPEAU?$_Tree_node@U?$pair@$$CBV?$basic_string@DU?$char_traits@D@std@@V?$allocator@D@2@@std@@P6A?AVany@2@AEAVSessionBase@Session@Domain@@AEBV?$vector@V?$basic_string@DU?$char_traits@D@std@@V?$allocator@D@2@@std@@V?$allocator@V?$basic_string@DU?$char_traits@D@std@@V?$allocator@D@2@@std@@@2@@2@@Z@std@@PEAX@2@U?$_Tree_id@PEAU?$_Tree_node@U?$pair@$$CBV?$basic_string@DU?$char_traits@D@std@@V?$allocator@D@2@@std@@P6A?AVany@2@AEAVSessionBase@Session@Domain@@AEBV?$vector@V?$basic_string@DU?$char_traits@D@std@@V?$allocator@D@2@@std@@V?$allocator@V?$basic_string@DU?$char_traits@D@std@@V?$allocator@D@2@@std@@@2@@2@@Z@std@@PEAX@std@@@2@QEAU32@@Z 000000014003ae20 f i Session.obj
 0002:0001a210       ?_Lrotate@?$_Tree_val@U?$_Tree_simple_types@U?$pair@$$CBV?$basic_string@DU?$char_traits@D@std@@V?$allocator@D@2@@std@@P6A?AVany@2@AEAVSessionBase@Session@Domain@@AEBV?$vector@V?$basic_string@DU?$char_traits@D@std@@V?$allocator@D@2@@std@@V?$allocator@V?$basic_string@DU?$char_traits@D@std@@V?$allocator@D@2@@std@@@2@@2@@Z@std@@@std@@@std@@QEAAXPEAU?$_Tree_node@U?$pair@$$CBV?$basic_string@DU?$char_traits@D@std@@V?$allocator@D@2@@std@@P6A?AVany@2@AEAVSessionBase@Session@Domain@@AEBV?$vector@V?$basic_string@DU?$char_traits@D@std@@V?$allocator@D@2@@std@@V?$allocator@V?$basic_string@DU?$char_traits@D@std@@V?$allocator@D@2@@std@@@2@@2@@Z@std@@PEAX@2@@Z 000000014003b210 f i Session.obj
 0002:0001a380       ?_Maklocwcs@std@@YAPEA_WPEB_W@Z 000000014003b380 f i Session.obj
 0002:0001a450       ?_Max@?$_Tree_val@U?$_Tree_simple_types@U?$pair@$$CBV?$basic_string@DU?$char_traits@D@std@@V?$allocator@D@2@@std@@P6A?AVany@2@AEAVSessionBase@Session@Domain@@AEBV?$vector@V?$basic_string@DU?$char_traits@D@std@@V?$allocator@D@2@@std@@V?$allocator@V?$basic_string@DU?$char_traits@D@std@@V?$allocator@D@2@@std@@@2@@2@@Z@std@@@std@@@std@@SAPEAU?$_Tree_node@U?$pair@$$CBV?$basic_string@DU?$char_traits@D@std@@V?$allocator@D@2@@std@@P6A?AVany@2@AEAVSessionBase@Session@Domain@@AEBV?$vector@V?$basic_string@DU?$char_traits@D@std@@V?$allocator@D@2@@std@@V?$allocator@V?$basic_string@DU?$char_traits@D@std@@V?$allocator@D@2@@std@@@2@@2@@Z@std@@PEAX@2@PEAU32@@Z 000000014003b450 f i Session.obj
 0002:0001a4e0       ?_Memcpy_val_from@?$basic_string@DU?$char_traits@D@std@@V?$allocator@D@2@@std@@AEAAXAEBV12@@Z 000000014003b4e0 f i Session.obj
 0002:0001a590       ?_Min@?$_Tree_val@U?$_Tree_simple_types@U?$pair@$$CBV?$basic_string@DU?$char_traits@D@std@@V?$allocator@D@2@@std@@P6A?AVany@2@AEAVSessionBase@Session@Domain@@AEBV?$vector@V?$basic_string@DU?$char_traits@D@std@@V?$allocator@D@2@@std@@V?$allocator@V?$basic_string@DU?$char_traits@D@std@@V?$allocator@D@2@@std@@@2@@2@@Z@std@@@std@@@std@@SAPEAU?$_Tree_node@U?$pair@$$CBV?$basic_string@DU?$char_traits@D@std@@V?$allocator@D@2@@std@@P6A?AVany@2@AEAVSessionBase@Session@Domain@@AEBV?$vector@V?$basic_string@DU?$char_traits@D@std@@V?$allocator@D@2@@std@@V?$allocator@V?$basic_string@DU?$char_traits@D@std@@V?$allocator@D@2@@std@@@2@@2@@Z@std@@PEAX@2@PEAU32@@Z 000000014003b590 f i Session.obj
 0002:0001a620       ?_Move_construct@?$vector@V?$basic_string@DU?$char_traits@D@std@@V?$allocator@D@2@@std@@V?$allocator@V?$basic_string@DU?$char_traits@D@std@@V?$allocator@D@2@@std@@@2@@std@@AEAAXAEAV12@U?$integral_constant@_N$00@2@@Z 000000014003b620 f i Session.obj
 0002:0001a6b0       ?_Move_from@any@std@@AEAAXAEAV12@@Z 000000014003b6b0 f i Session.obj
 0002:0001a820       ?_Myptr@?$_String_val@U?$_Simple_types@D@std@@@std@@QEAAPEADXZ 000000014003b820 f i Session.obj
 0002:0001a8c0       ?_Orphan_all@_Container_base12@std@@QEAAXXZ 000000014003b8c0 f i Session.obj
 0002:0001a9f0       ?_Orphan_me@_Iterator_base12@std@@QEAAXXZ 000000014003b9f0 f i Session.obj
 0002:0001ab70       ?_Orphan_ptr@?$_Tree_val@U?$_Tree_simple_types@U?$pair@$$CBV?$basic_string@DU?$char_traits@D@std@@V?$allocator@D@2@@std@@P6A?AVany@2@AEAVSessionBase@Session@Domain@@AEBV?$vector@V?$basic_string@DU?$char_traits@D@std@@V?$allocator@D@2@@std@@V?$allocator@V?$basic_string@DU?$char_traits@D@std@@V?$allocator@D@2@@std@@@2@@2@@Z@std@@@std@@@std@@QEAAXQEAU?$_Tree_node@U?$pair@$$CBV?$basic_string@DU?$char_traits@D@std@@V?$allocator@D@2@@std@@P6A?AVany@2@AEAVSessionBase@Session@Domain@@AEBV?$vector@V?$basic_string@DU?$char_traits@D@std@@V?$allocator@D@2@@std@@V?$allocator@V?$basic_string@DU?$char_traits@D@std@@V?$allocator@D@2@@std@@@2@@2@@Z@std@@PEAX@2@@Z 000000014003bb70 f i Session.obj
 0002:0001acd0       ?_Orphan_range@?$vector@UClient@Persistence@TechnicalServices@@V?$allocator@UClient@Persistence@TechnicalServices@@@std@@@std@@AEBAXPEAUClient@Persistence@TechnicalServices@@0@Z 000000014003bcd0 f i Session.obj
 0002:0001ae20       ?_Orphan_range@?$vector@V?$basic_string@DU?$char_traits@D@std@@V?$allocator@D@2@@std@@V?$allocator@V?$basic_string@DU?$char_traits@D@std@@V?$allocator@D@2@@std@@@2@@std@@AEBAXPEAV?$basic_string@DU?$char_traits@D@std@@V?$allocator@D@2@@2@0@Z 000000014003be20 f i Session.obj
 0002:0001af70       ?_Reallocate_exactly@?$vector@V?$basic_string@DU?$char_traits@D@std@@V?$allocator@D@2@@std@@V?$allocator@V?$basic_string@DU?$char_traits@D@std@@V?$allocator@D@2@@std@@@2@@std@@AEAAX_K@Z 000000014003bf70 f i Session.obj
 0002:0001b0b0       ?_Release@?$_Alloc_construct_ptr@V?$allocator@U?$_Tree_node@U?$pair@$$CBV?$basic_string@DU?$char_traits@D@std@@V?$allocator@D@2@@std@@P6A?AVany@2@AEAVSessionBase@Session@Domain@@AEBV?$vector@V?$basic_string@DU?$char_traits@D@std@@V?$allocator@D@2@@std@@V?$allocator@V?$basic_string@DU?$char_traits@D@std@@V?$allocator@D@2@@std@@@2@@2@@Z@std@@PEAX@std@@@std@@@std@@QEAAPEAU?$_Tree_node@U?$pair@$$CBV?$basic_string@DU?$char_traits@D@std@@V?$allocator@D@2@@std@@P6A?AVany@2@AEAVSessionBase@Session@Domain@@AEBV?$vector@V?$basic_string@DU?$char_traits@D@std@@V?$allocator@D@2@@std@@V?$allocator@V?$basic_string@DU?$char_traits@D@std@@V?$allocator@D@2@@std@@@2@@2@@Z@std@@PEAX@2@XZ 000000014003c0b0 f i Session.obj
 0002:0001b130       ?_Release@?$_Uninitialized_backout_al@V?$allocator@UClient@Persistence@TechnicalServices@@@std@@@std@@QEAAPEAUClient@Persistence@TechnicalServices@@XZ 000000014003c130 f i Session.obj
 0002:0001b1b0       ?_Release@?$_Uninitialized_backout_al@V?$allocator@V?$basic_string@DU?$char_traits@D@std@@V?$allocator@D@2@@std@@@std@@@std@@QEAAPEAV?$basic_string@DU?$char_traits@D@std@@V?$allocator@D@2@@2@XZ 000000014003c1b0 f i Session.obj
 0002:0001b230       ?_Release@_Basic_container_proxy_ptr12@std@@QEAAXXZ 000000014003c230 f i Session.obj
 0002:0001b2a0       ?_Rep@any@std@@AEBA?AW4_Any_representation@2@XZ 000000014003c2a0 f i Session.obj
 0002:0001b310       ?_Rrotate@?$_Tree_val@U?$_Tree_simple_types@U?$pair@$$CBV?$basic_string@DU?$char_traits@D@std@@V?$allocator@D@2@@std@@P6A?AVany@2@AEAVSessionBase@Session@Domain@@AEBV?$vector@V?$basic_string@DU?$char_traits@D@std@@V?$allocator@D@2@@std@@V?$allocator@V?$basic_string@DU?$char_traits@D@std@@V?$allocator@D@2@@std@@@2@@2@@Z@std@@@std@@@std@@QEAAXPEAU?$_Tree_node@U?$pair@$$CBV?$basic_string@DU?$char_traits@D@std@@V?$allocator@D@2@@std@@P6A?AVany@2@AEAVSessionBase@Session@Domain@@AEBV?$vector@V?$basic_string@DU?$char_traits@D@std@@V?$allocator@D@2@@std@@V?$allocator@V?$basic_string@DU?$char_traits@D@std@@V?$allocator@D@2@@std@@@2@@2@@Z@std@@PEAX@2@@Z 000000014003c310 f i Session.obj
 0002:0001b480       ?_Swap_proxy_and_iterators@?$basic_string@DU?$char_traits@D@std@@V?$allocator@D@2@@std@@AEAAXAEAV12@@Z 000000014003c480 f i Session.obj
 0002:0001b510       ?_Swap_proxy_and_iterators@_Container_base12@std@@QEAAXAEAU12@@Z 000000014003c510 f i Session.obj
 0002:0001b660       ?_Take_contents@?$_Vector_val@U?$_Simple_types@V?$basic_string@DU?$char_traits@D@std@@V?$allocator@D@2@@std@@@std@@@std@@QEAAXAEAV12@@Z 000000014003c660 f i Session.obj
 0002:0001b760       ?_Take_contents@?$basic_string@DU?$char_traits@D@std@@V?$allocator@D@2@@std@@AEAAXAEAV12@U?$integral_constant@_N$00@2@@Z 000000014003c760 f i Session.obj
 0002:0001b830       ?_Throw_bad_any_cast@std@@YAXXZ 000000014003c830 f i Session.obj
 0002:0001b8b0       ?_Throw_bad_array_new_length@std@@YAXXZ 000000014003c8b0 f i Session.obj
 0002:0001b920       ?_Throw_tree_length_error@std@@YAXXZ 000000014003c920 f i Session.obj
 0002:0001b970       ?_Tidy@?$vector@UClient@Persistence@TechnicalServices@@V?$allocator@UClient@Persistence@TechnicalServices@@@std@@@std@@AEAAXXZ 000000014003c970 f i Session.obj
 0002:0001bae0       ?_Tidy@?$vector@V?$basic_string@DU?$char_traits@D@std@@V?$allocator@D@2@@std@@V?$allocator@V?$basic_string@DU?$char_traits@D@std@@V?$allocator@D@2@@std@@@2@@std@@AEAAXXZ 000000014003cae0 f i Session.obj
 0002:0001bc50       ?_Tidy_deallocate@?$basic_string@DU?$char_traits@D@std@@V?$allocator@D@2@@std@@AEAAXXZ 000000014003cc50 f i Session.obj
 0002:0001bd90       ?_Tidy_init@?$basic_string@DU?$char_traits@D@std@@V?$allocator@D@2@@std@@AEAAXXZ 000000014003cd90 f i Session.obj
 0002:0001be40       ?_TypeInfo@any@std@@AEBAPEBVtype_info@@XZ 000000014003ce40 f i Session.obj
 0002:0001beb0       ?_Umove@?$vector@UClient@Persistence@TechnicalServices@@V?$allocator@UClient@Persistence@TechnicalServices@@@std@@@std@@AEAAPEAUClient@Persistence@TechnicalServices@@PEAU345@00@Z 000000014003ceb0 f i Session.obj
 0002:0001bf50       ?_Umove@?$vector@V?$basic_string@DU?$char_traits@D@std@@V?$allocator@D@2@@std@@V?$allocator@V?$basic_string@DU?$char_traits@D@std@@V?$allocator@D@2@@std@@@2@@std@@AEAAPEAV?$basic_string@DU?$char_traits@D@std@@V?$allocator@D@2@@2@PEAV32@00@Z 000000014003cf50 f i Session.obj
 0002:0001bff0       ?_Umove_if_noexcept1@?$vector@UClient@Persistence@TechnicalServices@@V?$allocator@UClient@Persistence@TechnicalServices@@@std@@@std@@AEAAXPEAUClient@Persistence@TechnicalServices@@00U?$integral_constant@_N$00@2@@Z 000000014003cff0 f i Session.obj
 0002:0001c090       ?_Umove_if_noexcept1@?$vector@V?$basic_string@DU?$char_traits@D@std@@V?$allocator@D@2@@std@@V?$allocator@V?$basic_string@DU?$char_traits@D@std@@V?$allocator@D@2@@std@@@2@@std@@AEAAXPEAV?$basic_string@DU?$char_traits@D@std@@V?$allocator@D@2@@2@00U?$integral_constant@_N$00@2@@Z 000000014003d090 f i Session.obj
 0002:0001c130       ?_Umove_if_noexcept@?$vector@UClient@Persistence@TechnicalServices@@V?$allocator@UClient@Persistence@TechnicalServices@@@std@@@std@@AEAAXPEAUClient@Persistence@TechnicalServices@@00@Z 000000014003d130 f i Session.obj
 0002:0001c1f0       ?_Umove_if_noexcept@?$vector@V?$basic_string@DU?$char_traits@D@std@@V?$allocator@D@2@@std@@V?$allocator@V?$basic_string@DU?$char_traits@D@std@@V?$allocator@D@2@@std@@@2@@std@@AEAAXPEAV?$basic_string@DU?$char_traits@D@std@@V?$allocator@D@2@@2@00@Z 000000014003d1f0 f i Session.obj
 0002:0001c2b0       ?_Unchecked_begin@?$_Tree@V?$_Tmap_traits@V?$basic_string@DU?$char_traits@D@std@@V?$allocator@D@2@@std@@P6A?AVany@2@AEAVSessionBase@Session@Domain@@AEBV?$vector@V?$basic_string@DU?$char_traits@D@std@@V?$allocator@D@2@@std@@V?$allocator@V?$basic_string@DU?$char_traits@D@std@@V?$allocator@D@2@@std@@@2@@2@@ZU?$less@V?$basic_string@DU?$char_traits@D@std@@V?$allocator@D@2@@std@@@2@V?$allocator@U?$pair@$$CBV?$basic_string@DU?$char_traits@D@std@@V?$allocator@D@2@@std@@P6A?AVany@2@AEAVSessionBase@Session@Domain@@AEBV?$vector@V?$basic_string@DU?$char_traits@D@std@@V?$allocator@D@2@@std@@V?$allocator@V?$basic_string@DU?$char_traits@D@std@@V?$allocator@D@2@@std@@@2@@2@@Z@std@@@2@$0A@@std@@@std@@QEAA?AV?$_Tree_unchecked_iterator@V?$_Tree_val@U?$_Tree_simple_types@U?$pair@$$CBV?$basic_string@DU?$char_traits@D@std@@V?$allocator@D@2@@std@@P6A?AVany@2@AEAVSessionBase@Session@Domain@@AEBV?$vector@V?$basic_string@DU?$char_traits@D@std@@V?$allocator@D@2@@std@@V?$allocator@V?$basic_string@DU?$char_traits@D@std@@V?$allocator@D@2@@std@@@2@@2@@Z@std@@@std@@@std@@@2@XZ 000000014003d2b0 f i Session.obj
 0002:0001c340       ?_Unchecked_begin@?$vector@UClient@Persistence@TechnicalServices@@V?$allocator@UClient@Persistence@TechnicalServices@@@std@@@std@@QEAAPEAUClient@Persistence@TechnicalServices@@XZ 000000014003d340 f i Session.obj
 0002:0001c3a0       ?_Unchecked_begin@?$vector@V?$basic_string@DU?$char_traits@D@std@@V?$allocator@D@2@@std@@V?$allocator@V?$basic_string@DU?$char_traits@D@std@@V?$allocator@D@2@@std@@@2@@std@@QEBAPEBV?$basic_string@DU?$char_traits@D@std@@V?$allocator@D@2@@2@XZ 000000014003d3a0 f i Session.obj
 0002:0001c400       ?_Unchecked_end@?$_Tree@V?$_Tmap_traits@V?$basic_string@DU?$char_traits@D@std@@V?$allocator@D@2@@std@@P6A?AVany@2@AEAVSessionBase@Session@Domain@@AEBV?$vector@V?$basic_string@DU?$char_traits@D@std@@V?$allocator@D@2@@std@@V?$allocator@V?$basic_string@DU?$char_traits@D@std@@V?$allocator@D@2@@std@@@2@@2@@ZU?$less@V?$basic_string@DU?$char_traits@D@std@@V?$allocator@D@2@@std@@@2@V?$allocator@U?$pair@$$CBV?$basic_string@DU?$char_traits@D@std@@V?$allocator@D@2@@std@@P6A?AVany@2@AEAVSessionBase@Session@Domain@@AEBV?$vector@V?$basic_string@DU?$char_traits@D@std@@V?$allocator@D@2@@std@@V?$allocator@V?$basic_string@DU?$char_traits@D@std@@V?$allocator@D@2@@std@@@2@@2@@Z@std@@@2@$0A@@std@@@std@@QEBA?AU_Default_sentinel@2@XZ 000000014003d400 f i Session.obj
 0002:0001c480       ?_Unchecked_end@?$vector@UClient@Persistence@TechnicalServices@@V?$allocator@UClient@Persistence@TechnicalServices@@@std@@@std@@QEAAPEAUClient@Persistence@TechnicalServices@@XZ 000000014003d480 f i Session.obj
 0002:0001c4e0       ?_Unchecked_end@?$vector@V?$basic_string@DU?$char_traits@D@std@@V?$allocator@D@2@@std@@V?$allocator@V?$basic_string@DU?$char_traits@D@std@@V?$allocator@D@2@@std@@@2@@std@@QEBAPEBV?$basic_string@DU?$char_traits@D@std@@V?$allocator@D@2@@2@XZ 000000014003d4e0 f i Session.obj
 0002:0001c540       ?_Xlen_string@std@@YAXXZ   000000014003d540 f i Session.obj
 0002:0001c590       ?_Xlength@?$vector@UClient@Persistence@TechnicalServices@@V?$allocator@UClient@Persistence@TechnicalServices@@@std@@@std@@CAXXZ 000000014003d590 f i Session.obj
 0002:0001c5e0       ?_Xlength@?$vector@V?$basic_string@DU?$char_traits@D@std@@V?$allocator@D@2@@std@@V?$allocator@V?$basic_string@DU?$char_traits@D@std@@V?$allocator@D@2@@std@@@2@@std@@CAXXZ 000000014003d5e0 f i Session.obj
 0002:0001c630       ?_Xran@?$_String_val@U?$_Simple_types@D@std@@@std@@SAXXZ 000000014003d630 f i Session.obj
 0002:0001c680       ?__autoclassinit2@?$_Tree_iterator@V?$_Tree_val@U?$_Tree_simple_types@U?$pair@$$CBV?$basic_string@DU?$char_traits@D@std@@V?$allocator@D@2@@std@@P6A?AVany@2@AEAVSessionBase@Session@Domain@@AEBV?$vector@V?$basic_string@DU?$char_traits@D@std@@V?$allocator@D@2@@std@@V?$allocator@V?$basic_string@DU?$char_traits@D@std@@V?$allocator@D@2@@std@@@2@@2@@Z@std@@@std@@@std@@@std@@QEAAX_K@Z 000000014003d680 f i Session.obj
 0002:0001c6e0       ?__autoclassinit2@?$_Tree_unchecked_iterator@V?$_Tree_val@U?$_Tree_simple_types@U?$pair@$$CBV?$basic_string@DU?$char_traits@D@std@@V?$allocator@D@2@@std@@P6A?AVany@2@AEAVSessionBase@Session@Domain@@AEBV?$vector@V?$basic_string@DU?$char_traits@D@std@@V?$allocator@D@2@@std@@V?$allocator@V?$basic_string@DU?$char_traits@D@std@@V?$allocator@D@2@@std@@@2@@2@@Z@std@@@std@@@std@@@std@@QEAAX_K@Z 000000014003d6e0 f i Session.obj
 0002:0001c740       ?__autoclassinit2@?$_Uninitialized_backout_al@V?$allocator@UClient@Persistence@TechnicalServices@@@std@@@std@@QEAAX_K@Z 000000014003d740 f i Session.obj
 0002:0001c7a0       ?__autoclassinit2@?$_Uninitialized_backout_al@V?$allocator@V?$basic_string@DU?$char_traits@D@std@@V?$allocator@D@2@@std@@@std@@@std@@QEAAX_K@Z 000000014003d7a0 f i Session.obj
 0002:0001c800       ?__autoclassinit2@?$vector@V?$basic_string@DU?$char_traits@D@std@@V?$allocator@D@2@@std@@V?$allocator@V?$basic_string@DU?$char_traits@D@std@@V?$allocator@D@2@@std@@@2@@std@@QEAAX_K@Z 000000014003d800 f i Session.obj
 0002:0001c860       ?addClient@ClientDomain@Client@Domain@@UEAA?AV?$vector@UClient@Persistence@TechnicalServices@@V?$allocator@UClient@Persistence@TechnicalServices@@@std@@@std@@AEBU2Persistence@TechnicalServices@@@Z 000000014003d860 f   Session.obj
 0002:0001cd90       ?allocate@?$allocator@D@std@@QEAAPEAD_K@Z 000000014003dd90 f i Session.obj
 0002:0001ce00       ?allocate@?$allocator@U?$_Tree_node@U?$pair@$$CBV?$basic_string@DU?$char_traits@D@std@@V?$allocator@D@2@@std@@P6A?AVany@2@AEAVSessionBase@Session@Domain@@AEBV?$vector@V?$basic_string@DU?$char_traits@D@std@@V?$allocator@D@2@@std@@V?$allocator@V?$basic_string@DU?$char_traits@D@std@@V?$allocator@D@2@@std@@@2@@2@@Z@std@@PEAX@std@@@std@@QEAAPEAU?$_Tree_node@U?$pair@$$CBV?$basic_string@DU?$char_traits@D@std@@V?$allocator@D@2@@std@@P6A?AVany@2@AEAVSessionBase@Session@Domain@@AEBV?$vector@V?$basic_string@DU?$char_traits@D@std@@V?$allocator@D@2@@std@@V?$allocator@V?$basic_string@DU?$char_traits@D@std@@V?$allocator@D@2@@std@@@2@@2@@Z@std@@PEAX@2@_K@Z 000000014003de00 f i Session.obj
 0002:0001ce70       ?allocate@?$allocator@UClient@Persistence@TechnicalServices@@@std@@QEAAPEAUClient@Persistence@TechnicalServices@@_K@Z 000000014003de70 f i Session.obj
 0002:0001cee0       ?allocate@?$allocator@U_Container_proxy@std@@@std@@QEAAPEAU_Container_proxy@2@_K@Z 000000014003dee0 f i Session.obj
 0002:0001cf50       ?allocate@?$allocator@V?$basic_string@DU?$char_traits@D@std@@V?$allocator@D@2@@std@@@std@@QEAAPEAV?$basic_string@DU?$char_traits@D@std@@V?$allocator@D@2@@2@_K@Z 000000014003df50 f i Session.obj
 0002:0001cfc0       ?append@?$basic_string@DU?$char_traits@D@std@@V?$allocator@D@2@@std@@QEAAAEAV12@AEBV12@@Z 000000014003dfc0 f i Session.obj
 0002:0001d070       ?append@?$basic_string@DU?$char_traits@D@std@@V?$allocator@D@2@@std@@QEAAAEAV12@QEBD@Z 000000014003e070 f i Session.obj
 0002:0001d100       ?append@?$basic_string@DU?$char_traits@D@std@@V?$allocator@D@2@@std@@QEAAAEAV12@QEBD_K@Z 000000014003e100 f i Session.obj
 0002:0001d340       ?assign@?$_Narrow_char_traits@DH@std@@SAXAEADAEBD@Z 000000014003e340 f i Session.obj
 0002:0001d3b0       ?assign@?$basic_string@DU?$char_traits@D@std@@V?$allocator@D@2@@std@@QEAAAEAV12@QEBD@Z 000000014003e3b0 f i Session.obj
 0002:0001d440       ?assign@?$basic_string@DU?$char_traits@D@std@@V?$allocator@D@2@@std@@QEAAAEAV12@QEBD_K@Z 000000014003e440 f i Session.obj
 0002:0001d6c0       ?begin@?$initializer_list@U?$pair@$$CBV?$basic_string@DU?$char_traits@D@std@@V?$allocator@D@2@@std@@P6A?AVany@2@AEAVSessionBase@Session@Domain@@AEBV?$vector@V?$basic_string@DU?$char_traits@D@std@@V?$allocator@D@2@@std@@V?$allocator@V?$basic_string@DU?$char_traits@D@std@@V?$allocator@D@2@@std@@@2@@2@@Z@std@@@std@@QEBAPEBU?$pair@$$CBV?$basic_string@DU?$char_traits@D@std@@V?$allocator@D@2@@std@@P6A?AVany@2@AEAVSessionBase@Session@Domain@@AEBV?$vector@V?$basic_string@DU?$char_traits@D@std@@V?$allocator@D@2@@std@@V?$allocator@V?$basic_string@DU?$char_traits@D@std@@V?$allocator@D@2@@std@@@2@@2@@Z@2@XZ 000000014003e6c0 f i Session.obj
 0002:0001d7c0       ?c_str@?$basic_string@DU?$char_traits@D@std@@V?$allocator@D@2@@std@@QEBAPEBDXZ 000000014003e7c0 f i Session.obj
 0002:0001d830       ?capacity@?$vector@UClient@Persistence@TechnicalServices@@V?$allocator@UClient@Persistence@TechnicalServices@@@std@@@std@@QEBA_KXZ 000000014003e830 f i Session.obj
 0002:0001d8c0       ?capacity@?$vector@V?$basic_string@DU?$char_traits@D@std@@V?$allocator@D@2@@std@@V?$allocator@V?$basic_string@DU?$char_traits@D@std@@V?$allocator@D@2@@std@@@2@@std@@QEBA_KXZ 000000014003e8c0 f i Session.obj
 0002:0001dc00       ?clear@?$_Tree@V?$_Tmap_traits@V?$basic_string@DU?$char_traits@D@std@@V?$allocator@D@2@@std@@P6A?AVany@2@AEAVSessionBase@Session@Domain@@AEBV?$vector@V?$basic_string@DU?$char_traits@D@std@@V?$allocator@D@2@@std@@V?$allocator@V?$basic_string@DU?$char_traits@D@std@@V?$allocator@D@2@@std@@@2@@2@@ZU?$less@V?$basic_string@DU?$char_traits@D@std@@V?$allocator@D@2@@std@@@2@V?$allocator@U?$pair@$$CBV?$basic_string@DU?$char_traits@D@std@@V?$allocator@D@2@@std@@P6A?AVany@2@AEAVSessionBase@Session@Domain@@AEBV?$vector@V?$basic_string@DU?$char_traits@D@std@@V?$allocator@D@2@@std@@V?$allocator@V?$basic_string@DU?$char_traits@D@std@@V?$allocator@D@2@@std@@@2@@2@@Z@std@@@2@$0A@@std@@@std@@QEAAXXZ 000000014003ec00 f i Session.obj
 0002:0001dd10       ?compare@?$basic_string@DU?$char_traits@D@std@@V?$allocator@D@2@@std@@QEBAHAEBV12@@Z 000000014003ed10 f i Session.obj
 0002:0001de00       ?copy@?$_Narrow_char_traits@DH@std@@SAPEADQEADQEBD_K@Z 000000014003ee00 f i Session.obj
 0002:0001de80       ?data@?$basic_string@DU?$char_traits@D@std@@V?$allocator@D@2@@std@@QEBAPEBDXZ 000000014003ee80 f i Session.obj
 0002:0001def0       ?deallocate@?$_Default_allocator_traits@V?$allocator@U?$_Tree_node@U?$pair@$$CBV?$basic_string@DU?$char_traits@D@std@@V?$allocator@D@2@@std@@P6A?AVany@2@AEAVSessionBase@Session@Domain@@AEBV?$vector@V?$basic_string@DU?$char_traits@D@std@@V?$allocator@D@2@@std@@V?$allocator@V?$basic_string@DU?$char_traits@D@std@@V?$allocator@D@2@@std@@@2@@2@@Z@std@@PEAX@std@@@std@@@std@@SAXAEAV?$allocator@U?$_Tree_node@U?$pair@$$CBV?$basic_string@DU?$char_traits@D@std@@V?$allocator@D@2@@std@@P6A?AVany@2@AEAVSessionBase@Session@Domain@@AEBV?$vector@V?$basic_string@DU?$char_traits@D@std@@V?$allocator@D@2@@std@@V?$allocator@V?$basic_string@DU?$char_traits@D@std@@V?$allocator@D@2@@std@@@2@@2@@Z@std@@PEAX@std@@@2@QEAU?$_Tree_node@U?$pair@$$CBV?$basic_string@DU?$char_traits@D@std@@V?$allocator@D@2@@std@@P6A?AVany@2@AEAVSessionBase@Session@Domain@@AEBV?$vector@V?$basic_string@DU?$char_traits@D@std@@V?$allocator@D@2@@std@@V?$allocator@V?$basic_string@DU?$char_traits@D@std@@V?$allocator@D@2@@std@@@2@@2@@Z@std@@PEAX@2@_K@Z 000000014003eef0 f i Session.obj
 0002:0001df70       ?deallocate@?$_Default_allocator_traits@V?$allocator@U_Container_proxy@std@@@std@@@std@@SAXAEAV?$allocator@U_Container_proxy@std@@@2@QEAU_Container_proxy@2@_K@Z 000000014003ef70 f i Session.obj
 0002:0001dff0       ?deallocate@?$allocator@D@std@@QEAAXQEAD_K@Z 000000014003eff0 f i Session.obj
 0002:0001e070       ?deallocate@?$allocator@U?$_Tree_node@U?$pair@$$CBV?$basic_string@DU?$char_traits@D@std@@V?$allocator@D@2@@std@@P6A?AVany@2@AEAVSessionBase@Session@Domain@@AEBV?$vector@V?$basic_string@DU?$char_traits@D@std@@V?$allocator@D@2@@std@@V?$allocator@V?$basic_string@DU?$char_traits@D@std@@V?$allocator@D@2@@std@@@2@@2@@Z@std@@PEAX@std@@@std@@QEAAXQEAU?$_Tree_node@U?$pair@$$CBV?$basic_string@DU?$char_traits@D@std@@V?$allocator@D@2@@std@@P6A?AVany@2@AEAVSessionBase@Session@Domain@@AEBV?$vector@V?$basic_string@DU?$char_traits@D@std@@V?$allocator@D@2@@std@@V?$allocator@V?$basic_string@DU?$char_traits@D@std@@V?$allocator@D@2@@std@@@2@@2@@Z@std@@PEAX@2@_K@Z 000000014003f070 f i Session.obj
 0002:0001e0f0       ?deallocate@?$allocator@UClient@Persistence@TechnicalServices@@@std@@QEAAXQEAUClient@Persistence@TechnicalServices@@_K@Z 000000014003f0f0 f i Session.obj
 0002:0001e170       ?deallocate@?$allocator@V?$basic_string@DU?$char_traits@D@std@@V?$allocator@D@2@@std@@@std@@QEAAXQEAV?$basic_string@DU?$char_traits@D@std@@V?$allocator@D@2@@2@_K@Z 000000014003f170 f i Session.obj
 0002:0001e1f0       ?end@?$_Tree@V?$_Tmap_traits@V?$basic_string@DU?$char_traits@D@std@@V?$allocator@D@2@@std@@P6A?AVany@2@AEAVSessionBase@Session@Domain@@AEBV?$vector@V?$basic_string@DU?$char_traits@D@std@@V?$allocator@D@2@@std@@V?$allocator@V?$basic_string@DU?$char_traits@D@std@@V?$allocator@D@2@@std@@@2@@2@@ZU?$less@V?$basic_string@DU?$char_traits@D@std@@V?$allocator@D@2@@std@@@2@V?$allocator@U?$pair@$$CBV?$basic_string@DU?$char_traits@D@std@@V?$allocator@D@2@@std@@P6A?AVany@2@AEAVSessionBase@Session@Domain@@AEBV?$vector@V?$basic_string@DU?$char_traits@D@std@@V?$allocator@D@2@@std@@V?$allocator@V?$basic_string@DU?$char_traits@D@std@@V?$allocator@D@2@@std@@@2@@2@@Z@std@@@2@$0A@@std@@@std@@QEAA?AV?$_Tree_iterator@V?$_Tree_val@U?$_Tree_simple_types@U?$pair@$$CBV?$basic_string@DU?$char_traits@D@std@@V?$allocator@D@2@@std@@P6A?AVany@2@AEAVSessionBase@Session@Domain@@AEBV?$vector@V?$basic_string@DU?$char_traits@D@std@@V?$allocator@D@2@@std@@V?$allocator@V?$basic_string@DU?$char_traits@D@std@@V?$allocator@D@2@@std@@@2@@2@@Z@std@@@std@@@std@@@2@XZ 000000014003f1f0 f i Session.obj
 0002:0001e290       ?end@?$initializer_list@U?$pair@$$CBV?$basic_string@DU?$char_traits@D@std@@V?$allocator@D@2@@std@@P6A?AVany@2@AEAVSessionBase@Session@Domain@@AEBV?$vector@V?$basic_string@DU?$char_traits@D@std@@V?$allocator@D@2@@std@@V?$allocator@V?$basic_string@DU?$char_traits@D@std@@V?$allocator@D@2@@std@@@2@@2@@Z@std@@@std@@QEBAPEBU?$pair@$$CBV?$basic_string@DU?$char_traits@D@std@@V?$allocator@D@2@@std@@P6A?AVany@2@AEAVSessionBase@Session@Domain@@AEBV?$vector@V?$basic_string@DU?$char_traits@D@std@@V?$allocator@D@2@@std@@V?$allocator@V?$basic_string@DU?$char_traits@D@std@@V?$allocator@D@2@@std@@@2@@2@@Z@2@XZ 000000014003f290 f i Session.obj
 0002:0001e2f0       ?eof@?$_Narrow_char_traits@DH@std@@SAHXZ 000000014003f2f0 f i Session.obj
 0002:0001e340       ?eq_int_type@?$_Narrow_char_traits@DH@std@@SA_NAEBH0@Z 000000014003f340 f i Session.obj
 0002:0001e3e0       ?executeCommand@SessionBase@Session@Domain@@UEAA?AVany@std@@AEBV?$basic_string@DU?$char_traits@D@std@@V?$allocator@D@2@@5@AEBV?$vector@V?$basic_string@DU?$char_traits@D@std@@V?$allocator@D@2@@std@@V?$allocator@V?$basic_string@DU?$char_traits@D@std@@V?$allocator@D@2@@std@@@2@@5@@Z 000000014003f3e0 f   Session.obj
 0002:0001eae0       ?find@?$_Tree@V?$_Tmap_traits@V?$basic_string@DU?$char_traits@D@std@@V?$allocator@D@2@@std@@P6A?AVany@2@AEAVSessionBase@Session@Domain@@AEBV?$vector@V?$basic_string@DU?$char_traits@D@std@@V?$allocator@D@2@@std@@V?$allocator@V?$basic_string@DU?$char_traits@D@std@@V?$allocator@D@2@@std@@@2@@2@@ZU?$less@V?$basic_string@DU?$char_traits@D@std@@V?$allocator@D@2@@std@@@2@V?$allocator@U?$pair@$$CBV?$basic_string@DU?$char_traits@D@std@@V?$allocator@D@2@@std@@P6A?AVany@2@AEAVSessionBase@Session@Domain@@AEBV?$vector@V?$basic_string@DU?$char_traits@D@std@@V?$allocator@D@2@@std@@V?$allocator@V?$basic_string@DU?$char_traits@D@std@@V?$allocator@D@2@@std@@@2@@2@@Z@std@@@2@$0A@@std@@@std@@QEAA?AV?$_Tree_iterator@V?$_Tree_val@U?$_Tree_simple_types@U?$pair@$$CBV?$basic_string@DU?$char_traits@D@std@@V?$allocator@D@2@@std@@P6A?AVany@2@AEAVSessionBase@Session@Domain@@AEBV?$vector@V?$basic_string@DU?$char_traits@D@std@@V?$allocator@D@2@@std@@V?$allocator@V?$basic_string@DU?$char_traits@D@std@@V?$allocator@D@2@@std@@@2@@2@@Z@std@@@std@@@std@@@2@AEBV?$basic_string@DU?$char_traits@D@std@@V?$allocator@D@2@@2@@Z 000000014003fae0 f i Session.obj
 0002:0001ebc0       ?getCommands@SessionBase@Session@Domain@@UEAA?AV?$vector@V?$basic_string@DU?$char_traits@D@std@@V?$allocator@D@2@@std@@V?$allocator@V?$basic_string@DU?$char_traits@D@std@@V?$allocator@D@2@@std@@@2@@std@@XZ 000000014003fbc0 f   Session.obj
 0002:0001edc0       ?has_value@any@std@@QEBA_NXZ 000000014003fdc0 f i Session.obj
 0002:0001ee50       ?insert@?$_Tree@V?$_Tmap_traits@V?$basic_string@DU?$char_traits@D@std@@V?$allocator@D@2@@std@@P6A?AVany@2@AEAVSessionBase@Session@Domain@@AEBV?$vector@V?$basic_string@DU?$char_traits@D@std@@V?$allocator@D@2@@std@@V?$allocator@V?$basic_string@DU?$char_traits@D@std@@V?$allocator@D@2@@std@@@2@@2@@ZU?$less@V?$basic_string@DU?$char_traits@D@std@@V?$allocator@D@2@@std@@@2@V?$allocator@U?$pair@$$CBV?$basic_string@DU?$char_traits@D@std@@V?$allocator@D@2@@std@@P6A?AVany@2@AEAVSessionBase@Session@Domain@@AEBV?$vector@V?$basic_string@DU?$char_traits@D@std@@V?$allocator@D@2@@std@@V?$allocator@V?$basic_string@DU?$char_traits@D@std@@V?$allocator@D@2@@std@@@2@@2@@Z@std@@@2@$0A@@std@@@std@@QEAAXV?$initializer_list@U?$pair@$$CBV?$basic_string@DU?$char_traits@D@std@@V?$allocator@D@2@@std@@P6A?AVany@2@AEAVSessionBase@Session@Domain@@AEBV?$vector@V?$basic_string@DU?$char_traits@D@std@@V?$allocator@D@2@@std@@V?$allocator@V?$basic_string@DU?$char_traits@D@std@@V?$allocator@D@2@@std@@@2@@2@@Z@std@@@2@@Z 000000014003fe50 f i Session.obj
 0002:0001ef00       ?insert@?$basic_string@DU?$char_traits@D@std@@V?$allocator@D@2@@std@@QEAAAEAV12@_KQEBD0@Z 000000014003ff00 f i Session.obj
 0002:0001f1d0       ?insert@?$basic_string@DU?$char_traits@D@std@@V?$allocator@D@2@@std@@QEAAAEAV12@_KQEBD@Z 00000001400401d0 f i Session.obj
 0002:0001f310       ?line@Client@Domain@@YAXXZ 0000000140040310 f   Session.obj
 0002:0001f4e0       ?max@?$numeric_limits@_J@std@@SA_JXZ 00000001400404e0 f i Session.obj
 0002:0001f530       ?max_size@?$_Default_allocator_traits@V?$allocator@D@std@@@std@@SA_KAEBV?$allocator@D@2@@Z 0000000140040530 f i Session.obj
 0002:0001f590       ?max_size@?$_Default_allocator_traits@V?$allocator@U?$_Tree_node@U?$pair@$$CBV?$basic_string@DU?$char_traits@D@std@@V?$allocator@D@2@@std@@P6A?AVany@2@AEAVSessionBase@Session@Domain@@AEBV?$vector@V?$basic_string@DU?$char_traits@D@std@@V?$allocator@D@2@@std@@V?$allocator@V?$basic_string@DU?$char_traits@D@std@@V?$allocator@D@2@@std@@@2@@2@@Z@std@@PEAX@std@@@std@@@std@@SA_KAEBV?$allocator@U?$_Tree_node@U?$pair@$$CBV?$basic_string@DU?$char_traits@D@std@@V?$allocator@D@2@@std@@P6A?AVany@2@AEAVSessionBase@Session@Domain@@AEBV?$vector@V?$basic_string@DU?$char_traits@D@std@@V?$allocator@D@2@@std@@V?$allocator@V?$basic_string@DU?$char_traits@D@std@@V?$allocator@D@2@@std@@@2@@2@@Z@std@@PEAX@std@@@2@@Z 0000000140040590 f i Session.obj
 0002:0001f5f0       ?max_size@?$_Default_allocator_traits@V?$allocator@UClient@Persistence@TechnicalServices@@@std@@@std@@SA_KAEBV?$allocator@UClient@Persistence@TechnicalServices@@@2@@Z 00000001400405f0 f i Session.obj
 0002:0001f650       ?max_size@?$_Default_allocator_traits@V?$allocator@V?$basic_string@DU?$char_traits@D@std@@V?$allocator@D@2@@std@@@std@@@std@@SA_KAEBV?$allocator@V?$basic_string@DU?$char_traits@D@std@@V?$allocator@D@2@@std@@@2@@Z 0000000140040650 f i Session.obj
 0002:0001f6b0       ?max_size@?$_Tree@V?$_Tmap_traits@V?$basic_string@DU?$char_traits@D@std@@V?$allocator@D@2@@std@@P6A?AVany@2@AEAVSessionBase@Session@Domain@@AEBV?$vector@V?$basic_string@DU?$char_traits@D@std@@V?$allocator@D@2@@std@@V?$allocator@V?$basic_string@DU?$char_traits@D@std@@V?$allocator@D@2@@std@@@2@@2@@ZU?$less@V?$basic_string@DU?$char_traits@D@std@@V?$allocator@D@2@@std@@@2@V?$allocator@U?$pair@$$CBV?$basic_string@DU?$char_traits@D@std@@V?$allocator@D@2@@std@@P6A?AVany@2@AEAVSessionBase@Session@Domain@@AEBV?$vector@V?$basic_string@DU?$char_traits@D@std@@V?$allocator@D@2@@std@@V?$allocator@V?$basic_string@DU?$char_traits@D@std@@V?$allocator@D@2@@std@@@2@@2@@Z@std@@@2@$0A@@std@@@std@@QEBA_KXZ 00000001400406b0 f i Session.obj
 0002:0001f750       ?max_size@?$basic_string@DU?$char_traits@D@std@@V?$allocator@D@2@@std@@QEBA_KXZ 0000000140040750 f i Session.obj
 0002:0001f870       ?max_size@?$vector@UClient@Persistence@TechnicalServices@@V?$allocator@UClient@Persistence@TechnicalServices@@@std@@@std@@QEBA_KXZ 0000000140040870 f i Session.obj
 0002:0001f910       ?max_size@?$vector@V?$basic_string@DU?$char_traits@D@std@@V?$allocator@D@2@@std@@V?$allocator@V?$basic_string@DU?$char_traits@D@std@@V?$allocator@D@2@@std@@@2@@std@@QEBA_KXZ 0000000140040910 f i Session.obj
 0002:0001fa50       ?move@?$_Narrow_char_traits@DH@std@@SAPEADQEADQEBD_K@Z 0000000140040a50 f i Session.obj
 0002:0001fad0       ?pointer_to@?$pointer_traits@PEAU?$pair@$$CBV?$basic_string@DU?$char_traits@D@std@@V?$allocator@D@2@@std@@P6A?AVany@2@AEAVSessionBase@Session@Domain@@AEBV?$vector@V?$basic_string@DU?$char_traits@D@std@@V?$allocator@D@2@@std@@V?$allocator@V?$basic_string@DU?$char_traits@D@std@@V?$allocator@D@2@@std@@@2@@2@@Z@std@@@std@@SAPEAU?$pair@$$CBV?$basic_string@DU?$char_traits@D@std@@V?$allocator@D@2@@std@@P6A?AVany@2@AEAVSessionBase@Session@Domain@@AEBV?$vector@V?$basic_string@DU?$char_traits@D@std@@V?$allocator@D@2@@std@@V?$allocator@V?$basic_string@DU?$char_traits@D@std@@V?$allocator@D@2@@std@@@2@@2@@Z@2@AEAU32@@Z 0000000140040ad0 f i Session.obj
 0002:0001fb30       ?push_back@?$basic_string@DU?$char_traits@D@std@@V?$allocator@D@2@@std@@QEAAXD@Z 0000000140040b30 f i Session.obj
 0002:0001fc70       ?push_back@?$vector@UClient@Persistence@TechnicalServices@@V?$allocator@UClient@Persistence@TechnicalServices@@@std@@@std@@QEAAXAEBUClient@Persistence@TechnicalServices@@@Z 0000000140040c70 f i Session.obj
 0002:0001fce0       ?reserve@?$vector@V?$basic_string@DU?$char_traits@D@std@@V?$allocator@D@2@@std@@V?$allocator@V?$basic_string@DU?$char_traits@D@std@@V?$allocator@D@2@@std@@@2@@std@@QEAAX_K@Z 0000000140040ce0 f i Session.obj
 0002:0001fd90       ?reset@any@std@@QEAAXXZ    0000000140040d90 f i Session.obj
 0002:0001ff30       ?select_on_container_copy_construction@?$_Default_allocator_traits@V?$allocator@D@std@@@std@@SA?AV?$allocator@D@2@AEBV32@@Z 0000000140040f30 f i Session.obj
 0002:0001ff90       ?select_on_container_copy_construction@?$_Default_allocator_traits@V?$allocator@UClient@Persistence@TechnicalServices@@@std@@@std@@SA?AV?$allocator@UClient@Persistence@TechnicalServices@@@2@AEBV32@@Z 0000000140040f90 f i Session.obj
 0002:0001fff0       ?select_on_container_copy_construction@?$_Default_allocator_traits@V?$allocator@V?$basic_string@DU?$char_traits@D@std@@V?$allocator@D@2@@std@@@std@@@std@@SA?AV?$allocator@V?$basic_string@DU?$char_traits@D@std@@V?$allocator@D@2@@std@@@2@AEBV32@@Z 0000000140040ff0 f i Session.obj
 0002:00020050       ?size@?$_Tree@V?$_Tmap_traits@V?$basic_string@DU?$char_traits@D@std@@V?$allocator@D@2@@std@@P6A?AVany@2@AEAVSessionBase@Session@Domain@@AEBV?$vector@V?$basic_string@DU?$char_traits@D@std@@V?$allocator@D@2@@std@@V?$allocator@V?$basic_string@DU?$char_traits@D@std@@V?$allocator@D@2@@std@@@2@@2@@ZU?$less@V?$basic_string@DU?$char_traits@D@std@@V?$allocator@D@2@@std@@@2@V?$allocator@U?$pair@$$CBV?$basic_string@DU?$char_traits@D@std@@V?$allocator@D@2@@std@@P6A?AVany@2@AEAVSessionBase@Session@Domain@@AEBV?$vector@V?$basic_string@DU?$char_traits@D@std@@V?$allocator@D@2@@std@@V?$allocator@V?$basic_string@DU?$char_traits@D@std@@V?$allocator@D@2@@std@@@2@@2@@Z@std@@@2@$0A@@std@@@std@@QEBA_KXZ 0000000140041050 f i Session.obj
 0002:000200c0       ?size@?$basic_string@DU?$char_traits@D@std@@V?$allocator@D@2@@std@@QEBA_KXZ 00000001400410c0 f i Session.obj
 0002:00020120       ?to_string@std@@YA?AV?$basic_string@DU?$char_traits@D@std@@V?$allocator@D@2@@1@H@Z 0000000140041120 f i Session.obj
 0002:000201c0       ?what@bad_any_cast@std@@UEBAPEBDXZ 00000001400411c0 f i Session.obj
 0002:00020220       ?what@exception@std@@UEBAPEBDXZ 0000000140041220 f i Session.obj
 0002:000202c0       wmemcpy                    00000001400412c0 f i Session.obj
 0002:00020350       ??$?0$$V@?$_Compressed_pair@U?$default_delete@VSessionHandler@Session@Domain@@@std@@PEAVSessionHandler@Session@Domain@@$00@std@@QEAA@U_Zero_then_variadic_args_t@1@@Z 0000000140041350 f i SessionHandler.obj
 0002:000203c0       ??$?0AEAPEAUAssistantSession@Session@Domain@@@?$_Compressed_pair@U?$default_delete@UAssistantSession@Session@Domain@@@std@@PEAUAssistantSession@Session@Domain@@$00@std@@QEAA@U_Zero_then_variadic_args_t@1@AEAPEAUAssistantSession@Session@Domain@@@Z 00000001400413c0 f i SessionHandler.obj
 0002:00020450       ??$?0AEAPEAUITAdministratorSession@Session@Domain@@@?$_Compressed_pair@U?$default_delete@UITAdministratorSession@Session@Domain@@@std@@PEAUITAdministratorSession@Session@Domain@@$00@std@@QEAA@U_Zero_then_variadic_args_t@1@AEAPEAUITAdministratorSession@Session@Domain@@@Z 0000000140041450 f i SessionHandler.obj
 0002:000204e0       ??$?0AEAPEAUSalesManagerSession@Session@Domain@@@?$_Compressed_pair@U?$default_delete@USalesManagerSession@Session@Domain@@@std@@PEAUSalesManagerSession@Session@Domain@@$00@std@@QEAA@U_Zero_then_variadic_args_t@1@AEAPEAUSalesManagerSession@Session@Domain@@@Z 00000001400414e0 f i SessionHandler.obj
 0002:00020570       ??$?0AEAPEAUSalespersonSession@Session@Domain@@@?$_Compressed_pair@U?$default_delete@USalespersonSession@Session@Domain@@@std@@PEAUSalespersonSession@Session@Domain@@$00@std@@QEAA@U_Zero_then_variadic_args_t@1@AEAPEAUSalespersonSession@Session@Domain@@@Z 0000000140041570 f i SessionHandler.obj
 0002:00020600       ??$?0U?$default_delete@UAssistantSession@Session@Domain@@@std@@$0A@@?$unique_ptr@UAssistantSession@Session@Domain@@U?$default_delete@UAssistantSession@Session@Domain@@@std@@@std@@QEAA@PEAUAssistantSession@Session@Domain@@@Z 0000000140041600 f i SessionHandler.obj
 0002:000206a0       ??$?0U?$default_delete@UAssistantSession@Session@Domain@@@std@@PEAUAssistantSession@Session@Domain@@@?$_Compressed_pair@U?$default_delete@VSessionHandler@Session@Domain@@@std@@PEAVSessionHandler@Session@Domain@@$00@std@@QEAA@U_One_then_variadic_args_t@1@$$QEAU?$default_delete@UAssistantSession@Session@Domain@@@1@$$QEAPEAUAssistantSession@Session@Domain@@@Z 00000001400416a0 f i SessionHandler.obj
 0002:00020750       ??$?0U?$default_delete@UITAdministratorSession@Session@Domain@@@std@@$0A@@?$unique_ptr@UITAdministratorSession@Session@Domain@@U?$default_delete@UITAdministratorSession@Session@Domain@@@std@@@std@@QEAA@PEAUITAdministratorSession@Session@Domain@@@Z 0000000140041750 f i SessionHandler.obj
 0002:000207f0       ??$?0U?$default_delete@UITAdministratorSession@Session@Domain@@@std@@PEAUITAdministratorSession@Session@Domain@@@?$_Compressed_pair@U?$default_delete@VSessionHandler@Session@Domain@@@std@@PEAVSessionHandler@Session@Domain@@$00@std@@QEAA@U_One_then_variadic_args_t@1@$$QEAU?$default_delete@UITAdministratorSession@Session@Domain@@@1@$$QEAPEAUITAdministratorSession@Session@Domain@@@Z 00000001400417f0 f i SessionHandler.obj
 0002:000208a0       ??$?0U?$default_delete@USalesManagerSession@Session@Domain@@@std@@$0A@@?$unique_ptr@USalesManagerSession@Session@Domain@@U?$default_delete@USalesManagerSession@Session@Domain@@@std@@@std@@QEAA@PEAUSalesManagerSession@Session@Domain@@@Z 00000001400418a0 f i SessionHandler.obj
 0002:00020940       ??$?0U?$default_delete@USalesManagerSession@Session@Domain@@@std@@PEAUSalesManagerSession@Session@Domain@@@?$_Compressed_pair@U?$default_delete@VSessionHandler@Session@Domain@@@std@@PEAVSessionHandler@Session@Domain@@$00@std@@QEAA@U_One_then_variadic_args_t@1@$$QEAU?$default_delete@USalesManagerSession@Session@Domain@@@1@$$QEAPEAUSalesManagerSession@Session@Domain@@@Z 0000000140041940 f i SessionHandler.obj
 0002:000209f0       ??$?0U?$default_delete@USalespersonSession@Session@Domain@@@std@@$0A@@?$unique_ptr@USalespersonSession@Session@Domain@@U?$default_delete@USalespersonSession@Session@Domain@@@std@@@std@@QEAA@PEAUSalespersonSession@Session@Domain@@@Z 00000001400419f0 f i SessionHandler.obj
 0002:00020a90       ??$?0U?$default_delete@USalespersonSession@Session@Domain@@@std@@PEAUSalespersonSession@Session@Domain@@@?$_Compressed_pair@U?$default_delete@VSessionHandler@Session@Domain@@@std@@PEAVSessionHandler@Session@Domain@@$00@std@@QEAA@U_One_then_variadic_args_t@1@$$QEAU?$default_delete@USalespersonSession@Session@Domain@@@1@$$QEAPEAUSalespersonSession@Session@Domain@@@Z 0000000140041a90 f i SessionHandler.obj
 0002:00020b40       ??$?0U?$default_delete@VSessionHandler@Session@Domain@@@std@@$0A@@?$unique_ptr@VSessionHandler@Session@Domain@@U?$default_delete@VSessionHandler@Session@Domain@@@std@@@std@@QEAA@$$T@Z 0000000140041b40 f i SessionHandler.obj
 0002:00020bd0       ??$?0UAssistantSession@Session@Domain@@$0A@@?$default_delete@VSessionHandler@Session@Domain@@@std@@QEAA@AEBU?$default_delete@UAssistantSession@Session@Domain@@@1@@Z 0000000140041bd0 f i SessionHandler.obj
 0002:00020c30       ??$?0UAssistantSession@Session@Domain@@U?$default_delete@UAssistantSession@Session@Domain@@@std@@$0A@@?$unique_ptr@VSessionHandler@Session@Domain@@U?$default_delete@VSessionHandler@Session@Domain@@@std@@@std@@QEAA@$$QEAV?$unique_ptr@UAssistantSession@Session@Domain@@U?$default_delete@UAssistantSession@Session@Domain@@@std@@@1@@Z 0000000140041c30 f i SessionHandler.obj
 0002:00020d20       ??$?0UITAdministratorSession@Session@Domain@@$0A@@?$default_delete@VSessionHandler@Session@Domain@@@std@@QEAA@AEBU?$default_delete@UITAdministratorSession@Session@Domain@@@1@@Z 0000000140041d20 f i SessionHandler.obj
 0002:00020d80       ??$?0UITAdministratorSession@Session@Domain@@U?$default_delete@UITAdministratorSession@Session@Domain@@@std@@$0A@@?$unique_ptr@VSessionHandler@Session@Domain@@U?$default_delete@VSessionHandler@Session@Domain@@@std@@@std@@QEAA@$$QEAV?$unique_ptr@UITAdministratorSession@Session@Domain@@U?$default_delete@UITAdministratorSession@Session@Domain@@@std@@@1@@Z 0000000140041d80 f i SessionHandler.obj
 0002:00020e70       ??$?0USalesManagerSession@Session@Domain@@$0A@@?$default_delete@VSessionHandler@Session@Domain@@@std@@QEAA@AEBU?$default_delete@USalesManagerSession@Session@Domain@@@1@@Z 0000000140041e70 f i SessionHandler.obj
 0002:00020ed0       ??$?0USalesManagerSession@Session@Domain@@U?$default_delete@USalesManagerSession@Session@Domain@@@std@@$0A@@?$unique_ptr@VSessionHandler@Session@Domain@@U?$default_delete@VSessionHandler@Session@Domain@@@std@@@std@@QEAA@$$QEAV?$unique_ptr@USalesManagerSession@Session@Domain@@U?$default_delete@USalesManagerSession@Session@Domain@@@std@@@1@@Z 0000000140041ed0 f i SessionHandler.obj
 0002:00020fc0       ??$?0USalespersonSession@Session@Domain@@$0A@@?$default_delete@VSessionHandler@Session@Domain@@@std@@QEAA@AEBU?$default_delete@USalespersonSession@Session@Domain@@@1@@Z 0000000140041fc0 f i SessionHandler.obj
 0002:00021020       ??$?0USalespersonSession@Session@Domain@@U?$default_delete@USalespersonSession@Session@Domain@@@std@@$0A@@?$unique_ptr@VSessionHandler@Session@Domain@@U?$default_delete@VSessionHandler@Session@Domain@@@std@@@std@@QEAA@$$QEAV?$unique_ptr@USalespersonSession@Session@Domain@@U?$default_delete@USalespersonSession@Session@Domain@@@std@@@1@@Z 0000000140042020 f i SessionHandler.obj
 0002:00021110       ??$?8DU?$char_traits@D@std@@V?$allocator@D@1@@std@@YA_NAEBV?$basic_string@DU?$char_traits@D@std@@V?$allocator@D@2@@0@0@Z 0000000140042110 f i SessionHandler.obj
 0002:00021180       ??$exchange@PEAUAssistantSession@Session@Domain@@PEAU123@@std@@YAPEAUAssistantSession@Session@Domain@@AEAPEAU123@$$QEAPEAU123@@Z 0000000140042180 f i SessionHandler.obj
 0002:00021210       ??$exchange@PEAUITAdministratorSession@Session@Domain@@PEAU123@@std@@YAPEAUITAdministratorSession@Session@Domain@@AEAPEAU123@$$QEAPEAU123@@Z 0000000140042210 f i SessionHandler.obj
 0002:000212a0       ??$exchange@PEAUSalesManagerSession@Session@Domain@@PEAU123@@std@@YAPEAUSalesManagerSession@Session@Domain@@AEAPEAU123@$$QEAPEAU123@@Z 00000001400422a0 f i SessionHandler.obj
 0002:00021330       ??$exchange@PEAUSalespersonSession@Session@Domain@@PEAU123@@std@@YAPEAUSalespersonSession@Session@Domain@@AEAPEAU123@$$QEAPEAU123@@Z 0000000140042330 f i SessionHandler.obj
 0002:000213c0       ??$forward@AEAPEAUAssistantSession@Session@Domain@@@std@@YAAEAPEAUAssistantSession@Session@Domain@@AEAPEAU123@@Z 00000001400423c0 f i SessionHandler.obj
 0002:00021420       ??$forward@AEAPEAUITAdministratorSession@Session@Domain@@@std@@YAAEAPEAUITAdministratorSession@Session@Domain@@AEAPEAU123@@Z 0000000140042420 f i SessionHandler.obj
 0002:00021480       ??$forward@AEAPEAUSalesManagerSession@Session@Domain@@@std@@YAAEAPEAUSalesManagerSession@Session@Domain@@AEAPEAU123@@Z 0000000140042480 f i SessionHandler.obj
 0002:000214e0       ??$forward@AEAPEAUSalespersonSession@Session@Domain@@@std@@YAAEAPEAUSalespersonSession@Session@Domain@@AEAPEAU123@@Z 00000001400424e0 f i SessionHandler.obj
 0002:00021540       ??$forward@AEBUUserCredentials@Persistence@TechnicalServices@@@std@@YAAEBUUserCredentials@Persistence@TechnicalServices@@AEBU123@@Z 0000000140042540 f i SessionHandler.obj
 0002:000215a0       ??$forward@PEAUAssistantSession@Session@Domain@@@std@@YA$$QEAPEAUAssistantSession@Session@Domain@@AEAPEAU123@@Z 00000001400425a0 f i SessionHandler.obj
 0002:00021600       ??$forward@PEAUITAdministratorSession@Session@Domain@@@std@@YA$$QEAPEAUITAdministratorSession@Session@Domain@@AEAPEAU123@@Z 0000000140042600 f i SessionHandler.obj
 0002:00021660       ??$forward@PEAUSalesManagerSession@Session@Domain@@@std@@YA$$QEAPEAUSalesManagerSession@Session@Domain@@AEAPEAU123@@Z 0000000140042660 f i SessionHandler.obj
 0002:000216c0       ??$forward@PEAUSalespersonSession@Session@Domain@@@std@@YA$$QEAPEAUSalespersonSession@Session@Domain@@AEAPEAU123@@Z 00000001400426c0 f i SessionHandler.obj
 0002:00021720       ??$forward@U?$default_delete@UAssistantSession@Session@Domain@@@std@@@std@@YA$$QEAU?$default_delete@UAssistantSession@Session@Domain@@@0@AEAU10@@Z 0000000140042720 f i SessionHandler.obj
 0002:00021780       ??$forward@U?$default_delete@UITAdministratorSession@Session@Domain@@@std@@@std@@YA$$QEAU?$default_delete@UITAdministratorSession@Session@Domain@@@0@AEAU10@@Z 0000000140042780 f i SessionHandler.obj
 0002:000217e0       ??$forward@U?$default_delete@USalesManagerSession@Session@Domain@@@std@@@std@@YA$$QEAU?$default_delete@USalesManagerSession@Session@Domain@@@0@AEAU10@@Z 00000001400427e0 f i SessionHandler.obj
 0002:00021840       ??$forward@U?$default_delete@USalespersonSession@Session@Domain@@@std@@@std@@YA$$QEAU?$default_delete@USalespersonSession@Session@Domain@@@0@AEAU10@@Z 0000000140042840 f i SessionHandler.obj
 0002:000218a0       ??$make_unique@UAssistantSession@Session@Domain@@AEBUUserCredentials@Persistence@TechnicalServices@@$0A@@std@@YA?AV?$unique_ptr@UAssistantSession@Session@Domain@@U?$default_delete@UAssistantSession@Session@Domain@@@std@@@0@AEBUUserCredentials@Persistence@TechnicalServices@@@Z 00000001400428a0 f i SessionHandler.obj
 0002:000219c0       ??$make_unique@UITAdministratorSession@Session@Domain@@AEBUUserCredentials@Persistence@TechnicalServices@@$0A@@std@@YA?AV?$unique_ptr@UITAdministratorSession@Session@Domain@@U?$default_delete@UITAdministratorSession@Session@Domain@@@std@@@0@AEBUUserCredentials@Persistence@TechnicalServices@@@Z 00000001400429c0 f i SessionHandler.obj
 0002:00021ae0       ??$make_unique@USalesManagerSession@Session@Domain@@AEBUUserCredentials@Persistence@TechnicalServices@@$0A@@std@@YA?AV?$unique_ptr@USalesManagerSession@Session@Domain@@U?$default_delete@USalesManagerSession@Session@Domain@@@std@@@0@AEBUUserCredentials@Persistence@TechnicalServices@@@Z 0000000140042ae0 f i SessionHandler.obj
 0002:00021c00       ??$make_unique@USalespersonSession@Session@Domain@@AEBUUserCredentials@Persistence@TechnicalServices@@$0A@@std@@YA?AV?$unique_ptr@USalespersonSession@Session@Domain@@U?$default_delete@USalespersonSession@Session@Domain@@@std@@@0@AEBUUserCredentials@Persistence@TechnicalServices@@@Z 0000000140042c00 f i SessionHandler.obj
 0002:00021d20       ??0logic_error@std@@QEAA@AEBV01@@Z 0000000140042d20 f i SessionHandler.obj
 0002:00021da0       ??0logic_error@std@@QEAA@AEBV?$basic_string@DU?$char_traits@D@std@@V?$allocator@D@2@@1@@Z 0000000140042da0 f i SessionHandler.obj
 0002:00021e40       ??1?$unique_ptr@UAssistantSession@Session@Domain@@U?$default_delete@UAssistantSession@Session@Domain@@@std@@@std@@QEAA@XZ 0000000140042e40 f i SessionHandler.obj
 0002:00021ef0       ??1?$unique_ptr@UITAdministratorSession@Session@Domain@@U?$default_delete@UITAdministratorSession@Session@Domain@@@std@@@std@@QEAA@XZ 0000000140042ef0 f i SessionHandler.obj
 0002:00021fa0       ??1?$unique_ptr@USalesManagerSession@Session@Domain@@U?$default_delete@USalesManagerSession@Session@Domain@@@std@@@std@@QEAA@XZ 0000000140042fa0 f i SessionHandler.obj
 0002:00022050       ??1?$unique_ptr@USalespersonSession@Session@Domain@@U?$default_delete@USalespersonSession@Session@Domain@@@std@@@std@@QEAA@XZ 0000000140043050 f i SessionHandler.obj
 0002:00022100       ??1SessionHandler@Session@Domain@@UEAA@XZ 0000000140043100 f   SessionHandler.obj
 0002:00022170       ??1logic_error@std@@UEAA@XZ 0000000140043170 f i SessionHandler.obj
 0002:000221c0       ??A?$vector@V?$basic_string@DU?$char_traits@D@std@@V?$allocator@D@2@@std@@V?$allocator@V?$basic_string@DU?$char_traits@D@std@@V?$allocator@D@2@@std@@@2@@std@@QEAAAEAV?$basic_string@DU?$char_traits@D@std@@V?$allocator@D@2@@1@_K@Z 00000001400431c0 f i SessionHandler.obj
 0002:00022300       ??R?$default_delete@UAssistantSession@Session@Domain@@@std@@QEBAXPEAUAssistantSession@Session@Domain@@@Z 0000000140043300 f i SessionHandler.obj
 0002:000223c0       ??R?$default_delete@UITAdministratorSession@Session@Domain@@@std@@QEBAXPEAUITAdministratorSession@Session@Domain@@@Z 00000001400433c0 f i SessionHandler.obj
 0002:00022480       ??R?$default_delete@USalesManagerSession@Session@Domain@@@std@@QEBAXPEAUSalesManagerSession@Session@Domain@@@Z 0000000140043480 f i SessionHandler.obj
 0002:00022540       ??R?$default_delete@USalespersonSession@Session@Domain@@@std@@QEBAXPEAUSalespersonSession@Session@Domain@@@Z 0000000140043540 f i SessionHandler.obj
 0002:00022600       ??_Elogic_error@std@@UEAAPEAXI@Z 0000000140043600 f i SessionHandler.obj
 0002:00022600       ??_Glogic_error@std@@UEAAPEAXI@Z 0000000140043600 f i SessionHandler.obj
 0002:00022690       ?_Equal@?$basic_string@DU?$char_traits@D@std@@V?$allocator@D@2@@std@@QEBA_NAEBV12@@Z 0000000140043690 f i SessionHandler.obj
 0002:00022780       ?_Get_first@?$_Compressed_pair@U?$default_delete@UAssistantSession@Session@Domain@@@std@@PEAUAssistantSession@Session@Domain@@$00@std@@QEAAAEAU?$default_delete@UAssistantSession@Session@Domain@@@2@XZ 0000000140043780 f i SessionHandler.obj
 0002:000227e0       ?_Get_first@?$_Compressed_pair@U?$default_delete@UITAdministratorSession@Session@Domain@@@std@@PEAUITAdministratorSession@Session@Domain@@$00@std@@QEAAAEAU?$default_delete@UITAdministratorSession@Session@Domain@@@2@XZ 00000001400437e0 f i SessionHandler.obj
 0002:00022840       ?_Get_first@?$_Compressed_pair@U?$default_delete@USalesManagerSession@Session@Domain@@@std@@PEAUSalesManagerSession@Session@Domain@@$00@std@@QEAAAEAU?$default_delete@USalesManagerSession@Session@Domain@@@2@XZ 0000000140043840 f i SessionHandler.obj
 0002:000228a0       ?_Get_first@?$_Compressed_pair@U?$default_delete@USalespersonSession@Session@Domain@@@std@@PEAUSalespersonSession@Session@Domain@@$00@std@@QEAAAEAU?$default_delete@USalespersonSession@Session@Domain@@@2@XZ 00000001400438a0 f i SessionHandler.obj
 0002:00022900       ?createSession@SessionHandler@Session@Domain@@SA?AV?$unique_ptr@VSessionHandler@Session@Domain@@U?$default_delete@VSessionHandler@Session@Domain@@@std@@@std@@AEBUUserCredentials@Persistence@TechnicalServices@@@Z 0000000140043900 f   SessionHandler.obj
 0002:00022e10       ?get_deleter@?$unique_ptr@UAssistantSession@Session@Domain@@U?$default_delete@UAssistantSession@Session@Domain@@@std@@@std@@QEAAAEAU?$default_delete@UAssistantSession@Session@Domain@@@2@XZ 0000000140043e10 f i SessionHandler.obj
 0002:00022e80       ?get_deleter@?$unique_ptr@UITAdministratorSession@Session@Domain@@U?$default_delete@UITAdministratorSession@Session@Domain@@@std@@@std@@QEAAAEAU?$default_delete@UITAdministratorSession@Session@Domain@@@2@XZ 0000000140043e80 f i SessionHandler.obj
 0002:00022ef0       ?get_deleter@?$unique_ptr@USalesManagerSession@Session@Domain@@U?$default_delete@USalesManagerSession@Session@Domain@@@std@@@std@@QEAAAEAU?$default_delete@USalesManagerSession@Session@Domain@@@2@XZ 0000000140043ef0 f i SessionHandler.obj
 0002:00022f60       ?get_deleter@?$unique_ptr@USalespersonSession@Session@Domain@@U?$default_delete@USalespersonSession@Session@Domain@@@std@@@std@@QEAAAEAU?$default_delete@USalespersonSession@Session@Domain@@@2@XZ 0000000140043f60 f i SessionHandler.obj
 0002:00022fd0       ?release@?$unique_ptr@UAssistantSession@Session@Domain@@U?$default_delete@UAssistantSession@Session@Domain@@@std@@@std@@QEAAPEAUAssistantSession@Session@Domain@@XZ 0000000140043fd0 f i SessionHandler.obj
 0002:00023050       ?release@?$unique_ptr@UITAdministratorSession@Session@Domain@@U?$default_delete@UITAdministratorSession@Session@Domain@@@std@@@std@@QEAAPEAUITAdministratorSession@Session@Domain@@XZ 0000000140044050 f i SessionHandler.obj
 0002:000230d0       ?release@?$unique_ptr@USalesManagerSession@Session@Domain@@U?$default_delete@USalesManagerSession@Session@Domain@@@std@@@std@@QEAAPEAUSalesManagerSession@Session@Domain@@XZ 00000001400440d0 f i SessionHandler.obj
 0002:00023150       ?release@?$unique_ptr@USalespersonSession@Session@Domain@@U?$default_delete@USalespersonSession@Session@Domain@@@std@@@std@@QEAAPEAUSalespersonSession@Session@Domain@@XZ 0000000140044150 f i SessionHandler.obj
 0002:000231d0       ??$?0AEAPEAV_Facet_base@std@@@?$_Compressed_pair@U?$default_delete@V_Facet_base@std@@@std@@PEAV_Facet_base@2@$00@std@@QEAA@U_Zero_then_variadic_args_t@1@AEAPEAV_Facet_base@1@@Z 00000001400441d0 f i main.obj
 0002:00023260       ??$?0U?$default_delete@V_Facet_base@std@@@std@@$0A@@?$unique_ptr@V_Facet_base@std@@U?$default_delete@V_Facet_base@std@@@2@@std@@QEAA@PEAV_Facet_base@1@@Z 0000000140044260 f i main.obj
 0002:00023300       ??$?5DU?$char_traits@D@std@@@std@@YAAEAV?$basic_istream@DU?$char_traits@D@std@@@0@AEAV10@AEAD@Z 0000000140044300 f i main.obj
 0002:000234f0       ??$?6U?$char_traits@D@std@@@std@@YAAEAV?$basic_ostream@DU?$char_traits@D@std@@@0@AEAV10@D@Z 00000001400444f0 f i main.obj
 0002:00023a50       ??$exchange@PEAV_Facet_base@std@@PEAV12@@std@@YAPEAV_Facet_base@0@AEAPEAV10@$$QEAPEAV10@@Z 0000000140044a50 f i main.obj
 0002:00023ae0       ??$forward@AEAPEAV_Facet_base@std@@@std@@YAAEAPEAV_Facet_base@0@AEAPEAV10@@Z 0000000140044ae0 f i main.obj
 0002:00023b40       ??$toupper@D@std@@YADDAEBVlocale@0@@Z 0000000140044b40 f i main.obj
 0002:00023bd0       ??$use_facet@V?$ctype@D@std@@@std@@YAAEBV?$ctype@D@0@AEBVlocale@0@@Z 0000000140044bd0 f i main.obj
 0002:00023dc0       ??0_Sentry_base@?$basic_istream@DU?$char_traits@D@std@@@std@@QEAA@AEAV12@@Z 0000000140044dc0 f i main.obj
 0002:00023ea0       ??0locale@std@@QEAA@XZ     0000000140044ea0 f i main.obj
 0002:00023f10       ??0sentry@?$basic_istream@DU?$char_traits@D@std@@@std@@QEAA@AEAV12@_N@Z 0000000140044f10 f i main.obj
 0002:00023fd0       ??1?$unique_ptr@VUserInterfaceHandler@UI@@U?$default_delete@VUserInterfaceHandler@UI@@@std@@@std@@QEAA@XZ 0000000140044fd0 f i main.obj
 0002:00024080       ??1?$unique_ptr@V_Facet_base@std@@U?$default_delete@V_Facet_base@std@@@2@@std@@QEAA@XZ 0000000140045080 f i main.obj
 0002:00024130       ??1_Sentry_base@?$basic_istream@DU?$char_traits@D@std@@@std@@QEAA@XZ 0000000140045130 f i main.obj
 0002:000241f0       ??1locale@std@@QEAA@XZ     00000001400451f0 f i main.obj
 0002:000242e0       ??1sentry@?$basic_istream@DU?$char_traits@D@std@@@std@@QEAA@XZ 00000001400452e0 f i main.obj
 0002:00024330       ??Bsentry@?$basic_istream@DU?$char_traits@D@std@@@std@@QEBA_NXZ 0000000140045330 f i main.obj
 0002:00024390       ??C?$unique_ptr@VUserInterfaceHandler@UI@@U?$default_delete@VUserInterfaceHandler@UI@@@std@@@std@@QEBAPEAVUserInterfaceHandler@UI@@XZ 0000000140045390 f i main.obj
 0002:000243f0       ??R?$default_delete@VUserInterfaceHandler@UI@@@std@@QEBAXPEAVUserInterfaceHandler@UI@@@Z 00000001400453f0 f i main.obj
 0002:000244b0       ??R?$default_delete@V_Facet_base@std@@@std@@QEBAXPEAV_Facet_base@1@@Z 00000001400454b0 f i main.obj
 0002:00024570       ?_Get_first@?$_Compressed_pair@U?$default_delete@VUserInterfaceHandler@UI@@@std@@PEAVUserInterfaceHandler@UI@@$00@std@@QEAAAEAU?$default_delete@VUserInterfaceHandler@UI@@@2@XZ 0000000140045570 f i main.obj
 0002:000245d0       ?_Get_first@?$_Compressed_pair@U?$default_delete@V_Facet_base@std@@@std@@PEAV_Facet_base@2@$00@std@@QEAAAEAU?$default_delete@V_Facet_base@std@@@2@XZ 00000001400455d0 f i main.obj
 0002:00024630       ?_Getfacet@locale@std@@QEBAPEBVfacet@12@_K@Z 0000000140045630 f i main.obj
 0002:00024750       ?_Throw_bad_cast@std@@YAXXZ 0000000140045750 f i main.obj
 0002:000247c0       ?__autoclassinit2@?$unique_ptr@VUserInterfaceHandler@UI@@U?$default_delete@VUserInterfaceHandler@UI@@@std@@@std@@QEAAX_K@Z 00000001400457c0 f i main.obj
 0002:00024820       ?__autoclassinit2@?$unique_ptr@V_Facet_base@std@@U?$default_delete@V_Facet_base@std@@@2@@std@@QEAAX_K@Z 0000000140045820 f i main.obj
 0002:00024880       ?name@type_info@@QEBAPEBDXZ 0000000140045880 f i main.obj
 0002:00024900       ?release@?$unique_ptr@V_Facet_base@std@@U?$default_delete@V_Facet_base@std@@@2@@std@@QEAAPEAV_Facet_base@2@XZ 0000000140045900 f i main.obj
 0002:00024980       ?to_char_type@?$_Narrow_char_traits@DH@std@@SADAEBH@Z 0000000140045980 f i main.obj
 0002:000249e0       main                       00000001400459e0 f   main.obj
 0002:00024bf0       ??$?0AEAPEAVSimpleLogger@Logging@TechnicalServices@@@?$_Compressed_pair@U?$default_delete@VSimpleLogger@Logging@TechnicalServices@@@std@@PEAVSimpleLogger@Logging@TechnicalServices@@$00@std@@QEAA@U_Zero_then_variadic_args_t@1@AEAPEAVSimpleLogger@Logging@TechnicalServices@@@Z 0000000140045bf0 f i LoggerHandler.obj
 0002:00024c80       ??$?0U?$default_delete@VSimpleLogger@Logging@TechnicalServices@@@std@@$0A@@?$unique_ptr@VSimpleLogger@Logging@TechnicalServices@@U?$default_delete@VSimpleLogger@Logging@TechnicalServices@@@std@@@std@@QEAA@PEAVSimpleLogger@Logging@TechnicalServices@@@Z 0000000140045c80 f i LoggerHandler.obj
 0002:00024d20       ??$?0U?$default_delete@VSimpleLogger@Logging@TechnicalServices@@@std@@PEAVSimpleLogger@Logging@TechnicalServices@@@?$_Compressed_pair@U?$default_delete@VLoggerHandler@Logging@TechnicalServices@@@std@@PEAVLoggerHandler@Logging@TechnicalServices@@$00@std@@QEAA@U_One_then_variadic_args_t@1@$$QEAU?$default_delete@VSimpleLogger@Logging@TechnicalServices@@@1@$$QEAPEAVSimpleLogger@Logging@TechnicalServices@@@Z 0000000140045d20 f i LoggerHandler.obj
 0002:00024dd0       ??$?0VSimpleLogger@Logging@TechnicalServices@@$0A@@?$default_delete@VLoggerHandler@Logging@TechnicalServices@@@std@@QEAA@AEBU?$default_delete@VSimpleLogger@Logging@TechnicalServices@@@1@@Z 0000000140045dd0 f i LoggerHandler.obj
 0002:00024e30       ??$?0VSimpleLogger@Logging@TechnicalServices@@U?$default_delete@VSimpleLogger@Logging@TechnicalServices@@@std@@$0A@@?$unique_ptr@VLoggerHandler@Logging@TechnicalServices@@U?$default_delete@VLoggerHandler@Logging@TechnicalServices@@@std@@@std@@QEAA@$$QEAV?$unique_ptr@VSimpleLogger@Logging@TechnicalServices@@U?$default_delete@VSimpleLogger@Logging@TechnicalServices@@@std@@@1@@Z 0000000140045e30 f i LoggerHandler.obj
 0002:00024f20       ??$?0_J$0A@@?$duration@_JU?$ratio@$00$0JIJGIA@@std@@@chrono@std@@QEAA@AEB_J@Z 0000000140045f20 f i LoggerHandler.obj
 0002:00024fa0       ??$?6DU?$char_traits@D@std@@D@std@@YAAEAV?$basic_ostream@DU?$char_traits@D@std@@@0@AEAV10@AEBU?$_Timeobj@DPEBUtm@@@0@@Z 0000000140045fa0 f i LoggerHandler.obj
 0002:000253b0       ??$exchange@PEAVSimpleLogger@Logging@TechnicalServices@@PEAV123@@std@@YAPEAVSimpleLogger@Logging@TechnicalServices@@AEAPEAV123@$$QEAPEAV123@@Z 00000001400463b0 f i LoggerHandler.obj
 0002:00025440       ??$forward@AEAPEAVSimpleLogger@Logging@TechnicalServices@@@std@@YAAEAPEAVSimpleLogger@Logging@TechnicalServices@@AEAPEAV123@@Z 0000000140046440 f i LoggerHandler.obj
 0002:000254a0       ??$forward@AEAV?$basic_ostream@DU?$char_traits@D@std@@@std@@@std@@YAAEAV?$basic_ostream@DU?$char_traits@D@std@@@0@AEAV10@@Z 00000001400464a0 f i LoggerHandler.obj
 0002:00025500       ??$forward@PEAVSimpleLogger@Logging@TechnicalServices@@@std@@YA$$QEAPEAVSimpleLogger@Logging@TechnicalServices@@AEAPEAV123@@Z 0000000140046500 f i LoggerHandler.obj
 0002:00025560       ??$forward@U?$default_delete@VSimpleLogger@Logging@TechnicalServices@@@std@@@std@@YA$$QEAU?$default_delete@VSimpleLogger@Logging@TechnicalServices@@@0@AEAU10@@Z 0000000140046560 f i LoggerHandler.obj
 0002:000255c0       ??$make_unique@VSimpleLogger@Logging@TechnicalServices@@AEAV?$basic_ostream@DU?$char_traits@D@std@@@std@@$0A@@std@@YA?AV?$unique_ptr@VSimpleLogger@Logging@TechnicalServices@@U?$default_delete@VSimpleLogger@Logging@TechnicalServices@@@std@@@0@AEAV?$basic_ostream@DU?$char_traits@D@std@@@0@@Z 00000001400465c0 f i LoggerHandler.obj
 0002:000256e0       ??$put_time@D@std@@YA?AU?$_Timeobj@DPEBUtm@@@0@PEBUtm@@PEBD@Z 00000001400466e0 f i LoggerHandler.obj
 0002:00025770       ??$use_facet@V?$time_put@DV?$ostreambuf_iterator@DU?$char_traits@D@std@@@std@@@std@@@std@@YAAEBV?$time_put@DV?$ostreambuf_iterator@DU?$char_traits@D@std@@@std@@@0@AEBVlocale@0@@Z 0000000140046770 f i LoggerHandler.obj
 0002:00025960       ??0?$_Timeobj@DPEBUtm@@@std@@QEAA@PEBUtm@@PEBD@Z 0000000140046960 f i LoggerHandler.obj
 0002:00025a50       ??0?$ostreambuf_iterator@DU?$char_traits@D@std@@@std@@QEAA@PEAV?$basic_streambuf@DU?$char_traits@D@std@@@1@@Z 0000000140046a50 f i LoggerHandler.obj
 0002:00025ae0       ??0?$time_point@Usystem_clock@chrono@std@@V?$duration@_JU?$ratio@$00$0JIJGIA@@std@@@23@@chrono@std@@QEAA@AEBV?$duration@_JU?$ratio@$00$0JIJGIA@@std@@@12@@Z 0000000140046ae0 f i LoggerHandler.obj
 0002:00025b60       ??0BadLoggerRequest@LoggerHandler@Logging@TechnicalServices@@QEAA@AEBU0123@@Z 0000000140046b60 f i LoggerHandler.obj
 0002:00025be0       ??0BadLoggerRequest@LoggerHandler@Logging@TechnicalServices@@QEAA@AEBV?$basic_string@DU?$char_traits@D@std@@V?$allocator@D@2@@std@@@Z 0000000140046be0 f i LoggerHandler.obj
 0002:00025c60       ??0LoggerException@LoggerHandler@Logging@TechnicalServices@@QEAA@AEBU0123@@Z 0000000140046c60 f i LoggerHandler.obj
 0002:00025ce0       ??0LoggerException@LoggerHandler@Logging@TechnicalServices@@QEAA@AEBV?$basic_string@DU?$char_traits@D@std@@V?$allocator@D@2@@std@@@Z 0000000140046ce0 f i LoggerHandler.obj
 0002:00025d60       ??0LoggerHandler@Logging@TechnicalServices@@QEAA@XZ 0000000140046d60 f i LoggerHandler.obj
 0002:00025dc0       ??0SimpleLogger@Logging@TechnicalServices@@QEAA@AEAV?$basic_ostream@DU?$char_traits@D@std@@@std@@@Z 0000000140046dc0 f i LoggerHandler.obj
 0002:00025ef0       ??1?$unique_ptr@VSimpleLogger@Logging@TechnicalServices@@U?$default_delete@VSimpleLogger@Logging@TechnicalServices@@@std@@@std@@QEAA@XZ 0000000140046ef0 f i LoggerHandler.obj
 0002:00025fa0       ??1BadLoggerRequest@LoggerHandler@Logging@TechnicalServices@@UEAA@XZ 0000000140046fa0 f i LoggerHandler.obj
 0002:00025ff0       ??1LoggerException@LoggerHandler@Logging@TechnicalServices@@UEAA@XZ 0000000140046ff0 f i LoggerHandler.obj
 0002:00026040       ??1LoggerHandler@Logging@TechnicalServices@@UEAA@XZ 0000000140047040 f i LoggerHandler.obj
 0002:000260b0       ??1SimpleLogger@Logging@TechnicalServices@@UEAA@XZ 00000001400470b0 f i LoggerHandler.obj
 0002:00026180       ??6SimpleLogger@Logging@TechnicalServices@@UEAAAEAV012@AEBV?$basic_string@DU?$char_traits@D@std@@V?$allocator@D@2@@std@@@Z 0000000140047180 f i LoggerHandler.obj
 0002:000262e0       ??R?$default_delete@VSimpleLogger@Logging@TechnicalServices@@@std@@QEBAXPEAVSimpleLogger@Logging@TechnicalServices@@@Z 00000001400472e0 f i LoggerHandler.obj
 0002:000263a0       ??_EBadLoggerRequest@LoggerHandler@Logging@TechnicalServices@@UEAAPEAXI@Z 00000001400473a0 f i LoggerHandler.obj
 0002:000263a0       ??_GBadLoggerRequest@LoggerHandler@Logging@TechnicalServices@@UEAAPEAXI@Z 00000001400473a0 f i LoggerHandler.obj
 0002:00026430       ??_GLoggerException@LoggerHandler@Logging@TechnicalServices@@UEAAPEAXI@Z 0000000140047430 f i LoggerHandler.obj
 0002:00026430       ??_ELoggerException@LoggerHandler@Logging@TechnicalServices@@UEAAPEAXI@Z 0000000140047430 f i LoggerHandler.obj
 0002:000264c0       ??_GSimpleLogger@Logging@TechnicalServices@@UEAAPEAXI@Z 00000001400474c0 f i LoggerHandler.obj
 0002:000264c0       ??_ESimpleLogger@Logging@TechnicalServices@@UEAAPEAXI@Z 00000001400474c0 f i LoggerHandler.obj
 0002:00026550       ?_Get_first@?$_Compressed_pair@U?$default_delete@VSimpleLogger@Logging@TechnicalServices@@@std@@PEAVSimpleLogger@Logging@TechnicalServices@@$00@std@@QEAAAEAU?$default_delete@VSimpleLogger@Logging@TechnicalServices@@@2@XZ 0000000140047550 f i LoggerHandler.obj
 0002:000265b0       ?count@?$duration@_JU?$ratio@$00$0JIJGIA@@std@@@chrono@std@@QEBA_JXZ 00000001400475b0 f i LoggerHandler.obj
 0002:00026610       ?create@LoggerHandler@Logging@TechnicalServices@@SA?AV?$unique_ptr@VLoggerHandler@Logging@TechnicalServices@@U?$default_delete@VLoggerHandler@Logging@TechnicalServices@@@std@@@std@@AEAV?$basic_ostream@DU?$char_traits@D@std@@@5@@Z 0000000140047610 f   LoggerHandler.obj
 0002:000268d0       ?failed@?$ostreambuf_iterator@DU?$char_traits@D@std@@@std@@QEBA_NXZ 00000001400478d0 f i LoggerHandler.obj
 0002:00026930       ?get_deleter@?$unique_ptr@VSimpleLogger@Logging@TechnicalServices@@U?$default_delete@VSimpleLogger@Logging@TechnicalServices@@@std@@@std@@QEAAAEAU?$default_delete@VSimpleLogger@Logging@TechnicalServices@@@2@XZ 0000000140047930 f i LoggerHandler.obj
 0002:000269a0       ?now@system_clock@chrono@std@@SA?AV?$time_point@Usystem_clock@chrono@std@@V?$duration@_JU?$ratio@$00$0JIJGIA@@std@@@23@@23@XZ 00000001400479a0 f i LoggerHandler.obj
 0002:00026a40       ?release@?$unique_ptr@VSimpleLogger@Logging@TechnicalServices@@U?$default_delete@VSimpleLogger@Logging@TechnicalServices@@@std@@@std@@QEAAPEAVSimpleLogger@Logging@TechnicalServices@@XZ 0000000140047a40 f i LoggerHandler.obj
 0002:00026ac0       ?time_since_epoch@?$time_point@Usystem_clock@chrono@std@@V?$duration@_JU?$ratio@$00$0JIJGIA@@std@@@23@@chrono@std@@QEBA?AV?$duration@_JU?$ratio@$00$0JIJGIA@@std@@@23@XZ 0000000140047ac0 f i LoggerHandler.obj
 0002:00026b40       ?to_time_t@system_clock@chrono@std@@SA_JAEBV?$time_point@Usystem_clock@chrono@std@@V?$duration@_JU?$ratio@$00$0JIJGIA@@std@@@23@@23@@Z 0000000140047b40 f i LoggerHandler.obj
 0002:00026bc0       ?unitbuf@std@@YAAEAVios_base@1@AEAV21@@Z 0000000140047bc0 f i LoggerHandler.obj
 0002:00026c90       ??1PersistenceHandler@Persistence@TechnicalServices@@UEAA@XZ 0000000140047c90 f   PersistenceHandler.obj
 0002:00026d00       ?__autoclassinit2@SimpleDB@Persistence@TechnicalServices@@QEAAX_K@Z 0000000140047d00 f i PersistenceHandler.obj
 0002:00026d60       ?instance@PersistenceHandler@Persistence@TechnicalServices@@SAAEAV123@XZ 0000000140047d60 f   PersistenceHandler.obj
 0002:00026e40       ??$?0$$V@?$_Compressed_pair@V?$allocator@U?$_Tree_node@U?$pair@$$CBV?$basic_string@DU?$char_traits@D@std@@V?$allocator@D@2@@std@@V12@@std@@PEAX@std@@@std@@V?$_Tree_val@U?$_Tree_simple_types@U?$pair@$$CBV?$basic_string@DU?$char_traits@D@std@@V?$allocator@D@2@@std@@V12@@std@@@std@@@2@$00@std@@QEAA@U_Zero_then_variadic_args_t@1@@Z 0000000140047e40 f i SimpleDB.obj
 0002:00026ec0       ??$?0AEAPEAU?$_Tree_node@U?$pair@$$CBV?$basic_string@DU?$char_traits@D@std@@V?$allocator@D@2@@std@@V12@@std@@PEAX@std@@AEAPEAU01@$0A@@?$pair@PEAU?$_Tree_node@U?$pair@$$CBV?$basic_string@DU?$char_traits@D@std@@V?$allocator@D@2@@std@@V12@@std@@PEAX@std@@PEAU12@@std@@QEAA@AEAPEAU?$_Tree_node@U?$pair@$$CBV?$basic_string@DU?$char_traits@D@std@@V?$allocator@D@2@@std@@V12@@std@@PEAX@1@0@Z 0000000140047ec0 f i SimpleDB.obj
 0002:00026f70       ??$?0AEAY0BB@$$CBDAEAY0O@$$CBD$0A@@?$pair@$$CBV?$basic_string@DU?$char_traits@D@std@@V?$allocator@D@2@@std@@V12@@std@@QEAA@AEAY0BB@$$CBDAEAY0O@$$CBD@Z 0000000140047f70 f i SimpleDB.obj
 0002:00027050       ??$?0AEAY0N@$$CBDAEAY09$$CBD$0A@@?$pair@$$CBV?$basic_string@DU?$char_traits@D@std@@V?$allocator@D@2@@std@@V12@@std@@QEAA@AEAY0N@$$CBDAEAY09$$CBD@Z 0000000140048050 f i SimpleDB.obj
 0002:00027130       ??$?0AEBQEAU?$_Tree_node@U?$pair@$$CBV?$basic_string@DU?$char_traits@D@std@@V?$allocator@D@2@@std@@V12@@std@@PEAX@std@@_N$0A@@?$pair@PEAU?$_Tree_node@U?$pair@$$CBV?$basic_string@DU?$char_traits@D@std@@V?$allocator@D@2@@std@@V12@@std@@PEAX@std@@_N@std@@QEAA@AEBQEAU?$_Tree_node@U?$pair@$$CBV?$basic_string@DU?$char_traits@D@std@@V?$allocator@D@2@@std@@V12@@std@@PEAX@1@$$QEA_N@Z 0000000140048130 f i SimpleDB.obj
 0002:000271e0       ??$?0AEBU?$less@V?$basic_string@DU?$char_traits@D@std@@V?$allocator@D@2@@std@@@std@@U_Zero_then_variadic_args_t@1@@?$_Compressed_pair@U?$less@V?$basic_string@DU?$char_traits@D@std@@V?$allocator@D@2@@std@@@std@@V?$_Compressed_pair@V?$allocator@U?$_Tree_node@U?$pair@$$CBV?$basic_string@DU?$char_traits@D@std@@V?$allocator@D@2@@std@@V12@@std@@PEAX@std@@@std@@V?$_Tree_val@U?$_Tree_simple_types@U?$pair@$$CBV?$basic_string@DU?$char_traits@D@std@@V?$allocator@D@2@@std@@V12@@std@@@std@@@2@$00@2@$00@std@@QEAA@U_One_then_variadic_args_t@1@AEBU?$less@V?$basic_string@DU?$char_traits@D@std@@V?$allocator@D@2@@std@@@1@$$QEAU_Zero_then_variadic_args_t@1@@Z 00000001400481e0 f i SimpleDB.obj
 0002:00027290       ??$?0AEBU?$pair@$$CBV?$basic_string@DU?$char_traits@D@std@@V?$allocator@D@2@@std@@V12@@std@@@?$_Tree_temp_node@V?$allocator@U?$_Tree_node@U?$pair@$$CBV?$basic_string@DU?$char_traits@D@std@@V?$allocator@D@2@@std@@V12@@std@@PEAX@std@@@std@@@std@@QEAA@AEAV?$allocator@U?$_Tree_node@U?$pair@$$CBV?$basic_string@DU?$char_traits@D@std@@V?$allocator@D@2@@std@@V12@@std@@PEAX@std@@@1@PEAU?$_Tree_node@U?$pair@$$CBV?$basic_string@DU?$char_traits@D@std@@V?$allocator@D@2@@std@@V12@@std@@PEAX@1@AEBU?$pair@$$CBV?$basic_string@DU?$char_traits@D@std@@V?$allocator@D@2@@std@@V12@@1@@Z 0000000140048290 f i SimpleDB.obj
 0002:00027420       ??$?0AEBUpiecewise_construct_t@std@@V?$tuple@AEBV?$basic_string@DU?$char_traits@D@std@@V?$allocator@D@2@@std@@@1@V?$tuple@$$V@1@@?$_Tree_temp_node@V?$allocator@U?$_Tree_node@U?$pair@$$CBV?$basic_string@DU?$char_traits@D@std@@V?$allocator@D@2@@std@@V12@@std@@PEAX@std@@@std@@@std@@QEAA@AEAV?$allocator@U?$_Tree_node@U?$pair@$$CBV?$basic_string@DU?$char_traits@D@std@@V?$allocator@D@2@@std@@V12@@std@@PEAX@std@@@1@PEAU?$_Tree_node@U?$pair@$$CBV?$basic_string@DU?$char_traits@D@std@@V?$allocator@D@2@@std@@V12@@std@@PEAX@1@AEBUpiecewise_construct_t@1@$$QEAV?$tuple@AEBV?$basic_string@DU?$char_traits@D@std@@V?$allocator@D@2@@std@@@1@$$QEAV?$tuple@$$V@1@@Z 0000000140048420 f i SimpleDB.obj
 0002:000275f0       ??$?0AEBV?$allocator@UClient@Persistence@TechnicalServices@@@std@@$$V@?$_Compressed_pair@V?$allocator@UClient@Persistence@TechnicalServices@@@std@@V?$_Vector_val@U?$_Simple_types@UClient@Persistence@TechnicalServices@@@std@@@2@$00@std@@QEAA@U_One_then_variadic_args_t@1@AEBV?$allocator@UClient@Persistence@TechnicalServices@@@1@@Z 00000001400485f0 f i SimpleDB.obj
 0002:00027680       ??$?0AEBV?$allocator@UUserCredentials@Persistence@TechnicalServices@@@std@@$$V@?$_Compressed_pair@V?$allocator@UUserCredentials@Persistence@TechnicalServices@@@std@@V?$_Vector_val@U?$_Simple_types@UUserCredentials@Persistence@TechnicalServices@@@std@@@2@$00@std@@QEAA@U_One_then_variadic_args_t@1@AEBV?$allocator@UUserCredentials@Persistence@TechnicalServices@@@1@@Z 0000000140048680 f i SimpleDB.obj
 0002:00027710       ??$?0AEBV?$allocator@V?$basic_string@DU?$char_traits@D@std@@V?$allocator@D@2@@std@@@std@@$$V@?$_Compressed_pair@V?$allocator@V?$basic_string@DU?$char_traits@D@std@@V?$allocator@D@2@@std@@@std@@V?$_Vector_val@U?$_Simple_types@V?$basic_string@DU?$char_traits@D@std@@V?$allocator@D@2@@std@@@std@@@2@$00@std@@QEAA@U_One_then_variadic_args_t@1@AEBV?$allocator@V?$basic_string@DU?$char_traits@D@std@@V?$allocator@D@2@@std@@@1@@Z 0000000140048710 f i SimpleDB.obj
 0002:000277a0       ??$?0AEBV?$basic_string@DU?$char_traits@D@std@@V?$allocator@D@2@@std@@$$Z$$V@?$pair@$$CBV?$basic_string@DU?$char_traits@D@std@@V?$allocator@D@2@@std@@V12@@std@@QEAA@Upiecewise_construct_t@1@V?$tuple@AEBV?$basic_string@DU?$char_traits@D@std@@V?$allocator@D@2@@std@@@1@V?$tuple@$$V@1@@Z 00000001400487a0 f i SimpleDB.obj
 0002:00027880       ??$?0AEBV?$basic_string@DU?$char_traits@D@std@@V?$allocator@D@2@@std@@$0A@@?$tuple@AEBV?$basic_string@DU?$char_traits@D@std@@V?$allocator@D@2@@std@@@std@@QEAA@AEBV?$basic_string@DU?$char_traits@D@std@@V?$allocator@D@2@@1@@Z 0000000140048880 f i SimpleDB.obj
 0002:00027900       ??$?0AEBV?$basic_string@DU?$char_traits@D@std@@V?$allocator@D@2@@std@@@?$_Tuple_val@AEBV?$basic_string@DU?$char_traits@D@std@@V?$allocator@D@2@@std@@@std@@QEAA@AEBV?$basic_string@DU?$char_traits@D@std@@V?$allocator@D@2@@1@@Z 0000000140048900 f i SimpleDB.obj
 0002:00027980       ??$?0PEAU?$_Tree_node@U?$pair@$$CBV?$basic_string@DU?$char_traits@D@std@@V?$allocator@D@2@@std@@V12@@std@@PEAX@std@@_N$0A@@?$pair@PEAU?$_Tree_node@U?$pair@$$CBV?$basic_string@DU?$char_traits@D@std@@V?$allocator@D@2@@std@@V12@@std@@PEAX@std@@_N@std@@QEAA@$$QEAPEAU?$_Tree_node@U?$pair@$$CBV?$basic_string@DU?$char_traits@D@std@@V?$allocator@D@2@@std@@V12@@std@@PEAX@1@$$QEA_N@Z 0000000140048980 f i SimpleDB.obj
 0002:00027a30       ??$?0U?$_Tree_node@U?$pair@$$CBV?$basic_string@DU?$char_traits@D@std@@V?$allocator@D@2@@std@@V12@@std@@PEAX@std@@@?$allocator@U_Container_proxy@std@@@std@@QEAA@AEBV?$allocator@U?$_Tree_node@U?$pair@$$CBV?$basic_string@DU?$char_traits@D@std@@V?$allocator@D@2@@std@@V12@@std@@PEAX@std@@@1@@Z 0000000140048a30 f i SimpleDB.obj
 0002:00027a90       ??$?0UUserCredentials@Persistence@TechnicalServices@@@?$allocator@U_Container_proxy@std@@@std@@QEAA@AEBV?$allocator@UUserCredentials@Persistence@TechnicalServices@@@1@@Z 0000000140048a90 f i SimpleDB.obj
 0002:00027af0       ??$?0U_Exact_args_t@std@@$0A@@?$tuple@$$V@std@@QEAA@U_Exact_args_t@1@@Z 0000000140048af0 f i SimpleDB.obj
 0002:00027b50       ??$?0U_Exact_args_t@std@@AEBV?$basic_string@DU?$char_traits@D@std@@V?$allocator@D@2@@1@$$V$0A@@?$tuple@AEBV?$basic_string@DU?$char_traits@D@std@@V?$allocator@D@2@@std@@@std@@QEAA@U_Exact_args_t@1@AEBV?$basic_string@DU?$char_traits@D@std@@V?$allocator@D@2@@1@@Z 0000000140048b50 f i SimpleDB.obj
 0002:00027c00       ??$?0V?$tuple@AEBV?$basic_string@DU?$char_traits@D@std@@V?$allocator@D@2@@std@@@std@@V?$tuple@$$V@1@$0A@$$Z$S@?$pair@$$CBV?$basic_string@DU?$char_traits@D@std@@V?$allocator@D@2@@std@@V12@@std@@QEAA@AEAV?$tuple@AEBV?$basic_string@DU?$char_traits@D@std@@V?$allocator@D@2@@std@@@1@AEAV?$tuple@$$V@1@U?$integer_sequence@_K$0A@@1@U?$integer_sequence@_K$S@1@@Z 0000000140048c00 f i SimpleDB.obj
 0002:00027cc0       ??$?5DU?$char_traits@D@std@@V?$allocator@D@1@@std@@YAAEAV?$basic_istream@DU?$char_traits@D@std@@@0@$$QEAV10@AEAV?$basic_string@DU?$char_traits@D@std@@V?$allocator@D@2@@0@@Z 0000000140048cc0 f i SimpleDB.obj
 0002:00028170       ??$?5DU?$char_traits@D@std@@V?$allocator@D@1@@std@@YAAEAV?$basic_istream@DU?$char_traits@D@std@@@0@AEAV10@AEAV?$basic_string@DU?$char_traits@D@std@@V?$allocator@D@2@@0@@Z 0000000140049170 f i SimpleDB.obj
 0002:000281f0       ??$?5DU?$char_traits@D@std@@V?$allocator@D@1@@std@@YAAEAV?$basic_istream@DU?$char_traits@D@std@@@0@AEAV10@AEBU?$_Quote_in@DU?$char_traits@D@std@@V?$allocator@D@2@@0@@Z 00000001400491f0 f i SimpleDB.obj
 0002:000285f0       ??$_Adl_verify_range@PEBU?$pair@$$CBV?$basic_string@DU?$char_traits@D@std@@V?$allocator@D@2@@std@@V12@@std@@PEBU12@@std@@YAXAEBQEBU?$pair@$$CBV?$basic_string@DU?$char_traits@D@std@@V?$allocator@D@2@@std@@V12@@0@0@Z 00000001400495f0 f i SimpleDB.obj
 0002:00028670       ??$_Adl_verify_range@V?$_Tree_unchecked_const_iterator@V?$_Tree_val@U?$_Tree_simple_types@U?$pair@$$CBV?$basic_string@DU?$char_traits@D@std@@V?$allocator@D@2@@std@@V12@@std@@@std@@@std@@U_Iterator_base0@2@@std@@V12@@std@@YAXAEBV?$_Tree_unchecked_const_iterator@V?$_Tree_val@U?$_Tree_simple_types@U?$pair@$$CBV?$basic_string@DU?$char_traits@D@std@@V?$allocator@D@2@@std@@V12@@std@@@std@@@std@@U_Iterator_base0@2@@0@0@Z 0000000140049670 f i SimpleDB.obj
 0002:000286d0       ??$_Buyheadnode@V?$allocator@U?$_Tree_node@U?$pair@$$CBV?$basic_string@DU?$char_traits@D@std@@V?$allocator@D@2@@std@@V12@@std@@PEAX@std@@@std@@@?$_Tree_node@U?$pair@$$CBV?$basic_string@DU?$char_traits@D@std@@V?$allocator@D@2@@std@@V12@@std@@PEAX@std@@SAPEAU01@AEAV?$allocator@U?$_Tree_node@U?$pair@$$CBV?$basic_string@DU?$char_traits@D@std@@V?$allocator@D@2@@std@@V12@@std@@PEAX@std@@@1@@Z 00000001400496d0 f i SimpleDB.obj
 0002:000287e0       ??$_Construct_in_place@PEAU?$_Tree_node@U?$pair@$$CBV?$basic_string@DU?$char_traits@D@std@@V?$allocator@D@2@@std@@V12@@std@@PEAX@std@@AEAPEAU12@@std@@YAXAEAPEAU?$_Tree_node@U?$pair@$$CBV?$basic_string@DU?$char_traits@D@std@@V?$allocator@D@2@@std@@V12@@std@@PEAX@0@0@Z 00000001400497e0 f i SimpleDB.obj
 0002:00028880       ??$_Construct_in_place@PEAU?$_Tree_node@U?$pair@$$CBV?$basic_string@DU?$char_traits@D@std@@V?$allocator@D@2@@std@@V12@@std@@PEAX@std@@AEBQEAU12@@std@@YAXAEAPEAU?$_Tree_node@U?$pair@$$CBV?$basic_string@DU?$char_traits@D@std@@V?$allocator@D@2@@std@@V12@@std@@PEAX@0@AEBQEAU10@@Z 0000000140049880 f i SimpleDB.obj
 0002:00028920       ??$_Destroy_in_place@PEAU?$_Tree_node@U?$pair@$$CBV?$basic_string@DU?$char_traits@D@std@@V?$allocator@D@2@@std@@V12@@std@@PEAX@std@@@std@@YAXAEAPEAU?$_Tree_node@U?$pair@$$CBV?$basic_string@DU?$char_traits@D@std@@V?$allocator@D@2@@std@@V12@@std@@PEAX@0@@Z 0000000140049920 f i SimpleDB.obj
 0002:00028980       ??$_Destroy_range@V?$allocator@UUserCredentials@Persistence@TechnicalServices@@@std@@@std@@YAXPEAUUserCredentials@Persistence@TechnicalServices@@QEAU123@AEAV?$allocator@UUserCredentials@Persistence@TechnicalServices@@@0@@Z 0000000140049980 f i SimpleDB.obj
 0002:00028a30       ??$_Emplace_back@AEBUClient@Persistence@TechnicalServices@@@?$_Uninitialized_backout_al@V?$allocator@UClient@Persistence@TechnicalServices@@@std@@@std@@QEAAXAEBUClient@Persistence@TechnicalServices@@@Z 0000000140049a30 f i SimpleDB.obj
 0002:00028b20       ??$_Emplace_back@AEBUUserCredentials@Persistence@TechnicalServices@@@?$_Uninitialized_backout_al@V?$allocator@UUserCredentials@Persistence@TechnicalServices@@@std@@@std@@QEAAXAEBUUserCredentials@Persistence@TechnicalServices@@@Z 0000000140049b20 f i SimpleDB.obj
 0002:00028c10       ??$_Emplace_back@AEBV?$basic_string@DU?$char_traits@D@std@@V?$allocator@D@2@@std@@@?$_Uninitialized_backout_al@V?$allocator@V?$basic_string@DU?$char_traits@D@std@@V?$allocator@D@2@@std@@@std@@@std@@QEAAXAEBV?$basic_string@DU?$char_traits@D@std@@V?$allocator@D@2@@1@@Z 0000000140049c10 f i SimpleDB.obj
 0002:00028d00       ??$_Emplace_hint@AEBU?$pair@$$CBV?$basic_string@DU?$char_traits@D@std@@V?$allocator@D@2@@std@@V12@@std@@@?$_Tree@V?$_Tmap_traits@V?$basic_string@DU?$char_traits@D@std@@V?$allocator@D@2@@std@@V12@U?$less@V?$basic_string@DU?$char_traits@D@std@@V?$allocator@D@2@@std@@@2@V?$allocator@U?$pair@$$CBV?$basic_string@DU?$char_traits@D@std@@V?$allocator@D@2@@std@@V12@@std@@@2@$0A@@std@@@std@@IEAAPEAU?$_Tree_node@U?$pair@$$CBV?$basic_string@DU?$char_traits@D@std@@V?$allocator@D@2@@std@@V12@@std@@PEAX@1@QEAU21@AEBU?$pair@$$CBV?$basic_string@DU?$char_traits@D@std@@V?$allocator@D@2@@std@@V12@@1@@Z 0000000140049d00 f i SimpleDB.obj
 0002:00028f00       ??$_Eqrange@V?$basic_string@DU?$char_traits@D@std@@V?$allocator@D@2@@std@@@?$_Tree@V?$_Tmap_traits@V?$basic_string@DU?$char_traits@D@std@@V?$allocator@D@2@@std@@V12@U?$less@V?$basic_string@DU?$char_traits@D@std@@V?$allocator@D@2@@std@@@2@V?$allocator@U?$pair@$$CBV?$basic_string@DU?$char_traits@D@std@@V?$allocator@D@2@@std@@V12@@std@@@2@$0A@@std@@@std@@IEBA?AU?$pair@PEAU?$_Tree_node@U?$pair@$$CBV?$basic_string@DU?$char_traits@D@std@@V?$allocator@D@2@@std@@V12@@std@@PEAX@std@@PEAU12@@1@AEBV?$basic_string@DU?$char_traits@D@std@@V?$allocator@D@2@@1@@Z 0000000140049f00 f i SimpleDB.obj
 0002:000291e0       ??$_Erase_head@V?$allocator@U?$_Tree_node@U?$pair@$$CBV?$basic_string@DU?$char_traits@D@std@@V?$allocator@D@2@@std@@V12@@std@@PEAX@std@@@std@@@?$_Tree_val@U?$_Tree_simple_types@U?$pair@$$CBV?$basic_string@DU?$char_traits@D@std@@V?$allocator@D@2@@std@@V12@@std@@@std@@@std@@QEAAXAEAV?$allocator@U?$_Tree_node@U?$pair@$$CBV?$basic_string@DU?$char_traits@D@std@@V?$allocator@D@2@@std@@V12@@std@@PEAX@std@@@1@@Z 000000014004a1e0 f i SimpleDB.obj
 0002:00029290       ??$_Erase_tree@V?$allocator@U?$_Tree_node@U?$pair@$$CBV?$basic_string@DU?$char_traits@D@std@@V?$allocator@D@2@@std@@V12@@std@@PEAX@std@@@std@@@?$_Tree_val@U?$_Tree_simple_types@U?$pair@$$CBV?$basic_string@DU?$char_traits@D@std@@V?$allocator@D@2@@std@@V12@@std@@@std@@@std@@QEAAXAEAV?$allocator@U?$_Tree_node@U?$pair@$$CBV?$basic_string@DU?$char_traits@D@std@@V?$allocator@D@2@@std@@V12@@std@@PEAX@std@@@1@PEAU?$_Tree_node@U?$pair@$$CBV?$basic_string@DU?$char_traits@D@std@@V?$allocator@D@2@@std@@V12@@std@@PEAX@1@@Z 000000014004a290 f i SimpleDB.obj
 0002:00029360       ??$_Fgetc@D@std@@YA_NAEADPEAU_iobuf@@@Z 000000014004a360 f i SimpleDB.obj
 0002:000293f0       ??$_Find@V?$basic_string@DU?$char_traits@D@std@@V?$allocator@D@2@@std@@@?$_Tree@V?$_Tmap_traits@V?$basic_string@DU?$char_traits@D@std@@V?$allocator@D@2@@std@@V12@U?$less@V?$basic_string@DU?$char_traits@D@std@@V?$allocator@D@2@@std@@@2@V?$allocator@U?$pair@$$CBV?$basic_string@DU?$char_traits@D@std@@V?$allocator@D@2@@std@@V12@@std@@@2@$0A@@std@@@std@@AEBAPEAU?$_Tree_node@U?$pair@$$CBV?$basic_string@DU?$char_traits@D@std@@V?$allocator@D@2@@std@@V12@@std@@PEAX@1@AEBV?$basic_string@DU?$char_traits@D@std@@V?$allocator@D@2@@1@@Z 000000014004a3f0 f i SimpleDB.obj
 0002:000294f0       ??$_Find_hint@V?$basic_string@DU?$char_traits@D@std@@V?$allocator@D@2@@std@@@?$_Tree@V?$_Tmap_traits@V?$basic_string@DU?$char_traits@D@std@@V?$allocator@D@2@@std@@V12@U?$less@V?$basic_string@DU?$char_traits@D@std@@V?$allocator@D@2@@std@@@2@V?$allocator@U?$pair@$$CBV?$basic_string@DU?$char_traits@D@std@@V?$allocator@D@2@@std@@V12@@std@@@2@$0A@@std@@@std@@IEBA?AU?$_Tree_find_hint_result@PEAU?$_Tree_node@U?$pair@$$CBV?$basic_string@DU?$char_traits@D@std@@V?$allocator@D@2@@std@@V12@@std@@PEAX@std@@@1@QEAU?$_Tree_node@U?$pair@$$CBV?$basic_string@DU?$char_traits@D@std@@V?$allocator@D@2@@std@@V12@@std@@PEAX@1@AEBV?$basic_string@DU?$char_traits@D@std@@V?$allocator@D@2@@1@@Z 000000014004a4f0 f i SimpleDB.obj
 0002:00029aa0       ??$_Find_lower_bound@V?$basic_string@DU?$char_traits@D@std@@V?$allocator@D@2@@std@@@?$_Tree@V?$_Tmap_traits@V?$basic_string@DU?$char_traits@D@std@@V?$allocator@D@2@@std@@V12@U?$less@V?$basic_string@DU?$char_traits@D@std@@V?$allocator@D@2@@std@@@2@V?$allocator@U?$pair@$$CBV?$basic_string@DU?$char_traits@D@std@@V?$allocator@D@2@@std@@V12@@std@@@2@$0A@@std@@@std@@IEBA?AU?$_Tree_find_result@PEAU?$_Tree_node@U?$pair@$$CBV?$basic_string@DU?$char_traits@D@std@@V?$allocator@D@2@@std@@V12@@std@@PEAX@std@@@1@AEBV?$basic_string@DU?$char_traits@D@std@@V?$allocator@D@2@@1@@Z 000000014004aaa0 f i SimpleDB.obj
 0002:00029c70       ??$_Fputc@D@std@@YA_NDPEAU_iobuf@@@Z 000000014004ac70 f i SimpleDB.obj
 0002:00029d10       ??$_Freenode0@V?$allocator@U?$_Tree_node@U?$pair@$$CBV?$basic_string@DU?$char_traits@D@std@@V?$allocator@D@2@@std@@V12@@std@@PEAX@std@@@std@@@?$_Tree_node@U?$pair@$$CBV?$basic_string@DU?$char_traits@D@std@@V?$allocator@D@2@@std@@V12@@std@@PEAX@std@@SAXAEAV?$allocator@U?$_Tree_node@U?$pair@$$CBV?$basic_string@DU?$char_traits@D@std@@V?$allocator@D@2@@std@@V12@@std@@PEAX@std@@@1@PEAU01@@Z 000000014004ad10 f i SimpleDB.obj
 0002:00029dd0       ??$_Freenode@V?$allocator@U?$_Tree_node@U?$pair@$$CBV?$basic_string@DU?$char_traits@D@std@@V?$allocator@D@2@@std@@V12@@std@@PEAX@std@@@std@@@?$_Tree_node@U?$pair@$$CBV?$basic_string@DU?$char_traits@D@std@@V?$allocator@D@2@@std@@V12@@std@@PEAX@std@@SAXAEAV?$allocator@U?$_Tree_node@U?$pair@$$CBV?$basic_string@DU?$char_traits@D@std@@V?$allocator@D@2@@std@@V12@@std@@PEAX@std@@@1@PEAU01@@Z 000000014004add0 f i SimpleDB.obj
 0002:00029e70       ??$_Get_size_of_n@$0HA@@std@@YA_K_K@Z 000000014004ae70 f i SimpleDB.obj
 0002:00029f00       ??$_Get_unwrapped@AEAPEBU?$pair@$$CBV?$basic_string@DU?$char_traits@D@std@@V?$allocator@D@2@@std@@V12@@std@@@std@@YA@AEAPEBU?$pair@$$CBV?$basic_string@DU?$char_traits@D@std@@V?$allocator@D@2@@std@@V12@@0@@Z 000000014004af00 f i SimpleDB.obj
 0002:00029f60       ??$_Get_unwrapped@AEAV?$_Tree_unchecked_const_iterator@V?$_Tree_val@U?$_Tree_simple_types@U?$pair@$$CBV?$basic_string@DU?$char_traits@D@std@@V?$allocator@D@2@@std@@V12@@std@@@std@@@std@@U_Iterator_base0@2@@std@@@std@@YA@AEAV?$_Tree_unchecked_const_iterator@V?$_Tree_val@U?$_Tree_simple_types@U?$pair@$$CBV?$basic_string@DU?$char_traits@D@std@@V?$allocator@D@2@@std@@V12@@std@@@std@@@std@@U_Iterator_base0@2@@0@@Z 000000014004af60 f i SimpleDB.obj
 0002:00029fc0       ??$_Get_unwrapped@AEBQEBUClient@Persistence@TechnicalServices@@@std@@YA@AEBQEBUClient@Persistence@TechnicalServices@@@Z 000000014004afc0 f i SimpleDB.obj
 0002:0002a020       ??$_Get_unwrapped@AEBQEBUUserCredentials@Persistence@TechnicalServices@@@std@@YA@AEBQEBUUserCredentials@Persistence@TechnicalServices@@@Z 000000014004b020 f i SimpleDB.obj
 0002:0002a080       ??$_Get_unwrapped@AEBQEBV?$basic_string@DU?$char_traits@D@std@@V?$allocator@D@2@@std@@@std@@YA@AEBQEBV?$basic_string@DU?$char_traits@D@std@@V?$allocator@D@2@@0@@Z 000000014004b080 f i SimpleDB.obj
 0002:0002a0e0       ??$_Kfn@$$CBV?$basic_string@DU?$char_traits@D@std@@V?$allocator@D@2@@std@@V12@@?$_Tmap_traits@V?$basic_string@DU?$char_traits@D@std@@V?$allocator@D@2@@std@@V12@U?$less@V?$basic_string@DU?$char_traits@D@std@@V?$allocator@D@2@@std@@@2@V?$allocator@U?$pair@$$CBV?$basic_string@DU?$char_traits@D@std@@V?$allocator@D@2@@std@@V12@@std@@@2@$0A@@std@@SAAEBV?$basic_string@DU?$char_traits@D@std@@V?$allocator@D@2@@1@AEBU?$pair@$$CBV?$basic_string@DU?$char_traits@D@std@@V?$allocator@D@2@@std@@V12@@1@@Z 000000014004b0e0 f i SimpleDB.obj
 0002:0002a140       ??$_Lower_bound_duplicate@V?$basic_string@DU?$char_traits@D@std@@V?$allocator@D@2@@std@@@?$_Tree@V?$_Tmap_traits@V?$basic_string@DU?$char_traits@D@std@@V?$allocator@D@2@@std@@V12@U?$less@V?$basic_string@DU?$char_traits@D@std@@V?$allocator@D@2@@std@@@2@V?$allocator@U?$pair@$$CBV?$basic_string@DU?$char_traits@D@std@@V?$allocator@D@2@@std@@V12@@std@@@2@$0A@@std@@@std@@IEBA_NQEAU?$_Tree_node@U?$pair@$$CBV?$basic_string@DU?$char_traits@D@std@@V?$allocator@D@2@@std@@V12@@std@@PEAX@1@AEBV?$basic_string@DU?$char_traits@D@std@@V?$allocator@D@2@@1@@Z 000000014004b140 f i SimpleDB.obj
 0002:0002a240       ??$_Range_construct_or_tidy@PEBUClient@Persistence@TechnicalServices@@@?$vector@UClient@Persistence@TechnicalServices@@V?$allocator@UClient@Persistence@TechnicalServices@@@std@@@std@@AEAAXPEBUClient@Persistence@TechnicalServices@@0Uforward_iterator_tag@1@@Z 000000014004b240 f i SimpleDB.obj
 0002:0002a390       ??$_Range_construct_or_tidy@PEBUUserCredentials@Persistence@TechnicalServices@@@?$vector@UUserCredentials@Persistence@TechnicalServices@@V?$allocator@UUserCredentials@Persistence@TechnicalServices@@@std@@@std@@AEAAXPEBUUserCredentials@Persistence@TechnicalServices@@0Uforward_iterator_tag@1@@Z 000000014004b390 f i SimpleDB.obj
 0002:0002a4e0       ??$_Range_construct_or_tidy@PEBV?$basic_string@DU?$char_traits@D@std@@V?$allocator@D@2@@std@@@?$vector@V?$basic_string@DU?$char_traits@D@std@@V?$allocator@D@2@@std@@V?$allocator@V?$basic_string@DU?$char_traits@D@std@@V?$allocator@D@2@@std@@@2@@std@@AEAAXPEBV?$basic_string@DU?$char_traits@D@std@@V?$allocator@D@2@@1@0Uforward_iterator_tag@1@@Z 000000014004b4e0 f i SimpleDB.obj
 0002:0002a630       ??$_Try_emplace@AEBV?$basic_string@DU?$char_traits@D@std@@V?$allocator@D@2@@std@@$$V@?$map@V?$basic_string@DU?$char_traits@D@std@@V?$allocator@D@2@@std@@V12@U?$less@V?$basic_string@DU?$char_traits@D@std@@V?$allocator@D@2@@std@@@2@V?$allocator@U?$pair@$$CBV?$basic_string@DU?$char_traits@D@std@@V?$allocator@D@2@@std@@V12@@std@@@2@@std@@AEAA?AU?$pair@PEAU?$_Tree_node@U?$pair@$$CBV?$basic_string@DU?$char_traits@D@std@@V?$allocator@D@2@@std@@V12@@std@@PEAX@std@@_N@1@AEBV?$basic_string@DU?$char_traits@D@std@@V?$allocator@D@2@@1@@Z 000000014004b630 f i SimpleDB.obj
 0002:0002a8c0       ??$_Ucopy@PEBUClient@Persistence@TechnicalServices@@@?$vector@UClient@Persistence@TechnicalServices@@V?$allocator@UClient@Persistence@TechnicalServices@@@std@@@std@@AEAAPEAUClient@Persistence@TechnicalServices@@PEBU234@0PEAU234@@Z 000000014004b8c0 f i SimpleDB.obj
 0002:0002a960       ??$_Ucopy@PEBUUserCredentials@Persistence@TechnicalServices@@@?$vector@UUserCredentials@Persistence@TechnicalServices@@V?$allocator@UUserCredentials@Persistence@TechnicalServices@@@std@@@std@@AEAAPEAUUserCredentials@Persistence@TechnicalServices@@PEBU234@0PEAU234@@Z 000000014004b960 f i SimpleDB.obj
 0002:0002aa00       ??$_Ucopy@PEBV?$basic_string@DU?$char_traits@D@std@@V?$allocator@D@2@@std@@@?$vector@V?$basic_string@DU?$char_traits@D@std@@V?$allocator@D@2@@std@@V?$allocator@V?$basic_string@DU?$char_traits@D@std@@V?$allocator@D@2@@std@@@2@@std@@AEAAPEAV?$basic_string@DU?$char_traits@D@std@@V?$allocator@D@2@@1@PEBV21@0PEAV21@@Z 000000014004ba00 f i SimpleDB.obj
 0002:0002aaa0       ??$_Unfancy@UUserCredentials@Persistence@TechnicalServices@@@std@@YAPEAUUserCredentials@Persistence@TechnicalServices@@PEAU123@@Z 000000014004baa0 f i SimpleDB.obj
 0002:0002ab00       ??$_Ungetc@D@std@@YA_NAEBDPEAU_iobuf@@@Z 000000014004bb00 f i SimpleDB.obj
 0002:0002aba0       ??$_Uninitialized_copy@PEBUClient@Persistence@TechnicalServices@@V?$allocator@UClient@Persistence@TechnicalServices@@@std@@@std@@YAPEAUClient@Persistence@TechnicalServices@@QEBU123@0PEAU123@AEAV?$allocator@UClient@Persistence@TechnicalServices@@@0@@Z 000000014004bba0 f i SimpleDB.obj
 0002:0002ad00       ??$_Uninitialized_copy@PEBUUserCredentials@Persistence@TechnicalServices@@V?$allocator@UUserCredentials@Persistence@TechnicalServices@@@std@@@std@@YAPEAUUserCredentials@Persistence@TechnicalServices@@QEBU123@0PEAU123@AEAV?$allocator@UUserCredentials@Persistence@TechnicalServices@@@0@@Z 000000014004bd00 f i SimpleDB.obj
 0002:0002ae60       ??$_Uninitialized_copy@PEBV?$basic_string@DU?$char_traits@D@std@@V?$allocator@D@2@@std@@V?$allocator@V?$basic_string@DU?$char_traits@D@std@@V?$allocator@D@2@@std@@@2@@std@@YAPEAV?$basic_string@DU?$char_traits@D@std@@V?$allocator@D@2@@0@QEBV10@0PEAV10@AEAV?$allocator@V?$basic_string@DU?$char_traits@D@std@@V?$allocator@D@2@@std@@@0@@Z 000000014004be60 f i SimpleDB.obj
 0002:0002afc0       ??$_Verify_range@U?$pair@$$CBV?$basic_string@DU?$char_traits@D@std@@V?$allocator@D@2@@std@@V12@@std@@@std@@YAXQEBU?$pair@$$CBV?$basic_string@DU?$char_traits@D@std@@V?$allocator@D@2@@std@@V12@@0@0@Z 000000014004bfc0 f i SimpleDB.obj
 0002:0002b0c0       ??$addressof@$$CBU?$pair@$$CBV?$basic_string@DU?$char_traits@D@std@@V?$allocator@D@2@@std@@V12@@std@@@std@@YAPEBU?$pair@$$CBV?$basic_string@DU?$char_traits@D@std@@V?$allocator@D@2@@std@@V12@@0@AEBU10@@Z 000000014004c0c0 f i SimpleDB.obj
 0002:0002b120       ??$addressof@$$CBV?$_Tree_val@U?$_Tree_simple_types@U?$pair@$$CBV?$basic_string@DU?$char_traits@D@std@@V?$allocator@D@2@@std@@V12@@std@@@std@@@std@@@std@@YAPEBV?$_Tree_val@U?$_Tree_simple_types@U?$pair@$$CBV?$basic_string@DU?$char_traits@D@std@@V?$allocator@D@2@@std@@V12@@std@@@std@@@0@AEBV10@@Z 000000014004c120 f i SimpleDB.obj
 0002:0002b180       ??$addressof@$$CBV?$codecvt@DDU_Mbstatet@@@std@@@std@@YAPEBV?$codecvt@DDU_Mbstatet@@@0@AEBV10@@Z 000000014004c180 f i SimpleDB.obj
 0002:0002b1e0       ??$addressof@PEAU?$_Tree_node@U?$pair@$$CBV?$basic_string@DU?$char_traits@D@std@@V?$allocator@D@2@@std@@V12@@std@@PEAX@std@@@std@@YAPEAPEAU?$_Tree_node@U?$pair@$$CBV?$basic_string@DU?$char_traits@D@std@@V?$allocator@D@2@@std@@V12@@std@@PEAX@0@AEAPEAU10@@Z 000000014004c1e0 f i SimpleDB.obj
 0002:0002b240       ??$addressof@U?$pair@$$CBV?$basic_string@DU?$char_traits@D@std@@V?$allocator@D@2@@std@@V12@@std@@@std@@YAPEAU?$pair@$$CBV?$basic_string@DU?$char_traits@D@std@@V?$allocator@D@2@@std@@V12@@0@AEAU10@@Z 000000014004c240 f i SimpleDB.obj
 0002:0002b2a0       ??$addressof@V?$_Tree_val@U?$_Tree_simple_types@U?$pair@$$CBV?$basic_string@DU?$char_traits@D@std@@V?$allocator@D@2@@std@@V12@@std@@@std@@@std@@@std@@YAPEAV?$_Tree_val@U?$_Tree_simple_types@U?$pair@$$CBV?$basic_string@DU?$char_traits@D@std@@V?$allocator@D@2@@std@@V12@@std@@@std@@@0@AEAV10@@Z 000000014004c2a0 f i SimpleDB.obj
 0002:0002b300       ??$addressof@V?$basic_filebuf@DU?$char_traits@D@std@@@std@@@std@@YAPEAV?$basic_filebuf@DU?$char_traits@D@std@@@0@AEAV10@@Z 000000014004c300 f i SimpleDB.obj
 0002:0002b360       ??$construct@U?$pair@$$CBV?$basic_string@DU?$char_traits@D@std@@V?$allocator@D@2@@std@@V12@@std@@AEBU12@@?$_Default_allocator_traits@V?$allocator@U?$_Tree_node@U?$pair@$$CBV?$basic_string@DU?$char_traits@D@std@@V?$allocator@D@2@@std@@V12@@std@@PEAX@std@@@std@@@std@@SAXAEAV?$allocator@U?$_Tree_node@U?$pair@$$CBV?$basic_string@DU?$char_traits@D@std@@V?$allocator@D@2@@std@@V12@@std@@PEAX@std@@@1@QEAU?$pair@$$CBV?$basic_string@DU?$char_traits@D@std@@V?$allocator@D@2@@std@@V12@@1@AEBU31@@Z 000000014004c360 f i SimpleDB.obj
 0002:0002b410       ??$construct@U?$pair@$$CBV?$basic_string@DU?$char_traits@D@std@@V?$allocator@D@2@@std@@V12@@std@@AEBUpiecewise_construct_t@2@V?$tuple@AEBV?$basic_string@DU?$char_traits@D@std@@V?$allocator@D@2@@std@@@2@V?$tuple@$$V@2@@?$_Default_allocator_traits@V?$allocator@U?$_Tree_node@U?$pair@$$CBV?$basic_string@DU?$char_traits@D@std@@V?$allocator@D@2@@std@@V12@@std@@PEAX@std@@@std@@@std@@SAXAEAV?$allocator@U?$_Tree_node@U?$pair@$$CBV?$basic_string@DU?$char_traits@D@std@@V?$allocator@D@2@@std@@V12@@std@@PEAX@std@@@1@QEAU?$pair@$$CBV?$basic_string@DU?$char_traits@D@std@@V?$allocator@D@2@@std@@V12@@1@AEBUpiecewise_construct_t@1@$$QEAV?$tuple@AEBV?$basic_string@DU?$char_traits@D@std@@V?$allocator@D@2@@std@@@1@$$QEAV?$tuple@$$V@1@@Z 000000014004c410 f i SimpleDB.obj
 0002:0002b570       ??$construct@UUserCredentials@Persistence@TechnicalServices@@AEBU123@@?$_Default_allocator_traits@V?$allocator@UUserCredentials@Persistence@TechnicalServices@@@std@@@std@@SAXAEAV?$allocator@UUserCredentials@Persistence@TechnicalServices@@@1@QEAUUserCredentials@Persistence@TechnicalServices@@AEBU345@@Z 000000014004c570 f i SimpleDB.obj
 0002:0002b620       ??$destroy@U?$pair@$$CBV?$basic_string@DU?$char_traits@D@std@@V?$allocator@D@2@@std@@V12@@std@@@?$_Default_allocator_traits@V?$allocator@U?$_Tree_node@U?$pair@$$CBV?$basic_string@DU?$char_traits@D@std@@V?$allocator@D@2@@std@@V12@@std@@PEAX@std@@@std@@@std@@SAXAEAV?$allocator@U?$_Tree_node@U?$pair@$$CBV?$basic_string@DU?$char_traits@D@std@@V?$allocator@D@2@@std@@V12@@std@@PEAX@std@@@1@QEAU?$pair@$$CBV?$basic_string@DU?$char_traits@D@std@@V?$allocator@D@2@@std@@V12@@1@@Z 000000014004c620 f i SimpleDB.obj
 0002:0002b690       ??$destroy@UUserCredentials@Persistence@TechnicalServices@@@?$_Default_allocator_traits@V?$allocator@UUserCredentials@Persistence@TechnicalServices@@@std@@@std@@SAXAEAV?$allocator@UUserCredentials@Persistence@TechnicalServices@@@1@QEAUUserCredentials@Persistence@TechnicalServices@@@Z 000000014004c690 f i SimpleDB.obj
 0002:0002b700       ??$distance@PEBUClient@Persistence@TechnicalServices@@@std@@YA_JPEBUClient@Persistence@TechnicalServices@@0@Z 000000014004c700 f i SimpleDB.obj
 0002:0002b780       ??$distance@PEBUUserCredentials@Persistence@TechnicalServices@@@std@@YA_JPEBUUserCredentials@Persistence@TechnicalServices@@0@Z 000000014004c780 f i SimpleDB.obj
 0002:0002b800       ??$distance@PEBV?$basic_string@DU?$char_traits@D@std@@V?$allocator@D@2@@std@@@std@@YA_JPEBV?$basic_string@DU?$char_traits@D@std@@V?$allocator@D@2@@0@0@Z 000000014004c800 f i SimpleDB.obj
 0002:0002b880       ??$distance@V?$_Tree_unchecked_const_iterator@V?$_Tree_val@U?$_Tree_simple_types@U?$pair@$$CBV?$basic_string@DU?$char_traits@D@std@@V?$allocator@D@2@@std@@V12@@std@@@std@@@std@@U_Iterator_base0@2@@std@@@std@@YA_JV?$_Tree_unchecked_const_iterator@V?$_Tree_val@U?$_Tree_simple_types@U?$pair@$$CBV?$basic_string@DU?$char_traits@D@std@@V?$allocator@D@2@@std@@V12@@std@@@std@@@std@@U_Iterator_base0@2@@0@0@Z 000000014004c880 f i SimpleDB.obj
 0002:0002b9d0       ??$exchange@PEAU?$_Tree_node@U?$pair@$$CBV?$basic_string@DU?$char_traits@D@std@@V?$allocator@D@2@@std@@V12@@std@@PEAX@std@@$$T@std@@YAPEAU?$_Tree_node@U?$pair@$$CBV?$basic_string@DU?$char_traits@D@std@@V?$allocator@D@2@@std@@V12@@std@@PEAX@0@AEAPEAU10@$$QEA$$T@Z 000000014004c9d0 f i SimpleDB.obj
 0002:0002ba60       ??$exchange@PEAU?$_Tree_node@U?$pair@$$CBV?$basic_string@DU?$char_traits@D@std@@V?$allocator@D@2@@std@@V12@@std@@PEAX@std@@AEAPEAU12@@std@@YAPEAU?$_Tree_node@U?$pair@$$CBV?$basic_string@DU?$char_traits@D@std@@V?$allocator@D@2@@std@@V12@@std@@PEAX@0@AEAPEAU10@0@Z 000000014004ca60 f i SimpleDB.obj
 0002:0002baf0       ??$forward@AEAPEAU?$_Tree_node@U?$pair@$$CBV?$basic_string@DU?$char_traits@D@std@@V?$allocator@D@2@@std@@V12@@std@@PEAX@std@@@std@@YAAEAPEAU?$_Tree_node@U?$pair@$$CBV?$basic_string@DU?$char_traits@D@std@@V?$allocator@D@2@@std@@V12@@std@@PEAX@0@AEAPEAU10@@Z 000000014004caf0 f i SimpleDB.obj
 0002:0002bb50       ??$forward@AEAY0N@$$CBD@std@@YAAEAY0N@$$CBDAEAY0N@$$CBD@Z 000000014004cb50 f i SimpleDB.obj
 0002:0002bbb0       ??$forward@AEBQEAU?$_Tree_node@U?$pair@$$CBV?$basic_string@DU?$char_traits@D@std@@V?$allocator@D@2@@std@@V12@@std@@PEAX@std@@@std@@YAAEBQEAU?$_Tree_node@U?$pair@$$CBV?$basic_string@DU?$char_traits@D@std@@V?$allocator@D@2@@std@@V12@@std@@PEAX@0@AEBQEAU10@@Z 000000014004cbb0 f i SimpleDB.obj
 0002:0002bc10       ??$forward@AEBU?$pair@$$CBV?$basic_string@DU?$char_traits@D@std@@V?$allocator@D@2@@std@@V12@@std@@@std@@YAAEBU?$pair@$$CBV?$basic_string@DU?$char_traits@D@std@@V?$allocator@D@2@@std@@V12@@0@AEBU10@@Z 000000014004cc10 f i SimpleDB.obj
 0002:0002bc70       ??$forward@AEBUpiecewise_construct_t@std@@@std@@YAAEBUpiecewise_construct_t@0@AEBU10@@Z 000000014004cc70 f i SimpleDB.obj
 0002:0002bcd0       ??$forward@AEBV?$allocator@UClient@Persistence@TechnicalServices@@@std@@@std@@YAAEBV?$allocator@UClient@Persistence@TechnicalServices@@@0@AEBV10@@Z 000000014004ccd0 f i SimpleDB.obj
 0002:0002bd30       ??$forward@AEBV?$allocator@UUserCredentials@Persistence@TechnicalServices@@@std@@@std@@YAAEBV?$allocator@UUserCredentials@Persistence@TechnicalServices@@@0@AEBV10@@Z 000000014004cd30 f i SimpleDB.obj
 0002:0002bd90       ??$forward@AEBV?$allocator@V?$basic_string@DU?$char_traits@D@std@@V?$allocator@D@2@@std@@@std@@@std@@YAAEBV?$allocator@V?$basic_string@DU?$char_traits@D@std@@V?$allocator@D@2@@std@@@0@AEBV10@@Z 000000014004cd90 f i SimpleDB.obj
 0002:0002bdf0       ??$forward@PEAU?$_Tree_node@U?$pair@$$CBV?$basic_string@DU?$char_traits@D@std@@V?$allocator@D@2@@std@@V12@@std@@PEAX@std@@@std@@YA$$QEAPEAU?$_Tree_node@U?$pair@$$CBV?$basic_string@DU?$char_traits@D@std@@V?$allocator@D@2@@std@@V12@@std@@PEAX@0@AEAPEAU10@@Z 000000014004cdf0 f i SimpleDB.obj
 0002:0002be50       ??$forward@V?$tuple@$$V@std@@@std@@YA$$QEAV?$tuple@$$V@0@AEAV10@@Z 000000014004ce50 f i SimpleDB.obj
 0002:0002beb0       ??$forward@V?$tuple@AEBV?$basic_string@DU?$char_traits@D@std@@V?$allocator@D@2@@std@@@std@@@std@@YA$$QEAV?$tuple@AEBV?$basic_string@DU?$char_traits@D@std@@V?$allocator@D@2@@std@@@0@AEAV10@@Z 000000014004ceb0 f i SimpleDB.obj
 0002:0002bf10       ??$forward@_N@std@@YA$$QEA_NAEA_N@Z 000000014004cf10 f i SimpleDB.obj
 0002:0002bf70       ??$forward_as_tuple@$$V@std@@YA?AV?$tuple@$$V@0@XZ 000000014004cf70 f i SimpleDB.obj
 0002:0002bfe0       ??$forward_as_tuple@AEBV?$basic_string@DU?$char_traits@D@std@@V?$allocator@D@2@@std@@@std@@YA?AV?$tuple@AEBV?$basic_string@DU?$char_traits@D@std@@V?$allocator@D@2@@std@@@0@AEBV?$basic_string@DU?$char_traits@D@std@@V?$allocator@D@2@@0@@Z 000000014004cfe0 f i SimpleDB.obj
 0002:0002c060       ??$get@$0A@AEBV?$basic_string@DU?$char_traits@D@std@@V?$allocator@D@2@@std@@@std@@YAAEBV?$basic_string@DU?$char_traits@D@std@@V?$allocator@D@2@@0@$$QEAV?$tuple@AEBV?$basic_string@DU?$char_traits@D@std@@V?$allocator@D@2@@std@@@0@@Z 000000014004d060 f i SimpleDB.obj
 0002:0002c0c0       ??$insert@PEBU?$pair@$$CBV?$basic_string@DU?$char_traits@D@std@@V?$allocator@D@2@@std@@V12@@std@@@?$_Tree@V?$_Tmap_traits@V?$basic_string@DU?$char_traits@D@std@@V?$allocator@D@2@@std@@V12@U?$less@V?$basic_string@DU?$char_traits@D@std@@V?$allocator@D@2@@std@@@2@V?$allocator@U?$pair@$$CBV?$basic_string@DU?$char_traits@D@std@@V?$allocator@D@2@@std@@V12@@std@@@2@$0A@@std@@@std@@QEAAXPEBU?$pair@$$CBV?$basic_string@DU?$char_traits@D@std@@V?$allocator@D@2@@std@@V12@@1@0@Z 000000014004d0c0 f i SimpleDB.obj
 0002:0002c1b0       ??$make_unique@VSimpleLogger@Logging@TechnicalServices@@$$V$0A@@std@@YA?AV?$unique_ptr@VSimpleLogger@Logging@TechnicalServices@@U?$default_delete@VSimpleLogger@Logging@TechnicalServices@@@std@@@0@XZ 000000014004d1b0 f i SimpleDB.obj
 0002:0002c2b0       ??$move@AEAD@std@@YA$$QEADAEAD@Z 000000014004d2b0 f i SimpleDB.obj
 0002:0002c310       ??$move@AEAV?$basic_istream@DU?$char_traits@D@std@@@std@@@std@@YA$$QEAV?$basic_istream@DU?$char_traits@D@std@@@0@AEAV10@@Z 000000014004d310 f i SimpleDB.obj
 0002:0002c370       ??$move@AEAV?$tuple@AEBV?$basic_string@DU?$char_traits@D@std@@V?$allocator@D@2@@std@@@std@@@std@@YA$$QEAV?$tuple@AEBV?$basic_string@DU?$char_traits@D@std@@V?$allocator@D@2@@std@@@0@AEAV10@@Z 000000014004d370 f i SimpleDB.obj
 0002:0002c3d0       ??$quoted@DU?$char_traits@D@std@@V?$allocator@D@2@@std@@YA?AU?$_Quote_in@DU?$char_traits@D@std@@V?$allocator@D@2@@0@AEAV?$basic_string@DU?$char_traits@D@std@@V?$allocator@D@2@@0@DD@Z 000000014004d3d0 f i SimpleDB.obj
 0002:0002c470       ??$swap@D$0A@@std@@YAXAEAD0@Z 000000014004d470 f i SimpleDB.obj
 0002:0002c560       ??$use_facet@V?$codecvt@DDU_Mbstatet@@@std@@@std@@YAAEBV?$codecvt@DDU_Mbstatet@@@0@AEBVlocale@0@@Z 000000014004d560 f i SimpleDB.obj
 0002:0002c750       ??0?$_Alloc_construct_ptr@V?$allocator@U?$_Tree_node@U?$pair@$$CBV?$basic_string@DU?$char_traits@D@std@@V?$allocator@D@2@@std@@V12@@std@@PEAX@std@@@std@@@std@@QEAA@AEAV?$allocator@U?$_Tree_node@U?$pair@$$CBV?$basic_string@DU?$char_traits@D@std@@V?$allocator@D@2@@std@@V12@@std@@PEAX@std@@@1@@Z 000000014004d750 f i SimpleDB.obj
 0002:0002c7e0       ??0?$_Quote_in@DU?$char_traits@D@std@@V?$allocator@D@2@@std@@QEAA@AEAV?$basic_string@DU?$char_traits@D@std@@V?$allocator@D@2@@1@DD@Z 000000014004d7e0 f i SimpleDB.obj
 0002:0002c890       ??0?$_Tree@V?$_Tmap_traits@V?$basic_string@DU?$char_traits@D@std@@V?$allocator@D@2@@std@@V12@U?$less@V?$basic_string@DU?$char_traits@D@std@@V?$allocator@D@2@@std@@@2@V?$allocator@U?$pair@$$CBV?$basic_string@DU?$char_traits@D@std@@V?$allocator@D@2@@std@@V12@@std@@@2@$0A@@std@@@std@@QEAA@AEBU?$less@V?$basic_string@DU?$char_traits@D@std@@V?$allocator@D@2@@std@@@1@@Z 000000014004d890 f i SimpleDB.obj
 0002:0002c940       ??0?$_Tree_const_iterator@V?$_Tree_val@U?$_Tree_simple_types@U?$pair@$$CBV?$basic_string@DU?$char_traits@D@std@@V?$allocator@D@2@@std@@V12@@std@@@std@@@std@@@std@@QEAA@PEAU?$_Tree_node@U?$pair@$$CBV?$basic_string@DU?$char_traits@D@std@@V?$allocator@D@2@@std@@V12@@std@@PEAX@1@PEBV?$_Tree_val@U?$_Tree_simple_types@U?$pair@$$CBV?$basic_string@DU?$char_traits@D@std@@V?$allocator@D@2@@std@@V12@@std@@@std@@@1@@Z 000000014004d940 f i SimpleDB.obj
 0002:0002c9c0       ??0?$_Tree_temp_node_alloc@V?$allocator@U?$_Tree_node@U?$pair@$$CBV?$basic_string@DU?$char_traits@D@std@@V?$allocator@D@2@@std@@V12@@std@@PEAX@std@@@std@@@std@@QEAA@AEAV?$allocator@U?$_Tree_node@U?$pair@$$CBV?$basic_string@DU?$char_traits@D@std@@V?$allocator@D@2@@std@@V12@@std@@PEAX@std@@@1@@Z 000000014004d9c0 f i SimpleDB.obj
 0002:0002ca50       ??0?$_Tree_unchecked_const_iterator@V?$_Tree_val@U?$_Tree_simple_types@U?$pair@$$CBV?$basic_string@DU?$char_traits@D@std@@V?$allocator@D@2@@std@@V12@@std@@@std@@@std@@U_Iterator_base0@2@@std@@QEAA@PEAU?$_Tree_node@U?$pair@$$CBV?$basic_string@DU?$char_traits@D@std@@V?$allocator@D@2@@std@@V12@@std@@PEAX@1@PEBV?$_Tree_val@U?$_Tree_simple_types@U?$pair@$$CBV?$basic_string@DU?$char_traits@D@std@@V?$allocator@D@2@@std@@V12@@std@@@std@@@1@@Z 000000014004da50 f i SimpleDB.obj
 0002:0002caf0       ??0?$_Tree_unchecked_const_iterator@V?$_Tree_val@U?$_Tree_simple_types@U?$pair@$$CBV?$basic_string@DU?$char_traits@D@std@@V?$allocator@D@2@@std@@V12@@std@@@std@@@std@@U_Iterator_base12@2@@std@@QEAA@PEAU?$_Tree_node@U?$pair@$$CBV?$basic_string@DU?$char_traits@D@std@@V?$allocator@D@2@@std@@V12@@std@@PEAX@1@PEBV?$_Tree_val@U?$_Tree_simple_types@U?$pair@$$CBV?$basic_string@DU?$char_traits@D@std@@V?$allocator@D@2@@std@@V12@@std@@@std@@@1@@Z 000000014004daf0 f i SimpleDB.obj
 0002:0002cba0       ??0?$_Tree_unchecked_iterator@V?$_Tree_val@U?$_Tree_simple_types@U?$pair@$$CBV?$basic_string@DU?$char_traits@D@std@@V?$allocator@D@2@@std@@V12@@std@@@std@@@std@@@std@@QEAA@PEAU?$_Tree_node@U?$pair@$$CBV?$basic_string@DU?$char_traits@D@std@@V?$allocator@D@2@@std@@V12@@std@@PEAX@1@PEBV?$_Tree_val@U?$_Tree_simple_types@U?$pair@$$CBV?$basic_string@DU?$char_traits@D@std@@V?$allocator@D@2@@std@@V12@@std@@@std@@@1@@Z 000000014004dba0 f i SimpleDB.obj
 0002:0002cc20       ??0?$_Tree_val@U?$_Tree_simple_types@U?$pair@$$CBV?$basic_string@DU?$char_traits@D@std@@V?$allocator@D@2@@std@@V12@@std@@@std@@@std@@QEAA@XZ 000000014004dc20 f i SimpleDB.obj
 0002:0002ccb0       ??0?$_Uninitialized_backout_al@V?$allocator@UUserCredentials@Persistence@TechnicalServices@@@std@@@std@@QEAA@PEAUUserCredentials@Persistence@TechnicalServices@@AEAV?$allocator@UUserCredentials@Persistence@TechnicalServices@@@1@@Z 000000014004dcb0 f i SimpleDB.obj
 0002:0002cd60       ??0?$_Vector_val@U?$_Simple_types@UUserCredentials@Persistence@TechnicalServices@@@std@@@std@@QEAA@XZ 000000014004dd60 f i SimpleDB.obj
 0002:0002ce00       ??0?$allocator@U?$_Tree_node@U?$pair@$$CBV?$basic_string@DU?$char_traits@D@std@@V?$allocator@D@2@@std@@V12@@std@@PEAX@std@@@std@@QEAA@XZ 000000014004de00 f i SimpleDB.obj
 0002:0002ce60       ??0?$allocator@UUserCredentials@Persistence@TechnicalServices@@@std@@QEAA@XZ 000000014004de60 f i SimpleDB.obj
 0002:0002cec0       ??0?$basic_filebuf@DU?$char_traits@D@std@@@std@@QEAA@XZ 000000014004dec0 f i SimpleDB.obj
 0002:0002cf60       ??0?$basic_ifstream@DU?$char_traits@D@std@@@std@@QEAA@PEBDHH@Z 000000014004df60 f i SimpleDB.obj
 0002:0002d170       ??0?$fpos@U_Mbstatet@@@std@@QEAA@U_Mbstatet@@_J@Z 000000014004e170 f i SimpleDB.obj
 0002:0002d220       ??0?$fpos@U_Mbstatet@@@std@@QEAA@_J@Z 000000014004e220 f i SimpleDB.obj
 0002:0002d2d0       ??0?$initializer_list@U?$pair@$$CBV?$basic_string@DU?$char_traits@D@std@@V?$allocator@D@2@@std@@V12@@std@@@std@@QEAA@PEBU?$pair@$$CBV?$basic_string@DU?$char_traits@D@std@@V?$allocator@D@2@@std@@V12@@1@0@Z 000000014004e2d0 f i SimpleDB.obj
 0002:0002d370       ??0?$initializer_list@UClient@Persistence@TechnicalServices@@@std@@QEAA@PEBUClient@Persistence@TechnicalServices@@0@Z 000000014004e370 f i SimpleDB.obj
 0002:0002d410       ??0?$initializer_list@UUserCredentials@Persistence@TechnicalServices@@@std@@QEAA@PEBUUserCredentials@Persistence@TechnicalServices@@0@Z 000000014004e410 f i SimpleDB.obj
 0002:0002d4b0       ??0?$initializer_list@V?$basic_string@DU?$char_traits@D@std@@V?$allocator@D@2@@std@@@std@@QEAA@PEBV?$basic_string@DU?$char_traits@D@std@@V?$allocator@D@2@@1@0@Z 000000014004e4b0 f i SimpleDB.obj
 0002:0002d550       ??0?$map@V?$basic_string@DU?$char_traits@D@std@@V?$allocator@D@2@@std@@V12@U?$less@V?$basic_string@DU?$char_traits@D@std@@V?$allocator@D@2@@std@@@2@V?$allocator@U?$pair@$$CBV?$basic_string@DU?$char_traits@D@std@@V?$allocator@D@2@@std@@V12@@std@@@2@@std@@QEAA@XZ 000000014004e550 f i SimpleDB.obj
 0002:0002d5c0       ??0?$pair@$$CBV?$basic_string@DU?$char_traits@D@std@@V?$allocator@D@2@@std@@V12@@std@@QEAA@AEBU01@@Z 000000014004e5c0 f i SimpleDB.obj
 0002:0002d690       ??0?$tuple@$$V@std@@QEAA@AEBV01@@Z 000000014004e690 f i SimpleDB.obj
 0002:0002d6f0       ??0?$tuple@$$V@std@@QEAA@XZ 000000014004e6f0 f i SimpleDB.obj
 0002:0002d750       ??0?$tuple@AEBV?$basic_string@DU?$char_traits@D@std@@V?$allocator@D@2@@std@@@std@@QEAA@$$QEAV01@@Z 000000014004e750 f i SimpleDB.obj
 0002:0002d7e0       ??0?$vector@UClient@Persistence@TechnicalServices@@V?$allocator@UClient@Persistence@TechnicalServices@@@std@@@std@@QEAA@V?$initializer_list@UClient@Persistence@TechnicalServices@@@1@AEBV?$allocator@UClient@Persistence@TechnicalServices@@@1@@Z 000000014004e7e0 f i SimpleDB.obj
 0002:0002d9b0       ??0?$vector@UUserCredentials@Persistence@TechnicalServices@@V?$allocator@UUserCredentials@Persistence@TechnicalServices@@@std@@@std@@QEAA@V?$initializer_list@UUserCredentials@Persistence@TechnicalServices@@@1@AEBV?$allocator@UUserCredentials@Persistence@TechnicalServices@@@1@@Z 000000014004e9b0 f i SimpleDB.obj
 0002:0002db80       ??0?$vector@V?$basic_string@DU?$char_traits@D@std@@V?$allocator@D@2@@std@@V?$allocator@V?$basic_string@DU?$char_traits@D@std@@V?$allocator@D@2@@std@@@2@@std@@QEAA@V?$initializer_list@V?$basic_string@DU?$char_traits@D@std@@V?$allocator@D@2@@std@@@1@AEBV?$allocator@V?$basic_string@DU?$char_traits@D@std@@V?$allocator@D@2@@std@@@1@@Z 000000014004eb80 f i SimpleDB.obj
 0002:0002dd50       ??0NoSuchProperty@PersistenceHandler@Persistence@TechnicalServices@@QEAA@AEBU0123@@Z 000000014004ed50 f i SimpleDB.obj
 0002:0002ddd0       ??0NoSuchProperty@PersistenceHandler@Persistence@TechnicalServices@@QEAA@AEBV?$basic_string@DU?$char_traits@D@std@@V?$allocator@D@2@@std@@@Z 000000014004edd0 f i SimpleDB.obj
 0002:0002de50       ??0NoSuchUser@PersistenceHandler@Persistence@TechnicalServices@@QEAA@AEBU0123@@Z 000000014004ee50 f i SimpleDB.obj
 0002:0002ded0       ??0NoSuchUser@PersistenceHandler@Persistence@TechnicalServices@@QEAA@AEBV?$basic_string@DU?$char_traits@D@std@@V?$allocator@D@2@@std@@@Z 000000014004eed0 f i SimpleDB.obj
 0002:0002df50       ??0PersistenceException@PersistenceHandler@Persistence@TechnicalServices@@QEAA@AEBU0123@@Z 000000014004ef50 f i SimpleDB.obj
 0002:0002dfd0       ??0PersistenceException@PersistenceHandler@Persistence@TechnicalServices@@QEAA@AEBV?$basic_string@DU?$char_traits@D@std@@V?$allocator@D@2@@std@@@Z 000000014004efd0 f i SimpleDB.obj
 0002:0002e050       ??0PersistenceHandler@Persistence@TechnicalServices@@QEAA@XZ 000000014004f050 f i SimpleDB.obj
 0002:0002e0c0       ??0SimpleDB@Persistence@TechnicalServices@@QEAA@XZ 000000014004f0c0 f   SimpleDB.obj
 0002:0002e670       ??1?$_Alloc_construct_ptr@V?$allocator@U?$_Tree_node@U?$pair@$$CBV?$basic_string@DU?$char_traits@D@std@@V?$allocator@D@2@@std@@V12@@std@@PEAX@std@@@std@@@std@@QEAA@XZ 000000014004f670 f i SimpleDB.obj
 0002:0002e710       ??1?$_Tidy_guard@V?$vector@UUserCredentials@Persistence@TechnicalServices@@V?$allocator@UUserCredentials@Persistence@TechnicalServices@@@std@@@std@@@std@@QEAA@XZ 000000014004f710 f i SimpleDB.obj
 0002:0002e790       ??1?$_Tree@V?$_Tmap_traits@V?$basic_string@DU?$char_traits@D@std@@V?$allocator@D@2@@std@@V12@U?$less@V?$basic_string@DU?$char_traits@D@std@@V?$allocator@D@2@@std@@@2@V?$allocator@U?$pair@$$CBV?$basic_string@DU?$char_traits@D@std@@V?$allocator@D@2@@std@@V12@@std@@@2@$0A@@std@@@std@@QEAA@XZ 000000014004f790 f i SimpleDB.obj
 0002:0002e890       ??1?$_Tree_const_iterator@V?$_Tree_val@U?$_Tree_simple_types@U?$pair@$$CBV?$basic_string@DU?$char_traits@D@std@@V?$allocator@D@2@@std@@V12@@std@@@std@@@std@@@std@@QEAA@XZ 000000014004f890 f i SimpleDB.obj
 0002:0002e8e0       ??1?$_Tree_temp_node@V?$allocator@U?$_Tree_node@U?$pair@$$CBV?$basic_string@DU?$char_traits@D@std@@V?$allocator@D@2@@std@@V12@@std@@PEAX@std@@@std@@@std@@QEAA@XZ 000000014004f8e0 f i SimpleDB.obj
 0002:0002ea00       ??1?$_Tree_temp_node_alloc@V?$allocator@U?$_Tree_node@U?$pair@$$CBV?$basic_string@DU?$char_traits@D@std@@V?$allocator@D@2@@std@@V12@@std@@PEAX@std@@@std@@@std@@QEAA@XZ 000000014004fa00 f i SimpleDB.obj
 0002:0002ea50       ??1?$_Tree_unchecked_const_iterator@V?$_Tree_val@U?$_Tree_simple_types@U?$pair@$$CBV?$basic_string@DU?$char_traits@D@std@@V?$allocator@D@2@@std@@V12@@std@@@std@@@std@@U_Iterator_base12@2@@std@@QEAA@XZ 000000014004fa50 f i SimpleDB.obj
 0002:0002eaa0       ??1?$_Uninitialized_backout_al@V?$allocator@UUserCredentials@Persistence@TechnicalServices@@@std@@@std@@QEAA@XZ 000000014004faa0 f i SimpleDB.obj
 0002:0002eb20       ??1?$basic_filebuf@DU?$char_traits@D@std@@@std@@UEAA@XZ 000000014004fb20 f i SimpleDB.obj
 0002:0002ebe0       ??1?$basic_ifstream@DU?$char_traits@D@std@@@std@@UEAA@XZ 000000014004fbe0 f i SimpleDB.obj
 0002:0002ece0       ??1?$map@V?$basic_string@DU?$char_traits@D@std@@V?$allocator@D@2@@std@@V12@U?$less@V?$basic_string@DU?$char_traits@D@std@@V?$allocator@D@2@@std@@@2@V?$allocator@U?$pair@$$CBV?$basic_string@DU?$char_traits@D@std@@V?$allocator@D@2@@std@@V12@@std@@@2@@std@@QEAA@XZ 000000014004fce0 f i SimpleDB.obj
 0002:0002ed30       ??1?$pair@$$CBV?$basic_string@DU?$char_traits@D@std@@V?$allocator@D@2@@std@@V12@@std@@QEAA@XZ 000000014004fd30 f i SimpleDB.obj
 0002:0002eda0       ??1?$vector@UUserCredentials@Persistence@TechnicalServices@@V?$allocator@UUserCredentials@Persistence@TechnicalServices@@@std@@@std@@QEAA@XZ 000000014004fda0 f i SimpleDB.obj
 0002:0002eea0       ??1NoSuchProperty@PersistenceHandler@Persistence@TechnicalServices@@UEAA@XZ 000000014004fea0 f i SimpleDB.obj
 0002:0002eef0       ??1NoSuchUser@PersistenceHandler@Persistence@TechnicalServices@@UEAA@XZ 000000014004fef0 f i SimpleDB.obj
 0002:0002ef40       ??1PersistenceException@PersistenceHandler@Persistence@TechnicalServices@@UEAA@XZ 000000014004ff40 f i SimpleDB.obj
 0002:0002ef90       ??1SimpleDB@Persistence@TechnicalServices@@UEAA@XZ 000000014004ff90 f   SimpleDB.obj
 0002:0002f0d0       ??4?$map@V?$basic_string@DU?$char_traits@D@std@@V?$allocator@D@2@@std@@V12@U?$less@V?$basic_string@DU?$char_traits@D@std@@V?$allocator@D@2@@std@@@2@V?$allocator@U?$pair@$$CBV?$basic_string@DU?$char_traits@D@std@@V?$allocator@D@2@@std@@V12@@std@@@2@@std@@QEAAAEAV01@V?$initializer_list@U?$pair@$$CBV?$basic_string@DU?$char_traits@D@std@@V?$allocator@D@2@@std@@V12@@std@@@1@@Z 00000001400500d0 f i SimpleDB.obj
 0002:0002f230       ??8?$_Tree_const_iterator@V?$_Tree_val@U?$_Tree_simple_types@U?$pair@$$CBV?$basic_string@DU?$char_traits@D@std@@V?$allocator@D@2@@std@@V12@@std@@@std@@@std@@@std@@QEBA_NAEBV01@@Z 0000000140050230 f i SimpleDB.obj
 0002:0002f3a0       ??8?$_Tree_unchecked_const_iterator@V?$_Tree_val@U?$_Tree_simple_types@U?$pair@$$CBV?$basic_string@DU?$char_traits@D@std@@V?$allocator@D@2@@std@@V12@@std@@@std@@@std@@U_Iterator_base0@2@@std@@QEBA_NAEBV01@@Z 00000001400503a0 f i SimpleDB.obj
 0002:0002f440       ??9?$_Tree_const_iterator@V?$_Tree_val@U?$_Tree_simple_types@U?$pair@$$CBV?$basic_string@DU?$char_traits@D@std@@V?$allocator@D@2@@std@@V12@@std@@@std@@@std@@@std@@QEBA_NAEBV01@@Z 0000000140050440 f i SimpleDB.obj
 0002:0002f4e0       ??9?$_Tree_unchecked_const_iterator@V?$_Tree_val@U?$_Tree_simple_types@U?$pair@$$CBV?$basic_string@DU?$char_traits@D@std@@V?$allocator@D@2@@std@@V12@@std@@@std@@@std@@U_Iterator_base0@2@@std@@QEBA_NAEBV01@@Z 00000001400504e0 f i SimpleDB.obj
 0002:0002f580       ??A?$map@V?$basic_string@DU?$char_traits@D@std@@V?$allocator@D@2@@std@@V12@U?$less@V?$basic_string@DU?$char_traits@D@std@@V?$allocator@D@2@@std@@@2@V?$allocator@U?$pair@$$CBV?$basic_string@DU?$char_traits@D@std@@V?$allocator@D@2@@std@@V12@@std@@@2@@std@@QEAAAEAV?$basic_string@DU?$char_traits@D@std@@V?$allocator@D@2@@1@AEBV21@@Z 0000000140050580 f i SimpleDB.obj
 0002:0002f600       ??ASimpleDB@Persistence@TechnicalServices@@UEBAAEBV?$basic_string@DU?$char_traits@D@std@@V?$allocator@D@2@@std@@AEBV34@@Z 0000000140050600 f   SimpleDB.obj
 0002:0002f8f0       ??B?$fpos@U_Mbstatet@@@std@@QEBA_JXZ 00000001400508f0 f i SimpleDB.obj
 0002:0002f960       ??C?$_Tree_const_iterator@V?$_Tree_val@U?$_Tree_simple_types@U?$pair@$$CBV?$basic_string@DU?$char_traits@D@std@@V?$allocator@D@2@@std@@V12@@std@@@std@@@std@@@std@@QEBAPEBU?$pair@$$CBV?$basic_string@DU?$char_traits@D@std@@V?$allocator@D@2@@std@@V12@@1@XZ 0000000140050960 f i SimpleDB.obj
 0002:0002f9d0       ??D?$_Tree_const_iterator@V?$_Tree_val@U?$_Tree_simple_types@U?$pair@$$CBV?$basic_string@DU?$char_traits@D@std@@V?$allocator@D@2@@std@@V12@@std@@@std@@@std@@@std@@QEBAAEBU?$pair@$$CBV?$basic_string@DU?$char_traits@D@std@@V?$allocator@D@2@@std@@V12@@1@XZ 00000001400509d0 f i SimpleDB.obj
 0002:0002fb90       ??E?$_Tree_unchecked_const_iterator@V?$_Tree_val@U?$_Tree_simple_types@U?$pair@$$CBV?$basic_string@DU?$char_traits@D@std@@V?$allocator@D@2@@std@@V12@@std@@@std@@@std@@U_Iterator_base0@2@@std@@QEAA?AV01@H@Z 0000000140050b90 f i SimpleDB.obj
 0002:0002fc80       ??E?$_Tree_unchecked_const_iterator@V?$_Tree_val@U?$_Tree_simple_types@U?$pair@$$CBV?$basic_string@DU?$char_traits@D@std@@V?$allocator@D@2@@std@@V12@@std@@@std@@@std@@U_Iterator_base0@2@@std@@QEAAAEAV01@XZ 0000000140050c80 f i SimpleDB.obj
 0002:0002fd80       ??F?$_Tree_unchecked_const_iterator@V?$_Tree_val@U?$_Tree_simple_types@U?$pair@$$CBV?$basic_string@DU?$char_traits@D@std@@V?$allocator@D@2@@std@@V12@@std@@@std@@@std@@U_Iterator_base0@2@@std@@QEAAAEAV01@XZ 0000000140050d80 f i SimpleDB.obj
 0002:0002fed0       ??_D?$basic_ifstream@DU?$char_traits@D@std@@@std@@QEAAXXZ 0000000140050ed0 f i SimpleDB.obj
 0002:0002ff48       ??_E?$basic_ifstream@DU?$char_traits@D@std@@@std@@$4PPPPPPPM@A@EAAPEAXI@Z 0000000140050f48 f i SimpleDB.obj
 0002:0002ff60       ??_E?$basic_filebuf@DU?$char_traits@D@std@@@std@@UEAAPEAXI@Z 0000000140050f60 f i SimpleDB.obj
 0002:0002ff60       ??_G?$basic_filebuf@DU?$char_traits@D@std@@@std@@UEAAPEAXI@Z 0000000140050f60 f i SimpleDB.obj
 0002:0002fff0       ??_E?$basic_ifstream@DU?$char_traits@D@std@@@std@@UEAAPEAXI@Z 0000000140050ff0 f i SimpleDB.obj
 0002:0002fff0       ??_G?$basic_ifstream@DU?$char_traits@D@std@@@std@@UEAAPEAXI@Z 0000000140050ff0 f i SimpleDB.obj
 0002:000300a0       ??_G?$pair@$$CBV?$basic_string@DU?$char_traits@D@std@@V?$allocator@D@2@@std@@V12@@std@@QEAAPEAXI@Z 00000001400510a0 f i SimpleDB.obj
 0002:00030130       ??_ENoSuchProperty@PersistenceHandler@Persistence@TechnicalServices@@UEAAPEAXI@Z 0000000140051130 f i SimpleDB.obj
 0002:00030130       ??_GNoSuchProperty@PersistenceHandler@Persistence@TechnicalServices@@UEAAPEAXI@Z 0000000140051130 f i SimpleDB.obj
 0002:000301c0       ??_ENoSuchUser@PersistenceHandler@Persistence@TechnicalServices@@UEAAPEAXI@Z 00000001400511c0 f i SimpleDB.obj
 0002:000301c0       ??_GNoSuchUser@PersistenceHandler@Persistence@TechnicalServices@@UEAAPEAXI@Z 00000001400511c0 f i SimpleDB.obj
 0002:00030250       ??_GPersistenceException@PersistenceHandler@Persistence@TechnicalServices@@UEAAPEAXI@Z 0000000140051250 f i SimpleDB.obj
 0002:00030250       ??_EPersistenceException@PersistenceHandler@Persistence@TechnicalServices@@UEAAPEAXI@Z 0000000140051250 f i SimpleDB.obj
 0002:000302e0       ??_ESimpleDB@Persistence@TechnicalServices@@UEAAPEAXI@Z 00000001400512e0 f i SimpleDB.obj
 0002:000302e0       ??_GSimpleDB@Persistence@TechnicalServices@@UEAAPEAXI@Z 00000001400512e0 f i SimpleDB.obj
 0002:00030370       ??_GUserCredentials@Persistence@TechnicalServices@@QEAAPEAXI@Z 0000000140051370 f i SimpleDB.obj
 0002:00030400       ?ShowAllClients@SimpleDB@Persistence@TechnicalServices@@UEAA?AV?$vector@UClient@Persistence@TechnicalServices@@V?$allocator@UClient@Persistence@TechnicalServices@@@std@@@std@@XZ 0000000140051400 f   SimpleDB.obj
 0002:00030590       ?_Alloc_sentinel_and_proxy@?$_Tree@V?$_Tmap_traits@V?$basic_string@DU?$char_traits@D@std@@V?$allocator@D@2@@std@@V12@U?$less@V?$basic_string@DU?$char_traits@D@std@@V?$allocator@D@2@@std@@@2@V?$allocator@U?$pair@$$CBV?$basic_string@DU?$char_traits@D@std@@V?$allocator@D@2@@std@@V12@@std@@@2@$0A@@std@@@std@@IEAAXXZ 0000000140051590 f i SimpleDB.obj
 0002:000306b0       ?_Allocate@?$_Alloc_construct_ptr@V?$allocator@U?$_Tree_node@U?$pair@$$CBV?$basic_string@DU?$char_traits@D@std@@V?$allocator@D@2@@std@@V12@@std@@PEAX@std@@@std@@@std@@QEAAXXZ 00000001400516b0 f i SimpleDB.obj
 0002:00030750       ?_Buy_nonzero@?$vector@UClient@Persistence@TechnicalServices@@V?$allocator@UClient@Persistence@TechnicalServices@@@std@@@std@@AEAAX_K@Z 0000000140051750 f i SimpleDB.obj
 0002:000307e0       ?_Buy_nonzero@?$vector@UUserCredentials@Persistence@TechnicalServices@@V?$allocator@UUserCredentials@Persistence@TechnicalServices@@@std@@@std@@AEAAX_K@Z 00000001400517e0 f i SimpleDB.obj
 0002:00030870       ?_Buy_nonzero@?$vector@V?$basic_string@DU?$char_traits@D@std@@V?$allocator@D@2@@std@@V?$allocator@V?$basic_string@DU?$char_traits@D@std@@V?$allocator@D@2@@std@@@2@@std@@AEAAX_K@Z 0000000140051870 f i SimpleDB.obj
 0002:00030900       ?_Buy_raw@?$vector@UUserCredentials@Persistence@TechnicalServices@@V?$allocator@UUserCredentials@Persistence@TechnicalServices@@@std@@@std@@AEAAX_K@Z 0000000140051900 f i SimpleDB.obj
 0002:00030a10       ?_Check_grow_by_1@?$_Tree@V?$_Tmap_traits@V?$basic_string@DU?$char_traits@D@std@@V?$allocator@D@2@@std@@V12@U?$less@V?$basic_string@DU?$char_traits@D@std@@V?$allocator@D@2@@std@@@2@V?$allocator@U?$pair@$$CBV?$basic_string@DU?$char_traits@D@std@@V?$allocator@D@2@@std@@V12@@std@@@2@$0A@@std@@@std@@IEAAXXZ 0000000140051a10 f i SimpleDB.obj
 0002:00030aa0       ?_Clamp_suffix_size@?$_String_val@U?$_Simple_types@D@std@@@std@@QEBA_K_K0@Z 0000000140051aa0 f i SimpleDB.obj
 0002:00030b40       ?_Destroy@?$vector@UUserCredentials@Persistence@TechnicalServices@@V?$allocator@UUserCredentials@Persistence@TechnicalServices@@@std@@@std@@AEAAXPEAUUserCredentials@Persistence@TechnicalServices@@0@Z 0000000140051b40 f i SimpleDB.obj
 0002:00030bd0       ?_Endwrite@?$basic_filebuf@DU?$char_traits@D@std@@@std@@IEAA_NXZ 0000000140051bd0 f i SimpleDB.obj
 0002:00030e60       ?_Eos@?$basic_string@DU?$char_traits@D@std@@V?$allocator@D@2@@std@@AEAAX_K@Z 0000000140051e60 f i SimpleDB.obj
 0002:00030f30       ?_Erase_unchecked@?$_Tree@V?$_Tmap_traits@V?$basic_string@DU?$char_traits@D@std@@V?$allocator@D@2@@std@@V12@U?$less@V?$basic_string@DU?$char_traits@D@std@@V?$allocator@D@2@@std@@@2@V?$allocator@U?$pair@$$CBV?$basic_string@DU?$char_traits@D@std@@V?$allocator@D@2@@std@@V12@@std@@@2@$0A@@std@@@std@@AEAAPEAU?$_Tree_node@U?$pair@$$CBV?$basic_string@DU?$char_traits@D@std@@V?$allocator@D@2@@std@@V12@@std@@PEAX@2@V?$_Tree_unchecked_const_iterator@V?$_Tree_val@U?$_Tree_simple_types@U?$pair@$$CBV?$basic_string@DU?$char_traits@D@std@@V?$allocator@D@2@@std@@V12@@std@@@std@@@std@@U_Iterator_base0@2@@2@0@Z 0000000140051f30 f i SimpleDB.obj
 0002:000310a0       ?_Erase_unchecked@?$_Tree@V?$_Tmap_traits@V?$basic_string@DU?$char_traits@D@std@@V?$allocator@D@2@@std@@V12@U?$less@V?$basic_string@DU?$char_traits@D@std@@V?$allocator@D@2@@std@@@2@V?$allocator@U?$pair@$$CBV?$basic_string@DU?$char_traits@D@std@@V?$allocator@D@2@@std@@V12@@std@@@2@$0A@@std@@@std@@AEAAPEAU?$_Tree_node@U?$pair@$$CBV?$basic_string@DU?$char_traits@D@std@@V?$allocator@D@2@@std@@V12@@std@@PEAX@2@V?$_Tree_unchecked_const_iterator@V?$_Tree_val@U?$_Tree_simple_types@U?$pair@$$CBV?$basic_string@DU?$char_traits@D@std@@V?$allocator@D@2@@std@@V12@@std@@@std@@@std@@U_Iterator_base0@2@@2@@Z 00000001400520a0 f i SimpleDB.obj
 0002:000311d0       ?_Extract@?$_In_place_key_extract_map@V?$basic_string@DU?$char_traits@D@std@@V?$allocator@D@2@@std@@U?$pair@$$CBV?$basic_string@DU?$char_traits@D@std@@V?$allocator@D@2@@std@@V12@@2@@std@@SAAEBV?$basic_string@DU?$char_traits@D@std@@V?$allocator@D@2@@2@AEBU?$pair@$$CBV?$basic_string@DU?$char_traits@D@std@@V?$allocator@D@2@@std@@V12@@2@@Z 00000001400521d0 f i SimpleDB.obj
 0002:00031230       ?_Extract@?$_Tree_val@U?$_Tree_simple_types@U?$pair@$$CBV?$basic_string@DU?$char_traits@D@std@@V?$allocator@D@2@@std@@V12@@std@@@std@@@std@@QEAAPEAU?$_Tree_node@U?$pair@$$CBV?$basic_string@DU?$char_traits@D@std@@V?$allocator@D@2@@std@@V12@@std@@PEAX@2@V?$_Tree_unchecked_const_iterator@V?$_Tree_val@U?$_Tree_simple_types@U?$pair@$$CBV?$basic_string@DU?$char_traits@D@std@@V?$allocator@D@2@@std@@V12@@std@@@std@@@std@@U_Iterator_base0@2@@2@@Z 0000000140052230 f i SimpleDB.obj
 0002:00031920       ?_Get_first@?$_Compressed_pair@U?$less@V?$basic_string@DU?$char_traits@D@std@@V?$allocator@D@2@@std@@@std@@V?$_Compressed_pair@V?$allocator@U?$_Tree_node@U?$pair@$$CBV?$basic_string@DU?$char_traits@D@std@@V?$allocator@D@2@@std@@V12@@std@@PEAX@std@@@std@@V?$_Tree_val@U?$_Tree_simple_types@U?$pair@$$CBV?$basic_string@DU?$char_traits@D@std@@V?$allocator@D@2@@std@@V12@@std@@@std@@@2@$00@2@$00@std@@QEBAAEBU?$less@V?$basic_string@DU?$char_traits@D@std@@V?$allocator@D@2@@std@@@2@XZ 0000000140052920 f i SimpleDB.obj
 0002:00031980       ?_Get_first@?$_Compressed_pair@V?$allocator@U?$_Tree_node@U?$pair@$$CBV?$basic_string@DU?$char_traits@D@std@@V?$allocator@D@2@@std@@V12@@std@@PEAX@std@@@std@@V?$_Tree_val@U?$_Tree_simple_types@U?$pair@$$CBV?$basic_string@DU?$char_traits@D@std@@V?$allocator@D@2@@std@@V12@@std@@@std@@@2@$00@std@@QEAAAEAV?$allocator@U?$_Tree_node@U?$pair@$$CBV?$basic_string@DU?$char_traits@D@std@@V?$allocator@D@2@@std@@V12@@std@@PEAX@std@@@2@XZ 0000000140052980 f i SimpleDB.obj
 0002:000319e0       ?_Get_first@?$_Compressed_pair@V?$allocator@U?$_Tree_node@U?$pair@$$CBV?$basic_string@DU?$char_traits@D@std@@V?$allocator@D@2@@std@@V12@@std@@PEAX@std@@@std@@V?$_Tree_val@U?$_Tree_simple_types@U?$pair@$$CBV?$basic_string@DU?$char_traits@D@std@@V?$allocator@D@2@@std@@V12@@std@@@std@@@2@$00@std@@QEBAAEBV?$allocator@U?$_Tree_node@U?$pair@$$CBV?$basic_string@DU?$char_traits@D@std@@V?$allocator@D@2@@std@@V12@@std@@PEAX@std@@@2@XZ 00000001400529e0 f i SimpleDB.obj
 0002:00031a40       ?_Get_first@?$_Compressed_pair@V?$allocator@UUserCredentials@Persistence@TechnicalServices@@@std@@V?$_Vector_val@U?$_Simple_types@UUserCredentials@Persistence@TechnicalServices@@@std@@@2@$00@std@@QEAAAEAV?$allocator@UUserCredentials@Persistence@TechnicalServices@@@2@XZ 0000000140052a40 f i SimpleDB.obj
 0002:00031aa0       ?_Get_first@?$_Compressed_pair@V?$allocator@UUserCredentials@Persistence@TechnicalServices@@@std@@V?$_Vector_val@U?$_Simple_types@UUserCredentials@Persistence@TechnicalServices@@@std@@@2@$00@std@@QEBAAEBV?$allocator@UUserCredentials@Persistence@TechnicalServices@@@2@XZ 0000000140052aa0 f i SimpleDB.obj
 0002:00031b00       ?_Get_scary@?$_Tree@V?$_Tmap_traits@V?$basic_string@DU?$char_traits@D@std@@V?$allocator@D@2@@std@@V12@U?$less@V?$basic_string@DU?$char_traits@D@std@@V?$allocator@D@2@@std@@@2@V?$allocator@U?$pair@$$CBV?$basic_string@DU?$char_traits@D@std@@V?$allocator@D@2@@std@@V12@@std@@@2@$0A@@std@@@std@@IEAAPEAV?$_Tree_val@U?$_Tree_simple_types@U?$pair@$$CBV?$basic_string@DU?$char_traits@D@std@@V?$allocator@D@2@@std@@V12@@std@@@std@@@2@XZ 0000000140052b00 f i SimpleDB.obj
 0002:00031b70       ?_Get_scary@?$_Tree@V?$_Tmap_traits@V?$basic_string@DU?$char_traits@D@std@@V?$allocator@D@2@@std@@V12@U?$less@V?$basic_string@DU?$char_traits@D@std@@V?$allocator@D@2@@std@@@2@V?$allocator@U?$pair@$$CBV?$basic_string@DU?$char_traits@D@std@@V?$allocator@D@2@@std@@V12@@std@@@2@$0A@@std@@@std@@IEBAPEBV?$_Tree_val@U?$_Tree_simple_types@U?$pair@$$CBV?$basic_string@DU?$char_traits@D@std@@V?$allocator@D@2@@std@@V12@@std@@@std@@@2@XZ 0000000140052b70 f i SimpleDB.obj
 0002:00031be0       ?_Getal@?$_Tree@V?$_Tmap_traits@V?$basic_string@DU?$char_traits@D@std@@V?$allocator@D@2@@std@@V12@U?$less@V?$basic_string@DU?$char_traits@D@std@@V?$allocator@D@2@@std@@@2@V?$allocator@U?$pair@$$CBV?$basic_string@DU?$char_traits@D@std@@V?$allocator@D@2@@std@@V12@@std@@@2@$0A@@std@@@std@@IEAAAEAV?$allocator@U?$_Tree_node@U?$pair@$$CBV?$basic_string@DU?$char_traits@D@std@@V?$allocator@D@2@@std@@V12@@std@@PEAX@std@@@2@XZ 0000000140052be0 f i SimpleDB.obj
 0002:00031c50       ?_Getal@?$_Tree@V?$_Tmap_traits@V?$basic_string@DU?$char_traits@D@std@@V?$allocator@D@2@@std@@V12@U?$less@V?$basic_string@DU?$char_traits@D@std@@V?$allocator@D@2@@std@@@2@V?$allocator@U?$pair@$$CBV?$basic_string@DU?$char_traits@D@std@@V?$allocator@D@2@@std@@V12@@std@@@2@$0A@@std@@@std@@IEBAAEBV?$allocator@U?$_Tree_node@U?$pair@$$CBV?$basic_string@DU?$char_traits@D@std@@V?$allocator@D@2@@std@@V12@@std@@PEAX@std@@@2@XZ 0000000140052c50 f i SimpleDB.obj
 0002:00031cc0       ?_Getal@?$vector@UUserCredentials@Persistence@TechnicalServices@@V?$allocator@UUserCredentials@Persistence@TechnicalServices@@@std@@@std@@AEAAAEAV?$allocator@UUserCredentials@Persistence@TechnicalServices@@@2@XZ 0000000140052cc0 f i SimpleDB.obj
 0002:00031d30       ?_Getal@?$vector@UUserCredentials@Persistence@TechnicalServices@@V?$allocator@UUserCredentials@Persistence@TechnicalServices@@@std@@@std@@AEBAAEBV?$allocator@UUserCredentials@Persistence@TechnicalServices@@@2@XZ 0000000140052d30 f i SimpleDB.obj
 0002:00031da0       ?_Getcomp@?$_Tree@V?$_Tmap_traits@V?$basic_string@DU?$char_traits@D@std@@V?$allocator@D@2@@std@@V12@U?$less@V?$basic_string@DU?$char_traits@D@std@@V?$allocator@D@2@@std@@@2@V?$allocator@U?$pair@$$CBV?$basic_string@DU?$char_traits@D@std@@V?$allocator@D@2@@std@@V12@@std@@@2@$0A@@std@@@std@@IEBAAEBU?$less@V?$basic_string@DU?$char_traits@D@std@@V?$allocator@D@2@@std@@@2@XZ 0000000140052da0 f i SimpleDB.obj
 0002:00031e10       ?_Init@?$basic_filebuf@DU?$char_traits@D@std@@@std@@IEAAXPEAU_iobuf@@W4_Initfl@12@@Z 0000000140052e10 f i SimpleDB.obj
 0002:00031ff0       ?_Initcvt@?$basic_filebuf@DU?$char_traits@D@std@@@std@@IEAAXAEBV?$codecvt@DDU_Mbstatet@@@2@@Z 0000000140052ff0 f i SimpleDB.obj
 0002:000320b0       ?_Insert_node@?$_Tree_val@U?$_Tree_simple_types@U?$pair@$$CBV?$basic_string@DU?$char_traits@D@std@@V?$allocator@D@2@@std@@V12@@std@@@std@@@std@@QEAAPEAU?$_Tree_node@U?$pair@$$CBV?$basic_string@DU?$char_traits@D@std@@V?$allocator@D@2@@std@@V12@@std@@PEAX@2@U?$_Tree_id@PEAU?$_Tree_node@U?$pair@$$CBV?$basic_string@DU?$char_traits@D@std@@V?$allocator@D@2@@std@@V12@@std@@PEAX@std@@@2@QEAU32@@Z 00000001400530b0 f i SimpleDB.obj
 0002:000324a0       ?_Lock@?$basic_filebuf@DU?$char_traits@D@std@@@std@@UEAAXXZ 00000001400534a0 f i SimpleDB.obj
 0002:00032520       ?_Lrotate@?$_Tree_val@U?$_Tree_simple_types@U?$pair@$$CBV?$basic_string@DU?$char_traits@D@std@@V?$allocator@D@2@@std@@V12@@std@@@std@@@std@@QEAAXPEAU?$_Tree_node@U?$pair@$$CBV?$basic_string@DU?$char_traits@D@std@@V?$allocator@D@2@@std@@V12@@std@@PEAX@2@@Z 0000000140053520 f i SimpleDB.obj
 0002:00032690       ?_Max@?$_Tree_val@U?$_Tree_simple_types@U?$pair@$$CBV?$basic_string@DU?$char_traits@D@std@@V?$allocator@D@2@@std@@V12@@std@@@std@@@std@@SAPEAU?$_Tree_node@U?$pair@$$CBV?$basic_string@DU?$char_traits@D@std@@V?$allocator@D@2@@std@@V12@@std@@PEAX@2@PEAU32@@Z 0000000140053690 f i SimpleDB.obj
 0002:00032720       ?_Min@?$_Tree_val@U?$_Tree_simple_types@U?$pair@$$CBV?$basic_string@DU?$char_traits@D@std@@V?$allocator@D@2@@std@@V12@@std@@@std@@@std@@SAPEAU?$_Tree_node@U?$pair@$$CBV?$basic_string@DU?$char_traits@D@std@@V?$allocator@D@2@@std@@V12@@std@@PEAX@2@PEAU32@@Z 0000000140053720 f i SimpleDB.obj
 0002:000327b0       ?_Orphan_ptr@?$_Tree_val@U?$_Tree_simple_types@U?$pair@$$CBV?$basic_string@DU?$char_traits@D@std@@V?$allocator@D@2@@std@@V12@@std@@@std@@@std@@QEAAXQEAU?$_Tree_node@U?$pair@$$CBV?$basic_string@DU?$char_traits@D@std@@V?$allocator@D@2@@std@@V12@@std@@PEAX@2@@Z 00000001400537b0 f i SimpleDB.obj
 0002:00032910       ?_Release@?$_Alloc_construct_ptr@V?$allocator@U?$_Tree_node@U?$pair@$$CBV?$basic_string@DU?$char_traits@D@std@@V?$allocator@D@2@@std@@V12@@std@@PEAX@std@@@std@@@std@@QEAAPEAU?$_Tree_node@U?$pair@$$CBV?$basic_string@DU?$char_traits@D@std@@V?$allocator@D@2@@std@@V12@@std@@PEAX@2@XZ 0000000140053910 f i SimpleDB.obj
 0002:00032990       ?_Release@?$_Uninitialized_backout_al@V?$allocator@UUserCredentials@Persistence@TechnicalServices@@@std@@@std@@QEAAPEAUUserCredentials@Persistence@TechnicalServices@@XZ 0000000140053990 f i SimpleDB.obj
 0002:00032a10       ?_Reset_back@?$basic_filebuf@DU?$char_traits@D@std@@@std@@AEAAXXZ 0000000140053a10 f i SimpleDB.obj
 0002:00032ad0       ?_Rrotate@?$_Tree_val@U?$_Tree_simple_types@U?$pair@$$CBV?$basic_string@DU?$char_traits@D@std@@V?$allocator@D@2@@std@@V12@@std@@@std@@@std@@QEAAXPEAU?$_Tree_node@U?$pair@$$CBV?$basic_string@DU?$char_traits@D@std@@V?$allocator@D@2@@std@@V12@@std@@PEAX@2@@Z 0000000140053ad0 f i SimpleDB.obj
 0002:00032c40       ?_Set_back@?$basic_filebuf@DU?$char_traits@D@std@@@std@@AEAAXXZ 0000000140053c40 f i SimpleDB.obj
 0002:00032d40       ?_Tidy@?$vector@UUserCredentials@Persistence@TechnicalServices@@V?$allocator@UUserCredentials@Persistence@TechnicalServices@@@std@@@std@@AEAAXXZ 0000000140053d40 f i SimpleDB.obj
 0002:00032eb0       ?_Unchecked_begin@?$_Tree@V?$_Tmap_traits@V?$basic_string@DU?$char_traits@D@std@@V?$allocator@D@2@@std@@V12@U?$less@V?$basic_string@DU?$char_traits@D@std@@V?$allocator@D@2@@std@@@2@V?$allocator@U?$pair@$$CBV?$basic_string@DU?$char_traits@D@std@@V?$allocator@D@2@@std@@V12@@std@@@2@$0A@@std@@@std@@QEAA?AV?$_Tree_unchecked_iterator@V?$_Tree_val@U?$_Tree_simple_types@U?$pair@$$CBV?$basic_string@DU?$char_traits@D@std@@V?$allocator@D@2@@std@@V12@@std@@@std@@@std@@@2@XZ 0000000140053eb0 f i SimpleDB.obj
 0002:00032f40       ?_Unchecked_begin@?$vector@UUserCredentials@Persistence@TechnicalServices@@V?$allocator@UUserCredentials@Persistence@TechnicalServices@@@std@@@std@@QEAAPEAUUserCredentials@Persistence@TechnicalServices@@XZ 0000000140053f40 f i SimpleDB.obj
 0002:00032fa0       ?_Unchecked_end@?$vector@UUserCredentials@Persistence@TechnicalServices@@V?$allocator@UUserCredentials@Persistence@TechnicalServices@@@std@@@std@@QEAAPEAUUserCredentials@Persistence@TechnicalServices@@XZ 0000000140053fa0 f i SimpleDB.obj
 0002:00033000       ?_Unlock@?$basic_filebuf@DU?$char_traits@D@std@@@std@@UEAAXXZ 0000000140054000 f i SimpleDB.obj
 0002:00033080       ?_Xlength@?$vector@UUserCredentials@Persistence@TechnicalServices@@V?$allocator@UUserCredentials@Persistence@TechnicalServices@@@std@@@std@@CAXXZ 0000000140054080 f i SimpleDB.obj
 0002:000330d0       ?__autoclassinit2@?$_Tree_const_iterator@V?$_Tree_val@U?$_Tree_simple_types@U?$pair@$$CBV?$basic_string@DU?$char_traits@D@std@@V?$allocator@D@2@@std@@V12@@std@@@std@@@std@@@std@@QEAAX_K@Z 00000001400540d0 f i SimpleDB.obj
 0002:00033130       ?__autoclassinit2@?$_Tree_unchecked_const_iterator@V?$_Tree_val@U?$_Tree_simple_types@U?$pair@$$CBV?$basic_string@DU?$char_traits@D@std@@V?$allocator@D@2@@std@@V12@@std@@@std@@@std@@U_Iterator_base0@2@@std@@QEAAX_K@Z 0000000140054130 f i SimpleDB.obj
 0002:00033190       ?__autoclassinit2@?$_Tree_unchecked_iterator@V?$_Tree_val@U?$_Tree_simple_types@U?$pair@$$CBV?$basic_string@DU?$char_traits@D@std@@V?$allocator@D@2@@std@@V12@@std@@@std@@@std@@@std@@QEAAX_K@Z 0000000140054190 f i SimpleDB.obj
 0002:000331f0       ?__autoclassinit2@?$_Uninitialized_backout_al@V?$allocator@UUserCredentials@Persistence@TechnicalServices@@@std@@@std@@QEAAX_K@Z 00000001400541f0 f i SimpleDB.obj
 0002:00033250       ?__autoclassinit2@?$basic_ifstream@DU?$char_traits@D@std@@@std@@QEAAX_K@Z 0000000140054250 f i SimpleDB.obj
 0002:000332b0       ?__autoclassinit2@?$vector@UUserCredentials@Persistence@TechnicalServices@@V?$allocator@UUserCredentials@Persistence@TechnicalServices@@@std@@@std@@QEAAX_K@Z 00000001400542b0 f i SimpleDB.obj
 0002:00033310       ?allocate@?$allocator@U?$_Tree_node@U?$pair@$$CBV?$basic_string@DU?$char_traits@D@std@@V?$allocator@D@2@@std@@V12@@std@@PEAX@std@@@std@@QEAAPEAU?$_Tree_node@U?$pair@$$CBV?$basic_string@DU?$char_traits@D@std@@V?$allocator@D@2@@std@@V12@@std@@PEAX@2@_K@Z 0000000140054310 f i SimpleDB.obj
 0002:00033380       ?allocate@?$allocator@UUserCredentials@Persistence@TechnicalServices@@@std@@QEAAPEAUUserCredentials@Persistence@TechnicalServices@@_K@Z 0000000140054380 f i SimpleDB.obj
 0002:000333f0       ?begin@?$initializer_list@U?$pair@$$CBV?$basic_string@DU?$char_traits@D@std@@V?$allocator@D@2@@std@@V12@@std@@@std@@QEBAPEBU?$pair@$$CBV?$basic_string@DU?$char_traits@D@std@@V?$allocator@D@2@@std@@V12@@2@XZ 00000001400543f0 f i SimpleDB.obj
 0002:00033450       ?begin@?$initializer_list@UClient@Persistence@TechnicalServices@@@std@@QEBAPEBUClient@Persistence@TechnicalServices@@XZ 0000000140054450 f i SimpleDB.obj
 0002:000334b0       ?begin@?$initializer_list@UUserCredentials@Persistence@TechnicalServices@@@std@@QEBAPEBUUserCredentials@Persistence@TechnicalServices@@XZ 00000001400544b0 f i SimpleDB.obj
 0002:00033510       ?begin@?$initializer_list@V?$basic_string@DU?$char_traits@D@std@@V?$allocator@D@2@@std@@@std@@QEBAPEBV?$basic_string@DU?$char_traits@D@std@@V?$allocator@D@2@@2@XZ 0000000140054510 f i SimpleDB.obj
 0002:00033570       ?cend@?$_Tree@V?$_Tmap_traits@V?$basic_string@DU?$char_traits@D@std@@V?$allocator@D@2@@std@@V12@U?$less@V?$basic_string@DU?$char_traits@D@std@@V?$allocator@D@2@@std@@@2@V?$allocator@U?$pair@$$CBV?$basic_string@DU?$char_traits@D@std@@V?$allocator@D@2@@std@@V12@@std@@@2@$0A@@std@@@std@@QEBA?AV?$_Tree_const_iterator@V?$_Tree_val@U?$_Tree_simple_types@U?$pair@$$CBV?$basic_string@DU?$char_traits@D@std@@V?$allocator@D@2@@std@@V12@@std@@@std@@@std@@@2@XZ 0000000140054570 f i SimpleDB.obj
 0002:000335f0       ?clear@?$_Tree@V?$_Tmap_traits@V?$basic_string@DU?$char_traits@D@std@@V?$allocator@D@2@@std@@V12@U?$less@V?$basic_string@DU?$char_traits@D@std@@V?$allocator@D@2@@std@@@2@V?$allocator@U?$pair@$$CBV?$basic_string@DU?$char_traits@D@std@@V?$allocator@D@2@@std@@V12@@std@@@2@$0A@@std@@@std@@QEAAXXZ 00000001400545f0 f i SimpleDB.obj
 0002:00033700       ?clear@?$basic_string@DU?$char_traits@D@std@@V?$allocator@D@2@@std@@QEAAXXZ 0000000140054700 f i SimpleDB.obj
 0002:00033770       ?close@?$basic_filebuf@DU?$char_traits@D@std@@@std@@QEAAPEAV12@XZ 0000000140054770 f i SimpleDB.obj
 0002:00033860       ?data@?$basic_string@DU?$char_traits@D@std@@V?$allocator@D@2@@std@@QEAAPEADXZ 0000000140054860 f i SimpleDB.obj
 0002:000338d0       ?deallocate@?$_Default_allocator_traits@V?$allocator@U?$_Tree_node@U?$pair@$$CBV?$basic_string@DU?$char_traits@D@std@@V?$allocator@D@2@@std@@V12@@std@@PEAX@std@@@std@@@std@@SAXAEAV?$allocator@U?$_Tree_node@U?$pair@$$CBV?$basic_string@DU?$char_traits@D@std@@V?$allocator@D@2@@std@@V12@@std@@PEAX@std@@@2@QEAU?$_Tree_node@U?$pair@$$CBV?$basic_string@DU?$char_traits@D@std@@V?$allocator@D@2@@std@@V12@@std@@PEAX@2@_K@Z 00000001400548d0 f i SimpleDB.obj
 0002:00033950       ?deallocate@?$allocator@U?$_Tree_node@U?$pair@$$CBV?$basic_string@DU?$char_traits@D@std@@V?$allocator@D@2@@std@@V12@@std@@PEAX@std@@@std@@QEAAXQEAU?$_Tree_node@U?$pair@$$CBV?$basic_string@DU?$char_traits@D@std@@V?$allocator@D@2@@std@@V12@@std@@PEAX@2@_K@Z 0000000140054950 f i SimpleDB.obj
 0002:000339d0       ?deallocate@?$allocator@UUserCredentials@Persistence@TechnicalServices@@@std@@QEAAXQEAUUserCredentials@Persistence@TechnicalServices@@_K@Z 00000001400549d0 f i SimpleDB.obj
 0002:00033a50       ?end@?$_Tree@V?$_Tmap_traits@V?$basic_string@DU?$char_traits@D@std@@V?$allocator@D@2@@std@@V12@U?$less@V?$basic_string@DU?$char_traits@D@std@@V?$allocator@D@2@@std@@@2@V?$allocator@U?$pair@$$CBV?$basic_string@DU?$char_traits@D@std@@V?$allocator@D@2@@std@@V12@@std@@@2@$0A@@std@@@std@@QEBA?AV?$_Tree_const_iterator@V?$_Tree_val@U?$_Tree_simple_types@U?$pair@$$CBV?$basic_string@DU?$char_traits@D@std@@V?$allocator@D@2@@std@@V12@@std@@@std@@@std@@@2@XZ 0000000140054a50 f i SimpleDB.obj
 0002:00033af0       ?end@?$initializer_list@U?$pair@$$CBV?$basic_string@DU?$char_traits@D@std@@V?$allocator@D@2@@std@@V12@@std@@@std@@QEBAPEBU?$pair@$$CBV?$basic_string@DU?$char_traits@D@std@@V?$allocator@D@2@@std@@V12@@2@XZ 0000000140054af0 f i SimpleDB.obj
 0002:00033b50       ?end@?$initializer_list@UClient@Persistence@TechnicalServices@@@std@@QEBAPEBUClient@Persistence@TechnicalServices@@XZ 0000000140054b50 f i SimpleDB.obj
 0002:00033bb0       ?end@?$initializer_list@UUserCredentials@Persistence@TechnicalServices@@@std@@QEBAPEBUUserCredentials@Persistence@TechnicalServices@@XZ 0000000140054bb0 f i SimpleDB.obj
 0002:00033c10       ?end@?$initializer_list@V?$basic_string@DU?$char_traits@D@std@@V?$allocator@D@2@@std@@@std@@QEBAPEBV?$basic_string@DU?$char_traits@D@std@@V?$allocator@D@2@@2@XZ 0000000140054c10 f i SimpleDB.obj
 0002:00033c70       ?erase@?$_Tree@V?$_Tmap_traits@V?$basic_string@DU?$char_traits@D@std@@V?$allocator@D@2@@std@@V12@U?$less@V?$basic_string@DU?$char_traits@D@std@@V?$allocator@D@2@@std@@@2@V?$allocator@U?$pair@$$CBV?$basic_string@DU?$char_traits@D@std@@V?$allocator@D@2@@std@@V12@@std@@@2@$0A@@std@@@std@@QEAA_KAEBV?$basic_string@DU?$char_traits@D@std@@V?$allocator@D@2@@2@@Z 0000000140054c70 f i SimpleDB.obj
 0002:00033db0       ?erase@?$basic_string@DU?$char_traits@D@std@@V?$allocator@D@2@@std@@QEAAAEAV12@_K@Z 0000000140054db0 f i SimpleDB.obj
 0002:00033e50       ?erase@?$basic_string@DU?$char_traits@D@std@@V?$allocator@D@2@@std@@QEAAAEAV12@_K_K@Z 0000000140054e50 f i SimpleDB.obj
 0002:00033fd0       ?find@?$_Tree@V?$_Tmap_traits@V?$basic_string@DU?$char_traits@D@std@@V?$allocator@D@2@@std@@V12@U?$less@V?$basic_string@DU?$char_traits@D@std@@V?$allocator@D@2@@std@@@2@V?$allocator@U?$pair@$$CBV?$basic_string@DU?$char_traits@D@std@@V?$allocator@D@2@@std@@V12@@std@@@2@$0A@@std@@@std@@QEBA?AV?$_Tree_const_iterator@V?$_Tree_val@U?$_Tree_simple_types@U?$pair@$$CBV?$basic_string@DU?$char_traits@D@std@@V?$allocator@D@2@@std@@V12@@std@@@std@@@std@@@2@AEBV?$basic_string@DU?$char_traits@D@std@@V?$allocator@D@2@@2@@Z 0000000140054fd0 f i SimpleDB.obj
 0002:000340b0       ?findCredentialsByName@SimpleDB@Persistence@TechnicalServices@@UEAA?AUUserCredentials@23@AEBV?$basic_string@DU?$char_traits@D@std@@V?$allocator@D@2@@std@@@Z 00000001400550b0 f   SimpleDB.obj
 0002:000346c0       ?findRoles@SimpleDB@Persistence@TechnicalServices@@UEAA?AV?$vector@V?$basic_string@DU?$char_traits@D@std@@V?$allocator@D@2@@std@@V?$allocator@V?$basic_string@DU?$char_traits@D@std@@V?$allocator@D@2@@std@@@2@@std@@XZ 00000001400556c0 f   SimpleDB.obj
 0002:00034880       ?front@?$basic_string@DU?$char_traits@D@std@@V?$allocator@D@2@@std@@QEAAAEADXZ 0000000140055880 f i SimpleDB.obj
 0002:000349a0       ?imbue@?$basic_filebuf@DU?$char_traits@D@std@@@std@@MEAAXAEBVlocale@2@@Z 00000001400559a0 f i SimpleDB.obj
 0002:00034a20       ?insert@?$_Tree@V?$_Tmap_traits@V?$basic_string@DU?$char_traits@D@std@@V?$allocator@D@2@@std@@V12@U?$less@V?$basic_string@DU?$char_traits@D@std@@V?$allocator@D@2@@std@@@2@V?$allocator@U?$pair@$$CBV?$basic_string@DU?$char_traits@D@std@@V?$allocator@D@2@@std@@V12@@std@@@2@$0A@@std@@@std@@QEAAXV?$initializer_list@U?$pair@$$CBV?$basic_string@DU?$char_traits@D@std@@V?$allocator@D@2@@std@@V12@@std@@@2@@Z 0000000140055a20 f i SimpleDB.obj
 0002:00034ad0       ?is_open@?$basic_filebuf@DU?$char_traits@D@std@@@std@@QEBA_NXZ 0000000140055ad0 f i SimpleDB.obj
 0002:00034b60       ?is_open@?$basic_ifstream@DU?$char_traits@D@std@@@std@@QEBA_NXZ 0000000140055b60 f i SimpleDB.obj
 0002:00034bd0       ?max_size@?$_Default_allocator_traits@V?$allocator@U?$_Tree_node@U?$pair@$$CBV?$basic_string@DU?$char_traits@D@std@@V?$allocator@D@2@@std@@V12@@std@@PEAX@std@@@std@@@std@@SA_KAEBV?$allocator@U?$_Tree_node@U?$pair@$$CBV?$basic_string@DU?$char_traits@D@std@@V?$allocator@D@2@@std@@V12@@std@@PEAX@std@@@2@@Z 0000000140055bd0 f i SimpleDB.obj
 0002:00034c30       ?max_size@?$_Default_allocator_traits@V?$allocator@UUserCredentials@Persistence@TechnicalServices@@@std@@@std@@SA_KAEBV?$allocator@UUserCredentials@Persistence@TechnicalServices@@@2@@Z 0000000140055c30 f i SimpleDB.obj
 0002:00034c90       ?max_size@?$_Tree@V?$_Tmap_traits@V?$basic_string@DU?$char_traits@D@std@@V?$allocator@D@2@@std@@V12@U?$less@V?$basic_string@DU?$char_traits@D@std@@V?$allocator@D@2@@std@@@2@V?$allocator@U?$pair@$$CBV?$basic_string@DU?$char_traits@D@std@@V?$allocator@D@2@@std@@V12@@std@@@2@$0A@@std@@@std@@QEBA_KXZ 0000000140055c90 f i SimpleDB.obj
 0002:00034d30       ?max_size@?$vector@UUserCredentials@Persistence@TechnicalServices@@V?$allocator@UUserCredentials@Persistence@TechnicalServices@@@std@@@std@@QEBA_KXZ 0000000140055d30 f i SimpleDB.obj
 0002:00034dd0       ?not_eof@?$_Narrow_char_traits@DH@std@@SAHAEBH@Z 0000000140055dd0 f i SimpleDB.obj
 0002:00034e90       ?open@?$basic_filebuf@DU?$char_traits@D@std@@@std@@QEAAPEAV12@PEBDHH@Z 0000000140055e90 f i SimpleDB.obj
 0002:00034fd0       ?overflow@?$basic_filebuf@DU?$char_traits@D@std@@@std@@MEAAHH@Z 0000000140055fd0 f i SimpleDB.obj
 0002:000353c0       ?pbackfail@?$basic_filebuf@DU?$char_traits@D@std@@@std@@MEAAHH@Z 00000001400563c0 f i SimpleDB.obj
 0002:00035640       ?pointer_to@?$pointer_traits@PEBU?$pair@$$CBV?$basic_string@DU?$char_traits@D@std@@V?$allocator@D@2@@std@@V12@@std@@@std@@SAPEBU?$pair@$$CBV?$basic_string@DU?$char_traits@D@std@@V?$allocator@D@2@@std@@V12@@2@AEBU32@@Z 0000000140056640 f i SimpleDB.obj
 0002:000356a0       ?seekoff@?$basic_filebuf@DU?$char_traits@D@std@@@std@@MEAA?AV?$fpos@U_Mbstatet@@@2@_JHH@Z 00000001400566a0 f i SimpleDB.obj
 0002:00035890       ?seekpos@?$basic_filebuf@DU?$char_traits@D@std@@@std@@MEAA?AV?$fpos@U_Mbstatet@@@2@V32@H@Z 0000000140056890 f i SimpleDB.obj
 0002:00035a20       ?setbuf@?$basic_filebuf@DU?$char_traits@D@std@@@std@@MEAAPEAV?$basic_streambuf@DU?$char_traits@D@std@@@2@PEAD_J@Z 0000000140056a20 f i SimpleDB.obj
 0002:00035b40       ?state@?$fpos@U_Mbstatet@@@std@@QEBA?AU_Mbstatet@@XZ 0000000140056b40 f i SimpleDB.obj
 0002:00035bc0       ?sync@?$basic_filebuf@DU?$char_traits@D@std@@@std@@MEAAHXZ 0000000140056bc0 f i SimpleDB.obj
 0002:00035cd0       ?to_int_type@?$_Narrow_char_traits@DH@std@@SAHAEBD@Z 0000000140056cd0 f i SimpleDB.obj
 0002:00035d30       ?uflow@?$basic_filebuf@DU?$char_traits@D@std@@@std@@MEAAHXZ 0000000140056d30 f i SimpleDB.obj
 0002:000361b0       ?underflow@?$basic_filebuf@DU?$char_traits@D@std@@@std@@MEAAHXZ 00000001400571b0 f i SimpleDB.obj
 0002:00036340       ?xsgetn@?$basic_filebuf@DU?$char_traits@D@std@@@std@@MEAA_JPEAD_J@Z 0000000140057340 f i SimpleDB.obj
 0002:00036650       ?xsputn@?$basic_filebuf@DU?$char_traits@D@std@@@std@@MEAA_JPEBD_J@Z 0000000140057650 f i SimpleDB.obj
 0002:000368a0       ??$?0$$V@?$_Compressed_pair@U?$default_delete@VMaintainBooksHandler@Library@Domain@@@std@@PEAVMaintainBooksHandler@Library@Domain@@$00@std@@QEAA@U_Zero_then_variadic_args_t@1@@Z 00000001400578a0 f i SimpleUI.obj
 0002:00036910       ??$?0U?$default_delete@VClientHandler@Client@Domain@@@std@@$0A@@?$unique_ptr@VClientHandler@Client@Domain@@U?$default_delete@VClientHandler@Client@Domain@@@std@@@std@@QEAA@XZ 0000000140057910 f i SimpleUI.obj
 0002:000369a0       ??$?0U?$default_delete@VMaintainBooksHandler@Library@Domain@@@std@@$0A@@?$unique_ptr@VMaintainBooksHandler@Library@Domain@@U?$default_delete@VMaintainBooksHandler@Library@Domain@@@std@@@std@@QEAA@XZ 00000001400579a0 f i SimpleUI.obj
 0002:00036a30       ??$?0U?$default_delete@VSessionHandler@Session@Domain@@@std@@$0A@@?$unique_ptr@VSessionHandler@Session@Domain@@U?$default_delete@VSessionHandler@Session@Domain@@@std@@@std@@QEAA@XZ 0000000140057a30 f i SimpleUI.obj
 0002:00036ac0       ??$?4U?$default_delete@VClientHandler@Client@Domain@@@std@@$0A@@?$unique_ptr@VClientHandler@Client@Domain@@U?$default_delete@VClientHandler@Client@Domain@@@std@@@std@@QEAAAEAV01@$$QEAV01@@Z 0000000140057ac0 f i SimpleUI.obj
 0002:00036b90       ??$?4U?$default_delete@VSessionHandler@Session@Domain@@@std@@$0A@@?$unique_ptr@VSessionHandler@Session@Domain@@U?$default_delete@VSessionHandler@Session@Domain@@@std@@@std@@QEAAAEAV01@$$QEAV01@@Z 0000000140057b90 f i SimpleUI.obj
 0002:00036c60       ??$?8VClientHandler@Client@Domain@@U?$default_delete@VClientHandler@Client@Domain@@@std@@@std@@YA_NAEBV?$unique_ptr@VClientHandler@Client@Domain@@U?$default_delete@VClientHandler@Client@Domain@@@std@@@0@$$T@Z 0000000140057c60 f i SimpleUI.obj
 0002:00036d00       ??$?8VSessionHandler@Session@Domain@@U?$default_delete@VSessionHandler@Session@Domain@@@std@@@std@@YA_NAEBV?$unique_ptr@VSessionHandler@Session@Domain@@U?$default_delete@VSessionHandler@Session@Domain@@@std@@@0@$$T@Z 0000000140057d00 f i SimpleUI.obj
 0002:00036da0       ??$?9VClientHandler@Client@Domain@@U?$default_delete@VClientHandler@Client@Domain@@@std@@@std@@YA_NAEBV?$unique_ptr@VClientHandler@Client@Domain@@U?$default_delete@VClientHandler@Client@Domain@@@std@@@0@$$T@Z 0000000140057da0 f i SimpleUI.obj
 0002:00036e40       ??$?9VSessionHandler@Session@Domain@@U?$default_delete@VSessionHandler@Session@Domain@@@std@@@std@@YA_NAEBV?$unique_ptr@VSessionHandler@Session@Domain@@U?$default_delete@VSessionHandler@Session@Domain@@@std@@@0@$$T@Z 0000000140057e40 f i SimpleUI.obj
 0002:00036ee0       ??$_Construct_n_copies_of_ty@U_Value_init_tag@std@@@?$vector@V?$basic_string@DU?$char_traits@D@std@@V?$allocator@D@2@@std@@V?$allocator@V?$basic_string@DU?$char_traits@D@std@@V?$allocator@D@2@@std@@@2@@std@@AEAAX_KAEBU_Value_init_tag@1@@Z 0000000140057ee0 f i SimpleUI.obj
 0002:00037070       ??$_Emplace_back@$$V@?$_Uninitialized_backout_al@V?$allocator@V?$basic_string@DU?$char_traits@D@std@@V?$allocator@D@2@@std@@@std@@@std@@QEAAXXZ 0000000140058070 f i SimpleUI.obj
 0002:00037130       ??$_Pocma@V?$allocator@D@std@@@std@@YAXAEAV?$allocator@D@0@0@Z 0000000140058130 f i SimpleUI.obj
 0002:000371a0       ??$_Pocma@V?$allocator@UClient@Persistence@TechnicalServices@@@std@@@std@@YAXAEAV?$allocator@UClient@Persistence@TechnicalServices@@@0@0@Z 00000001400581a0 f i SimpleUI.obj
 0002:00037210       ??$_Uninitialized_value_construct_n@V?$allocator@V?$basic_string@DU?$char_traits@D@std@@V?$allocator@D@2@@std@@@std@@@std@@YAPEAV?$basic_string@DU?$char_traits@D@std@@V?$allocator@D@2@@0@PEAV10@_KAEAV?$allocator@V?$basic_string@DU?$char_traits@D@std@@V?$allocator@D@2@@std@@@0@@Z 0000000140058210 f i SimpleUI.obj
 0002:00037340       ??$addressof@V?$unique_ptr@VClientHandler@Client@Domain@@U?$default_delete@VClientHandler@Client@Domain@@@std@@@std@@@std@@YAPEAV?$unique_ptr@VClientHandler@Client@Domain@@U?$default_delete@VClientHandler@Client@Domain@@@std@@@0@AEAV10@@Z 0000000140058340 f i SimpleUI.obj
 0002:000373a0       ??$addressof@V?$unique_ptr@VSessionHandler@Session@Domain@@U?$default_delete@VSessionHandler@Session@Domain@@@std@@@std@@@std@@YAPEAV?$unique_ptr@VSessionHandler@Session@Domain@@U?$default_delete@VSessionHandler@Session@Domain@@@std@@@0@AEAV10@@Z 00000001400583a0 f i SimpleUI.obj
 0002:00037400       ??$addressof@V?$vector@UClient@Persistence@TechnicalServices@@V?$allocator@UClient@Persistence@TechnicalServices@@@std@@@std@@@std@@YAPEAV?$vector@UClient@Persistence@TechnicalServices@@V?$allocator@UClient@Persistence@TechnicalServices@@@std@@@0@AEAV10@@Z 0000000140058400 f i SimpleUI.obj
 0002:00037460       ??$construct@V?$basic_string@DU?$char_traits@D@std@@V?$allocator@D@2@@std@@$$V@?$_Default_allocator_traits@V?$allocator@V?$basic_string@DU?$char_traits@D@std@@V?$allocator@D@2@@std@@@std@@@std@@SAXAEAV?$allocator@V?$basic_string@DU?$char_traits@D@std@@V?$allocator@D@2@@std@@@1@QEAV?$basic_string@DU?$char_traits@D@std@@V?$allocator@D@2@@1@@Z 0000000140058460 f i SimpleUI.obj
 0002:000374f0       ??$exchange@PEAVClientHandler@Client@Domain@@AEAPEAV123@@std@@YAPEAVClientHandler@Client@Domain@@AEAPEAV123@0@Z 00000001400584f0 f i SimpleUI.obj
 0002:00037580       ??$exchange@PEAVClientHandler@Client@Domain@@PEAV123@@std@@YAPEAVClientHandler@Client@Domain@@AEAPEAV123@$$QEAPEAV123@@Z 0000000140058580 f i SimpleUI.obj
 0002:00037610       ??$exchange@PEAVSessionHandler@Session@Domain@@AEAPEAV123@@std@@YAPEAVSessionHandler@Session@Domain@@AEAPEAV123@0@Z 0000000140058610 f i SimpleUI.obj
 0002:000376a0       ??$exchange@PEAVSessionHandler@Session@Domain@@PEAV123@@std@@YAPEAVSessionHandler@Session@Domain@@AEAPEAV123@$$QEAPEAV123@@Z 00000001400586a0 f i SimpleUI.obj
 0002:00037730       ??$forward@U?$default_delete@VClientHandler@Client@Domain@@@std@@@std@@YA$$QEAU?$default_delete@VClientHandler@Client@Domain@@@0@AEAU10@@Z 0000000140058730 f i SimpleUI.obj
 0002:00037790       ??$forward@U?$default_delete@VSessionHandler@Session@Domain@@@std@@@std@@YA$$QEAU?$default_delete@VSessionHandler@Session@Domain@@@0@AEAU10@@Z 0000000140058790 f i SimpleUI.obj
 0002:000377f0       ??$getline@DU?$char_traits@D@std@@V?$allocator@D@2@@std@@YAAEAV?$basic_istream@DU?$char_traits@D@std@@@0@$$QEAV10@AEAV?$basic_string@DU?$char_traits@D@std@@V?$allocator@D@2@@0@D@Z 00000001400587f0 f i SimpleUI.obj
 0002:00037b60       ??$getline@DU?$char_traits@D@std@@V?$allocator@D@2@@std@@YAAEAV?$basic_istream@DU?$char_traits@D@std@@@0@AEAV10@AEAV?$basic_string@DU?$char_traits@D@std@@V?$allocator@D@2@@0@@Z 0000000140058b60 f i SimpleUI.obj
 0002:00037c40       ??$move@AEAV?$allocator@UClient@Persistence@TechnicalServices@@@std@@@std@@YA$$QEAV?$allocator@UClient@Persistence@TechnicalServices@@@0@AEAV10@@Z 0000000140058c40 f i SimpleUI.obj
 0002:00037ca0       ??$ws@DU?$char_traits@D@std@@@std@@YAAEAV?$basic_istream@DU?$char_traits@D@std@@@0@AEAV10@@Z 0000000140058ca0 f i SimpleUI.obj
 0002:00037f90       ??0?$vector@V?$basic_string@DU?$char_traits@D@std@@V?$allocator@D@2@@std@@V?$allocator@V?$basic_string@DU?$char_traits@D@std@@V?$allocator@D@2@@std@@@2@@std@@QEAA@_KAEBV?$allocator@V?$basic_string@DU?$char_traits@D@std@@V?$allocator@D@2@@std@@@1@@Z 0000000140058f90 f i SimpleUI.obj
 0002:00038050       ??0SimpleUI@UI@@QEAA@XZ    0000000140059050 f   SimpleUI.obj
 0002:000381c0       ??0UserInterfaceHandler@UI@@QEAA@XZ 00000001400591c0 f i SimpleUI.obj
 0002:00038220       ??1?$unique_ptr@VClientHandler@Client@Domain@@U?$default_delete@VClientHandler@Client@Domain@@@std@@@std@@QEAA@XZ 0000000140059220 f i SimpleUI.obj
 0002:000382d0       ??1?$unique_ptr@VMaintainBooksHandler@Library@Domain@@U?$default_delete@VMaintainBooksHandler@Library@Domain@@@std@@@std@@QEAA@XZ 00000001400592d0 f i SimpleUI.obj
 0002:00038380       ??1?$unique_ptr@VSessionHandler@Session@Domain@@U?$default_delete@VSessionHandler@Session@Domain@@@std@@@std@@QEAA@XZ 0000000140059380 f i SimpleUI.obj
 0002:00038430       ??1SimpleUI@UI@@UEAA@XZ    0000000140059430 f   SimpleUI.obj
 0002:00038550       ??4?$basic_string@DU?$char_traits@D@std@@V?$allocator@D@2@@std@@QEAAAEAV01@$$QEAV01@@Z 0000000140059550 f i SimpleUI.obj
 0002:00038610       ??4?$vector@UClient@Persistence@TechnicalServices@@V?$allocator@UClient@Persistence@TechnicalServices@@@std@@@std@@QEAAAEAV01@$$QEAV01@@Z 0000000140059610 f i SimpleUI.obj
 0002:000386d0       ??4Client@Persistence@TechnicalServices@@QEAAAEAU012@$$QEAU012@@Z 00000001400596d0 f i SimpleUI.obj
 0002:00038760       ??B?$unique_ptr@VClientHandler@Client@Domain@@U?$default_delete@VClientHandler@Client@Domain@@@std@@@std@@QEBA_NXZ 0000000140059760 f i SimpleUI.obj
 0002:000387e0       ??B?$unique_ptr@VSessionHandler@Session@Domain@@U?$default_delete@VSessionHandler@Session@Domain@@@std@@@std@@QEBA_NXZ 00000001400597e0 f i SimpleUI.obj
 0002:00038860       ??C?$unique_ptr@VClientHandler@Client@Domain@@U?$default_delete@VClientHandler@Client@Domain@@@std@@@std@@QEBAPEAVClientHandler@Client@Domain@@XZ 0000000140059860 f i SimpleUI.obj
 0002:000388c0       ??C?$unique_ptr@VSessionHandler@Session@Domain@@U?$default_delete@VSessionHandler@Session@Domain@@@std@@@std@@QEBAPEAVSessionHandler@Session@Domain@@XZ 00000001400598c0 f i SimpleUI.obj
 0002:00038920       ??R?$default_delete@VClientHandler@Client@Domain@@@std@@QEBAXPEAVClientHandler@Client@Domain@@@Z 0000000140059920 f i SimpleUI.obj
 0002:000389e0       ??R?$default_delete@VMaintainBooksHandler@Library@Domain@@@std@@QEBAXPEAVMaintainBooksHandler@Library@Domain@@@Z 00000001400599e0 f i SimpleUI.obj
 0002:00038aa0       ??R?$default_delete@VSessionHandler@Session@Domain@@@std@@QEBAXPEAVSessionHandler@Session@Domain@@@Z 0000000140059aa0 f i SimpleUI.obj
 0002:00038b60       ??Y?$basic_string@DU?$char_traits@D@std@@V?$allocator@D@2@@std@@QEAAAEAV01@D@Z 0000000140059b60 f i SimpleUI.obj
 0002:00038be0       ??_GSimpleUI@UI@@UEAAPEAXI@Z 0000000140059be0 f i SimpleUI.obj
 0002:00038be0       ??_ESimpleUI@UI@@UEAAPEAXI@Z 0000000140059be0 f i SimpleUI.obj
 0002:00038c70       ?_Get_first@?$_Compressed_pair@U?$default_delete@VClientHandler@Client@Domain@@@std@@PEAVClientHandler@Client@Domain@@$00@std@@QEAAAEAU?$default_delete@VClientHandler@Client@Domain@@@2@XZ 0000000140059c70 f i SimpleUI.obj
 0002:00038cd0       ?_Get_first@?$_Compressed_pair@U?$default_delete@VMaintainBooksHandler@Library@Domain@@@std@@PEAVMaintainBooksHandler@Library@Domain@@$00@std@@QEAAAEAU?$default_delete@VMaintainBooksHandler@Library@Domain@@@2@XZ 0000000140059cd0 f i SimpleUI.obj
 0002:00038d30       ?_Get_first@?$_Compressed_pair@U?$default_delete@VSessionHandler@Session@Domain@@@std@@PEAVSessionHandler@Session@Domain@@$00@std@@QEAAAEAU?$default_delete@VSessionHandler@Session@Domain@@@2@XZ 0000000140059d30 f i SimpleUI.obj
 0002:00038d90       ?_Move_assign@?$basic_string@DU?$char_traits@D@std@@V?$allocator@D@2@@std@@AEAAXAEAV12@U_Equal_allocators@2@@Z 0000000140059d90 f i SimpleUI.obj
 0002:00038e80       ?_Move_assign@?$vector@UClient@Persistence@TechnicalServices@@V?$allocator@UClient@Persistence@TechnicalServices@@@std@@@std@@AEAAXAEAV12@U_Equal_allocators@2@@Z 0000000140059e80 f i SimpleUI.obj
 0002:00038f70       ?_Take_contents@?$_Vector_val@U?$_Simple_types@UClient@Persistence@TechnicalServices@@@std@@@std@@QEAAXAEAV12@@Z 0000000140059f70 f i SimpleUI.obj
 0002:00039070       ?_Ufill@?$vector@V?$basic_string@DU?$char_traits@D@std@@V?$allocator@D@2@@std@@V?$allocator@V?$basic_string@DU?$char_traits@D@std@@V?$allocator@D@2@@std@@@2@@std@@AEAAPEAV?$basic_string@DU?$char_traits@D@std@@V?$allocator@D@2@@2@PEAV32@_KU_Value_init_tag@2@@Z 000000014005a070 f i SimpleUI.obj
 0002:00039100       ?__autoclassinit2@?$unique_ptr@VClientHandler@Client@Domain@@U?$default_delete@VClientHandler@Client@Domain@@@std@@@std@@QEAAX_K@Z 000000014005a100 f i SimpleUI.obj
 0002:00039160       ?__autoclassinit2@?$unique_ptr@VSessionHandler@Session@Domain@@U?$default_delete@VSessionHandler@Session@Domain@@@std@@@std@@QEAAX_K@Z 000000014005a160 f i SimpleUI.obj
 0002:000391c0       ?__autoclassinit2@?$vector@UClient@Persistence@TechnicalServices@@V?$allocator@UClient@Persistence@TechnicalServices@@@std@@@std@@QEAAX_K@Z 000000014005a1c0 f i SimpleUI.obj
 0002:00039220       ?launch@SimpleUI@UI@@UEAAXXZ 000000014005a220 f   SimpleUI.obj
 0002:0003a4d0       ?line@UI@@YAXXZ            000000014005b4d0 f   SimpleUI.obj
 0002:0003a560       ?release@?$unique_ptr@VClientHandler@Client@Domain@@U?$default_delete@VClientHandler@Client@Domain@@@std@@@std@@QEAAPEAVClientHandler@Client@Domain@@XZ 000000014005b560 f i SimpleUI.obj
 0002:0003a5e0       ?release@?$unique_ptr@VSessionHandler@Session@Domain@@U?$default_delete@VSessionHandler@Session@Domain@@@std@@@std@@QEAAPEAVSessionHandler@Session@Domain@@XZ 000000014005b5e0 f i SimpleUI.obj
 0002:0003a660       ?reset@?$unique_ptr@VClientHandler@Client@Domain@@U?$default_delete@VClientHandler@Client@Domain@@@std@@@std@@QEAAXPEAVClientHandler@Client@Domain@@@Z 000000014005b660 f i SimpleUI.obj
 0002:0003a710       ?reset@?$unique_ptr@VSessionHandler@Session@Domain@@U?$default_delete@VSessionHandler@Session@Domain@@@std@@@std@@QEAAXPEAVSessionHandler@Session@Domain@@@Z 000000014005b710 f i SimpleUI.obj
 0002:0003a7c0       ?size@?$vector@UClient@Persistence@TechnicalServices@@V?$allocator@UClient@Persistence@TechnicalServices@@@std@@@std@@QEBA_KXZ 000000014005b7c0 f i SimpleUI.obj
 0002:0003a850       ?size@?$vector@V?$basic_string@DU?$char_traits@D@std@@V?$allocator@D@2@@std@@V?$allocator@V?$basic_string@DU?$char_traits@D@std@@V?$allocator@D@2@@std@@@2@@std@@QEBA_KXZ 000000014005b850 f i SimpleUI.obj
 0002:0003a8e0       ??0SystemDriverUI@UI@@QEAA@XZ 000000014005b8e0 f   SystemDriverUI.obj
 0002:0003aa20       ??1SystemDriverUI@UI@@UEAA@XZ 000000014005ba20 f   SystemDriverUI.obj
 0002:0003ab30       ??_ESystemDriverUI@UI@@UEAAPEAXI@Z 000000014005bb30 f i SystemDriverUI.obj
 0002:0003ab30       ??_GSystemDriverUI@UI@@UEAAPEAXI@Z 000000014005bb30 f i SystemDriverUI.obj
 0002:0003abc0       ?launch@SystemDriverUI@UI@@UEAAXXZ 000000014005bbc0 f   SystemDriverUI.obj
 0002:0003b090       ??$?0AEAPEAVSimpleUI@UI@@@?$_Compressed_pair@U?$default_delete@VSimpleUI@UI@@@std@@PEAVSimpleUI@UI@@$00@std@@QEAA@U_Zero_then_variadic_args_t@1@AEAPEAVSimpleUI@UI@@@Z 000000014005c090 f i UserInterfaceHandler.obj
 0002:0003b120       ??$?0AEAPEAVSystemDriverUI@UI@@@?$_Compressed_pair@U?$default_delete@VSystemDriverUI@UI@@@std@@PEAVSystemDriverUI@UI@@$00@std@@QEAA@U_Zero_then_variadic_args_t@1@AEAPEAVSystemDriverUI@UI@@@Z 000000014005c120 f i UserInterfaceHandler.obj
 0002:0003b1b0       ??$?0U?$default_delete@VSimpleUI@UI@@@std@@$0A@@?$unique_ptr@VSimpleUI@UI@@U?$default_delete@VSimpleUI@UI@@@std@@@std@@QEAA@PEAVSimpleUI@UI@@@Z 000000014005c1b0 f i UserInterfaceHandler.obj
 0002:0003b250       ??$?0U?$default_delete@VSimpleUI@UI@@@std@@PEAVSimpleUI@UI@@@?$_Compressed_pair@U?$default_delete@VUserInterfaceHandler@UI@@@std@@PEAVUserInterfaceHandler@UI@@$00@std@@QEAA@U_One_then_variadic_args_t@1@$$QEAU?$default_delete@VSimpleUI@UI@@@1@$$QEAPEAVSimpleUI@UI@@@Z 000000014005c250 f i UserInterfaceHandler.obj
 0002:0003b300       ??$?0U?$default_delete@VSystemDriverUI@UI@@@std@@$0A@@?$unique_ptr@VSystemDriverUI@UI@@U?$default_delete@VSystemDriverUI@UI@@@std@@@std@@QEAA@PEAVSystemDriverUI@UI@@@Z 000000014005c300 f i UserInterfaceHandler.obj
 0002:0003b3a0       ??$?0U?$default_delete@VSystemDriverUI@UI@@@std@@PEAVSystemDriverUI@UI@@@?$_Compressed_pair@U?$default_delete@VUserInterfaceHandler@UI@@@std@@PEAVUserInterfaceHandler@UI@@$00@std@@QEAA@U_One_then_variadic_args_t@1@$$QEAU?$default_delete@VSystemDriverUI@UI@@@1@$$QEAPEAVSystemDriverUI@UI@@@Z 000000014005c3a0 f i UserInterfaceHandler.obj
 0002:0003b450       ??$?0VSimpleUI@UI@@$0A@@?$default_delete@VUserInterfaceHandler@UI@@@std@@QEAA@AEBU?$default_delete@VSimpleUI@UI@@@1@@Z 000000014005c450 f i UserInterfaceHandler.obj
 0002:0003b4b0       ??$?0VSimpleUI@UI@@U?$default_delete@VSimpleUI@UI@@@std@@$0A@@?$unique_ptr@VUserInterfaceHandler@UI@@U?$default_delete@VUserInterfaceHandler@UI@@@std@@@std@@QEAA@$$QEAV?$unique_ptr@VSimpleUI@UI@@U?$default_delete@VSimpleUI@UI@@@std@@@1@@Z 000000014005c4b0 f i UserInterfaceHandler.obj
 0002:0003b5a0       ??$?0VSystemDriverUI@UI@@$0A@@?$default_delete@VUserInterfaceHandler@UI@@@std@@QEAA@AEBU?$default_delete@VSystemDriverUI@UI@@@1@@Z 000000014005c5a0 f i UserInterfaceHandler.obj
 0002:0003b600       ??$?0VSystemDriverUI@UI@@U?$default_delete@VSystemDriverUI@UI@@@std@@$0A@@?$unique_ptr@VUserInterfaceHandler@UI@@U?$default_delete@VUserInterfaceHandler@UI@@@std@@@std@@QEAA@$$QEAV?$unique_ptr@VSystemDriverUI@UI@@U?$default_delete@VSystemDriverUI@UI@@@std@@@1@@Z 000000014005c600 f i UserInterfaceHandler.obj
 0002:0003b6f0       ??$exchange@PEAVSimpleUI@UI@@PEAV12@@std@@YAPEAVSimpleUI@UI@@AEAPEAV12@$$QEAPEAV12@@Z 000000014005c6f0 f i UserInterfaceHandler.obj
 0002:0003b780       ??$exchange@PEAVSystemDriverUI@UI@@PEAV12@@std@@YAPEAVSystemDriverUI@UI@@AEAPEAV12@$$QEAPEAV12@@Z 000000014005c780 f i UserInterfaceHandler.obj
 0002:0003b810       ??$forward@AEAPEAVSimpleUI@UI@@@std@@YAAEAPEAVSimpleUI@UI@@AEAPEAV12@@Z 000000014005c810 f i UserInterfaceHandler.obj
 0002:0003b870       ??$forward@AEAPEAVSystemDriverUI@UI@@@std@@YAAEAPEAVSystemDriverUI@UI@@AEAPEAV12@@Z 000000014005c870 f i UserInterfaceHandler.obj
 0002:0003b8d0       ??$forward@PEAVSimpleUI@UI@@@std@@YA$$QEAPEAVSimpleUI@UI@@AEAPEAV12@@Z 000000014005c8d0 f i UserInterfaceHandler.obj
 0002:0003b930       ??$forward@PEAVSystemDriverUI@UI@@@std@@YA$$QEAPEAVSystemDriverUI@UI@@AEAPEAV12@@Z 000000014005c930 f i UserInterfaceHandler.obj
 0002:0003b990       ??$forward@U?$default_delete@VSimpleUI@UI@@@std@@@std@@YA$$QEAU?$default_delete@VSimpleUI@UI@@@0@AEAU10@@Z 000000014005c990 f i UserInterfaceHandler.obj
 0002:0003b9f0       ??$forward@U?$default_delete@VSystemDriverUI@UI@@@std@@@std@@YA$$QEAU?$default_delete@VSystemDriverUI@UI@@@0@AEAU10@@Z 000000014005c9f0 f i UserInterfaceHandler.obj
 0002:0003ba50       ??$make_unique@VSimpleUI@UI@@$$V$0A@@std@@YA?AV?$unique_ptr@VSimpleUI@UI@@U?$default_delete@VSimpleUI@UI@@@std@@@0@XZ 000000014005ca50 f i UserInterfaceHandler.obj
 0002:0003bb50       ??$make_unique@VSystemDriverUI@UI@@$$V$0A@@std@@YA?AV?$unique_ptr@VSystemDriverUI@UI@@U?$default_delete@VSystemDriverUI@UI@@@std@@@0@XZ 000000014005cb50 f i UserInterfaceHandler.obj
 0002:0003bc50       ??0BadUIRequest@UserInterfaceHandler@UI@@QEAA@AEBU012@@Z 000000014005cc50 f i UserInterfaceHandler.obj
 0002:0003bcd0       ??0BadUIRequest@UserInterfaceHandler@UI@@QEAA@AEBV?$basic_string@DU?$char_traits@D@std@@V?$allocator@D@2@@std@@@Z 000000014005ccd0 f i UserInterfaceHandler.obj
 0002:0003bd50       ??0UIException@UserInterfaceHandler@UI@@QEAA@AEBU012@@Z 000000014005cd50 f i UserInterfaceHandler.obj
 0002:0003bdd0       ??0UIException@UserInterfaceHandler@UI@@QEAA@AEBV?$basic_string@DU?$char_traits@D@std@@V?$allocator@D@2@@std@@@Z 000000014005cdd0 f i UserInterfaceHandler.obj
 0002:0003be50       ??1?$unique_ptr@VSimpleUI@UI@@U?$default_delete@VSimpleUI@UI@@@std@@@std@@QEAA@XZ 000000014005ce50 f i UserInterfaceHandler.obj
 0002:0003bf00       ??1?$unique_ptr@VSystemDriverUI@UI@@U?$default_delete@VSystemDriverUI@UI@@@std@@@std@@QEAA@XZ 000000014005cf00 f i UserInterfaceHandler.obj
 0002:0003bfb0       ??1BadUIRequest@UserInterfaceHandler@UI@@UEAA@XZ 000000014005cfb0 f i UserInterfaceHandler.obj
 0002:0003c000       ??1UIException@UserInterfaceHandler@UI@@UEAA@XZ 000000014005d000 f i UserInterfaceHandler.obj
 0002:0003c050       ??1UserInterfaceHandler@UI@@UEAA@XZ 000000014005d050 f   UserInterfaceHandler.obj
 0002:0003c0c0       ??R?$default_delete@VSimpleUI@UI@@@std@@QEBAXPEAVSimpleUI@UI@@@Z 000000014005d0c0 f i UserInterfaceHandler.obj
 0002:0003c180       ??R?$default_delete@VSystemDriverUI@UI@@@std@@QEBAXPEAVSystemDriverUI@UI@@@Z 000000014005d180 f i UserInterfaceHandler.obj
 0002:0003c240       ??_EBadUIRequest@UserInterfaceHandler@UI@@UEAAPEAXI@Z 000000014005d240 f i UserInterfaceHandler.obj
 0002:0003c240       ??_GBadUIRequest@UserInterfaceHandler@UI@@UEAAPEAXI@Z 000000014005d240 f i UserInterfaceHandler.obj
 0002:0003c2d0       ??_EUIException@UserInterfaceHandler@UI@@UEAAPEAXI@Z 000000014005d2d0 f i UserInterfaceHandler.obj
 0002:0003c2d0       ??_GUIException@UserInterfaceHandler@UI@@UEAAPEAXI@Z 000000014005d2d0 f i UserInterfaceHandler.obj
 0002:0003c360       ?_Get_first@?$_Compressed_pair@U?$default_delete@VSimpleUI@UI@@@std@@PEAVSimpleUI@UI@@$00@std@@QEAAAEAU?$default_delete@VSimpleUI@UI@@@2@XZ 000000014005d360 f i UserInterfaceHandler.obj
 0002:0003c3c0       ?_Get_first@?$_Compressed_pair@U?$default_delete@VSystemDriverUI@UI@@@std@@PEAVSystemDriverUI@UI@@$00@std@@QEAAAEAU?$default_delete@VSystemDriverUI@UI@@@2@XZ 000000014005d3c0 f i UserInterfaceHandler.obj
 0002:0003c420       ?__autoclassinit2@SimpleUI@UI@@QEAAX_K@Z 000000014005d420 f i UserInterfaceHandler.obj
 0002:0003c480       ?__autoclassinit2@SystemDriverUI@UI@@QEAAX_K@Z 000000014005d480 f i UserInterfaceHandler.obj
 0002:0003c4e0       ?createUI@UserInterfaceHandler@UI@@SA?AV?$unique_ptr@VUserInterfaceHandler@UI@@U?$default_delete@VUserInterfaceHandler@UI@@@std@@@std@@XZ 000000014005d4e0 f   UserInterfaceHandler.obj
 0002:0003c820       ?get_deleter@?$unique_ptr@VSimpleUI@UI@@U?$default_delete@VSimpleUI@UI@@@std@@@std@@QEAAAEAU?$default_delete@VSimpleUI@UI@@@2@XZ 000000014005d820 f i UserInterfaceHandler.obj
 0002:0003c890       ?get_deleter@?$unique_ptr@VSystemDriverUI@UI@@U?$default_delete@VSystemDriverUI@UI@@@std@@@std@@QEAAAEAU?$default_delete@VSystemDriverUI@UI@@@2@XZ 000000014005d890 f i UserInterfaceHandler.obj
 0002:0003c900       ?release@?$unique_ptr@VSimpleUI@UI@@U?$default_delete@VSimpleUI@UI@@@std@@@std@@QEAAPEAVSimpleUI@UI@@XZ 000000014005d900 f i UserInterfaceHandler.obj
 0002:0003c980       ?release@?$unique_ptr@VSystemDriverUI@UI@@U?$default_delete@VSystemDriverUI@UI@@@std@@@std@@QEAAPEAVSystemDriverUI@UI@@XZ 000000014005d980 f i UserInterfaceHandler.obj
 0002:0003c9fa       ??0_Lockit@std@@QEAA@H@Z   000000014005d9fa f   msvcprtd:MSVCP140D.dll
 0002:0003ca00       ??1_Lockit@std@@QEAA@XZ    000000014005da00 f   msvcprtd:MSVCP140D.dll
 0002:0003ca06       ?uncaught_exception@std@@YA_NXZ 000000014005da06 f   msvcprtd:MSVCP140D.dll
 0002:0003ca0c       ?_Xbad_alloc@std@@YAXXZ    000000014005da0c f   msvcprtd:MSVCP140D.dll
 0002:0003ca12       ?_Xlength_error@std@@YAXPEBD@Z 000000014005da12 f   msvcprtd:MSVCP140D.dll
 0002:0003ca18       ?_Xout_of_range@std@@YAXPEBD@Z 000000014005da18 f   msvcprtd:MSVCP140D.dll
 0002:0003ca1e       _Mbrtowc                   000000014005da1e f   msvcprtd:MSVCP140D.dll
 0002:0003ca24       ?_Getcvt@_Locinfo@std@@QEBA?AU_Cvtvec@@XZ 000000014005da24 f   msvcprtd:MSVCP140D.dll
 0002:0003ca2a       ?_Getdays@_Locinfo@std@@QEBAPEBDXZ 000000014005da2a f   msvcprtd:MSVCP140D.dll
 0002:0003ca30       ?_Getmonths@_Locinfo@std@@QEBAPEBDXZ 000000014005da30 f   msvcprtd:MSVCP140D.dll
 0002:0003ca36       ?_W_Getdays@_Locinfo@std@@QEBAPEBGXZ 000000014005da36 f   msvcprtd:MSVCP140D.dll
 0002:0003ca3c       ?_W_Getmonths@_Locinfo@std@@QEBAPEBGXZ 000000014005da3c f   msvcprtd:MSVCP140D.dll
 0002:0003ca42       ?good@ios_base@std@@QEBA_NXZ 000000014005da42 f   msvcprtd:MSVCP140D.dll
 0002:0003ca48       ?flags@ios_base@std@@QEBAHXZ 000000014005da48 f   msvcprtd:MSVCP140D.dll
 0002:0003ca4e       ?width@ios_base@std@@QEBA_JXZ 000000014005da4e f   msvcprtd:MSVCP140D.dll
 0002:0003ca54       ?width@ios_base@std@@QEAA_J_J@Z 000000014005da54 f   msvcprtd:MSVCP140D.dll
 0002:0003ca5a       ?sputc@?$basic_streambuf@DU?$char_traits@D@std@@@std@@QEAAHD@Z 000000014005da5a f   msvcprtd:MSVCP140D.dll
 0002:0003ca60       ?sputn@?$basic_streambuf@DU?$char_traits@D@std@@@std@@QEAA_JPEBD_J@Z 000000014005da60 f   msvcprtd:MSVCP140D.dll
 0002:0003ca66       ?setstate@?$basic_ios@DU?$char_traits@D@std@@@std@@QEAAXH_N@Z 000000014005da66 f   msvcprtd:MSVCP140D.dll
 0002:0003ca6c       ?tie@?$basic_ios@DU?$char_traits@D@std@@@std@@QEBAPEAV?$basic_ostream@DU?$char_traits@D@std@@@2@XZ 000000014005da6c f   msvcprtd:MSVCP140D.dll
 0002:0003ca72       ?rdbuf@?$basic_ios@DU?$char_traits@D@std@@@std@@QEBAPEAV?$basic_streambuf@DU?$char_traits@D@std@@@2@XZ 000000014005da72 f   msvcprtd:MSVCP140D.dll
 0002:0003ca78       ?fill@?$basic_ios@DU?$char_traits@D@std@@@std@@QEBADXZ 000000014005da78 f   msvcprtd:MSVCP140D.dll
 0002:0003ca7e       ?widen@?$basic_ios@DU?$char_traits@D@std@@@std@@QEBADD@Z 000000014005da7e f   msvcprtd:MSVCP140D.dll
 0002:0003ca84       ?_Osfx@?$basic_ostream@DU?$char_traits@D@std@@@std@@QEAAXXZ 000000014005da84 f   msvcprtd:MSVCP140D.dll
 0002:0003ca8a       ??6?$basic_ostream@DU?$char_traits@D@std@@@std@@QEAAAEAV01@P6AAEAV01@AEAV01@@Z@Z 000000014005da8a f   msvcprtd:MSVCP140D.dll
 0002:0003ca90       ?put@?$basic_ostream@DU?$char_traits@D@std@@@std@@QEAAAEAV12@D@Z 000000014005da90 f   msvcprtd:MSVCP140D.dll
 0002:0003ca96       ?flush@?$basic_ostream@DU?$char_traits@D@std@@@std@@QEAAAEAV12@XZ 000000014005da96 f   msvcprtd:MSVCP140D.dll
 0002:0003ca9c       ?setw@std@@YA?AU?$_Smanip@_J@1@_J@Z 000000014005da9c f   msvcprtd:MSVCP140D.dll
 0002:0003cab0       ??0_Fac_node@std@@QEAA@PEAU01@PEAV_Facet_base@1@@Z 000000014005dab0 f i msvcprtd:locale0_implib.obj
 0002:0003caf0       ??1_Fac_node@std@@QEAA@XZ  000000014005daf0 f i msvcprtd:locale0_implib.obj
 0002:0003cba0       ??1_Fac_tidy_reg_t@std@@QEAA@XZ 000000014005dba0 f i msvcprtd:locale0_implib.obj
 0002:0003cc20       ??2_Fac_node@std@@SAPEAX_K@Z 000000014005dc20 f i msvcprtd:locale0_implib.obj
 0002:0003cca0       ??3_Fac_node@std@@SAXPEAX@Z 000000014005dca0 f i msvcprtd:locale0_implib.obj
 0002:0003ccd0       ??_G_Fac_node@std@@QEAAPEAXI@Z 000000014005dcd0 f i msvcprtd:locale0_implib.obj
 0002:0003cd40       ?_Facet_Register@std@@YAXPEAV_Facet_base@1@@Z 000000014005dd40 f   msvcprtd:locale0_implib.obj
 0002:0003cdb9       ??Bid@locale@std@@QEAA_KXZ 000000014005ddb9 f   msvcprtd:MSVCP140D.dll
 0002:0003cdbf       ?_Init@locale@std@@CAPEAV_Locimp@12@_N@Z 000000014005ddbf f   msvcprtd:MSVCP140D.dll
 0002:0003cdc5       ?_Getgloballocale@locale@std@@CAPEAV_Locimp@12@XZ 000000014005ddc5 f   msvcprtd:MSVCP140D.dll
 0002:0003cdcb       ?toupper@?$ctype@D@std@@QEBADD@Z 000000014005ddcb f   msvcprtd:MSVCP140D.dll
 0002:0003cdd1       ?_Getcat@?$ctype@D@std@@SA_KPEAPEBVfacet@locale@2@PEBV42@@Z 000000014005ddd1 f   msvcprtd:MSVCP140D.dll
 0002:0003cdd7       ?sbumpc@?$basic_streambuf@DU?$char_traits@D@std@@@std@@QEAAHXZ 000000014005ddd7 f   msvcprtd:MSVCP140D.dll
 0002:0003cddd       ?_Ipfx@?$basic_istream@DU?$char_traits@D@std@@@std@@QEAA_N_N@Z 000000014005dddd f   msvcprtd:MSVCP140D.dll
 0002:0003cde3       ?setf@ios_base@std@@QEAAHH@Z 000000014005dde3 f   msvcprtd:MSVCP140D.dll
 0002:0003cde9       ?getloc@ios_base@std@@QEBA?AVlocale@2@XZ 000000014005dde9 f   msvcprtd:MSVCP140D.dll
 0002:0003cdef       ??6?$basic_ostream@DU?$char_traits@D@std@@@std@@QEAAAEAV01@P6AAEAVios_base@1@AEAV21@@Z@Z 000000014005ddef f   msvcprtd:MSVCP140D.dll
 0002:0003cdf5       _Xtime_get_ticks           000000014005ddf5 f   msvcprtd:MSVCP140D.dll
 0002:0003cdfb       ?put@?$time_put@DV?$ostreambuf_iterator@DU?$char_traits@D@std@@@std@@@std@@QEBA?AV?$ostreambuf_iterator@DU?$char_traits@D@std@@@2@V32@AEAVios_base@2@DPEBUtm@@PEBD3@Z 000000014005ddfb f   msvcprtd:MSVCP140D.dll
 0002:0003ce01       ?_Getcat@?$time_put@DV?$ostreambuf_iterator@DU?$char_traits@D@std@@@std@@@std@@SA_KPEAPEBVfacet@locale@2@PEBV42@@Z 000000014005de01 f   msvcprtd:MSVCP140D.dll
 0002:0003ce07       ?always_noconv@codecvt_base@std@@QEBA_NXZ 000000014005de07 f   msvcprtd:MSVCP140D.dll
 0002:0003ce0d       ?is@?$ctype@D@std@@QEBA_NFD@Z 000000014005de0d f   msvcprtd:MSVCP140D.dll
 0002:0003ce13       ?in@?$codecvt@DDU_Mbstatet@@@std@@QEBAHAEAU_Mbstatet@@PEBD1AEAPEBDPEAD3AEAPEAD@Z 000000014005de13 f   msvcprtd:MSVCP140D.dll
 0002:0003ce19       ?out@?$codecvt@DDU_Mbstatet@@@std@@QEBAHAEAU_Mbstatet@@PEBD1AEAPEBDPEAD3AEAPEAD@Z 000000014005de19 f   msvcprtd:MSVCP140D.dll
 0002:0003ce1f       ?unshift@?$codecvt@DDU_Mbstatet@@@std@@QEBAHAEAU_Mbstatet@@PEAD1AEAPEAD@Z 000000014005de1f f   msvcprtd:MSVCP140D.dll
 0002:0003ce25       ?_Getcat@?$codecvt@DDU_Mbstatet@@@std@@SA_KPEAPEBVfacet@locale@2@PEBV42@@Z 000000014005de25 f   msvcprtd:MSVCP140D.dll
 0002:0003ce2b       ??Bios_base@std@@QEBA_NXZ  000000014005de2b f   msvcprtd:MSVCP140D.dll
 0002:0003ce31       ??0?$basic_streambuf@DU?$char_traits@D@std@@@std@@IEAA@XZ 000000014005de31 f   msvcprtd:MSVCP140D.dll
 0002:0003ce37       ??1?$basic_streambuf@DU?$char_traits@D@std@@@std@@UEAA@XZ 000000014005de37 f   msvcprtd:MSVCP140D.dll
 0002:0003ce3d       ?getloc@?$basic_streambuf@DU?$char_traits@D@std@@@std@@QEBA?AVlocale@2@XZ 000000014005de3d f   msvcprtd:MSVCP140D.dll
 0002:0003ce43       ?sgetc@?$basic_streambuf@DU?$char_traits@D@std@@@std@@QEAAHXZ 000000014005de43 f   msvcprtd:MSVCP140D.dll
 0002:0003ce49       ?snextc@?$basic_streambuf@DU?$char_traits@D@std@@@std@@QEAAHXZ 000000014005de49 f   msvcprtd:MSVCP140D.dll
 0002:0003ce4f       ?eback@?$basic_streambuf@DU?$char_traits@D@std@@@std@@IEBAPEADXZ 000000014005de4f f   msvcprtd:MSVCP140D.dll
 0002:0003ce55       ?gptr@?$basic_streambuf@DU?$char_traits@D@std@@@std@@IEBAPEADXZ 000000014005de55 f   msvcprtd:MSVCP140D.dll
 0002:0003ce5b       ?pptr@?$basic_streambuf@DU?$char_traits@D@std@@@std@@IEBAPEADXZ 000000014005de5b f   msvcprtd:MSVCP140D.dll
 0002:0003ce61       ?egptr@?$basic_streambuf@DU?$char_traits@D@std@@@std@@IEBAPEADXZ 000000014005de61 f   msvcprtd:MSVCP140D.dll
 0002:0003ce67       ?gbump@?$basic_streambuf@DU?$char_traits@D@std@@@std@@IEAAXH@Z 000000014005de67 f   msvcprtd:MSVCP140D.dll
 0002:0003ce6d       ?setg@?$basic_streambuf@DU?$char_traits@D@std@@@std@@IEAAXPEAD00@Z 000000014005de6d f   msvcprtd:MSVCP140D.dll
 0002:0003ce73       ?epptr@?$basic_streambuf@DU?$char_traits@D@std@@@std@@IEBAPEADXZ 000000014005de73 f   msvcprtd:MSVCP140D.dll
 0002:0003ce79       ?_Gndec@?$basic_streambuf@DU?$char_traits@D@std@@@std@@IEAAPEADXZ 000000014005de79 f   msvcprtd:MSVCP140D.dll
 0002:0003ce7f       ?_Gninc@?$basic_streambuf@DU?$char_traits@D@std@@@std@@IEAAPEADXZ 000000014005de7f f   msvcprtd:MSVCP140D.dll
 0002:0003ce85       ?_Gnavail@?$basic_streambuf@DU?$char_traits@D@std@@@std@@IEBA_JXZ 000000014005de85 f   msvcprtd:MSVCP140D.dll
 0002:0003ce8b       ?pbump@?$basic_streambuf@DU?$char_traits@D@std@@@std@@IEAAXH@Z 000000014005de8b f   msvcprtd:MSVCP140D.dll
 0002:0003ce91       ?_Pninc@?$basic_streambuf@DU?$char_traits@D@std@@@std@@IEAAPEADXZ 000000014005de91 f   msvcprtd:MSVCP140D.dll
 0002:0003ce97       ?_Pnavail@?$basic_streambuf@DU?$char_traits@D@std@@@std@@IEBA_JXZ 000000014005de97 f   msvcprtd:MSVCP140D.dll
 0002:0003ce9d       ?_Init@?$basic_streambuf@DU?$char_traits@D@std@@@std@@IEAAXXZ 000000014005de9d f   msvcprtd:MSVCP140D.dll
 0002:0003cea3       ?_Init@?$basic_streambuf@DU?$char_traits@D@std@@@std@@IEAAXPEAPEAD0PEAH001@Z 000000014005dea3 f   msvcprtd:MSVCP140D.dll
 0002:0003cea9       ?xsgetn@?$basic_streambuf@DU?$char_traits@D@std@@@std@@MEAA_JPEAD_J@Z 000000014005dea9 f   msvcprtd:MSVCP140D.dll
 0002:0003ceaf       ?xsputn@?$basic_streambuf@DU?$char_traits@D@std@@@std@@MEAA_JPEBD_J@Z 000000014005deaf f   msvcprtd:MSVCP140D.dll
 0002:0003ceb5       ??1?$basic_ios@DU?$char_traits@D@std@@@std@@UEAA@XZ 000000014005deb5 f   msvcprtd:MSVCP140D.dll
 0002:0003cebb       ??0?$basic_ios@DU?$char_traits@D@std@@@std@@IEAA@XZ 000000014005debb f   msvcprtd:MSVCP140D.dll
 0002:0003cec1       ??0?$basic_istream@DU?$char_traits@D@std@@@std@@QEAA@PEAV?$basic_streambuf@DU?$char_traits@D@std@@@1@_N@Z 000000014005dec1 f   msvcprtd:MSVCP140D.dll
 0002:0003cec7       ??1?$basic_istream@DU?$char_traits@D@std@@@std@@UEAA@XZ 000000014005dec7 f   msvcprtd:MSVCP140D.dll
 0002:0003cecd       ?ignore@?$basic_istream@DU?$char_traits@D@std@@@std@@QEAAAEAV12@_JH@Z 000000014005decd f   msvcprtd:MSVCP140D.dll
 0002:0003ced3       ?_Fiopen@std@@YAPEAU_iobuf@@PEBDHH@Z 000000014005ded3 f   msvcprtd:MSVCP140D.dll
 0002:0003ced9       ?showmanyc@?$basic_streambuf@DU?$char_traits@D@std@@@std@@MEAA_JXZ 000000014005ded9 f   msvcprtd:MSVCP140D.dll
 0002:0003cedf       ??6?$basic_ostream@DU?$char_traits@D@std@@@std@@QEAAAEAV01@I@Z 000000014005dedf f   msvcprtd:MSVCP140D.dll
 0002:0003cee5       ??6?$basic_ostream@DU?$char_traits@D@std@@@std@@QEAAAEAV01@_K@Z 000000014005dee5 f   msvcprtd:MSVCP140D.dll
 0002:0003ceeb       ??5?$basic_istream@DU?$char_traits@D@std@@@std@@QEAAAEAV01@P6AAEAV01@AEAV01@@Z@Z 000000014005deeb f   msvcprtd:MSVCP140D.dll
 0002:0003cef1       ??5?$basic_istream@DU?$char_traits@D@std@@@std@@QEAAAEAV01@AEAI@Z 000000014005def1 f   msvcprtd:MSVCP140D.dll
 0002:0003cf00       ??2@YAPEAX_K@Z             000000014005df00 f   MSVCRTD:new_scalar.obj
 0002:0003cf70       ??3@YAXPEAX_K@Z            000000014005df70 f   MSVCRTD:delete_scalar_size.obj
 0002:0003cfa0       _CRT_RTC_INIT              000000014005dfa0 f   MSVCRTD:init.obj
 0002:0003cfb0       _CRT_RTC_INITW             000000014005dfb0 f   MSVCRTD:init.obj
 0002:0003cfc0       _RTC_InitBase              000000014005dfc0 f   MSVCRTD:init.obj
 0002:0003d010       _RTC_Shutdown              000000014005e010 f   MSVCRTD:init.obj
 0002:0003d040       __CheckForDebuggerJustMyCode 000000014005e040 f   MSVCRTD:debugger_jmc.obj
 0002:0003d090       ??1type_info@@UEAA@XZ      000000014005e090 f   MSVCRTD:std_type_info_static.obj
 0002:0003d0b0       ??_Etype_info@@UEAAPEAXI@Z 000000014005e0b0 f i MSVCRTD:std_type_info_static.obj
 0002:0003d0b0       ??_Gtype_info@@UEAAPEAXI@Z 000000014005e0b0 f i MSVCRTD:std_type_info_static.obj
 0002:0003d100       ??_M@YAXPEAX_K1P6AX0@Z@Z   000000014005e100 f   MSVCRTD:ehvecdtr.obj
 0002:0003d1f0       ??_M@YAXPEAX_KHP6AX0@Z@Z   000000014005e1f0 f   MSVCRTD:ehvecdtr.obj
 0002:0003d2c0       ?__ArrayUnwind@@YAXPEAX_K1P6AX0@Z@Z 000000014005e2c0 f   MSVCRTD:ehvecdtr.obj
 0002:0003d360       _RTC_AllocaHelper          000000014005e360 f   MSVCRTD:stack.obj
 0002:0003d3b0       _RTC_CheckStackVars        000000014005e3b0 f   MSVCRTD:stack.obj
 0002:0003d460       _RTC_CheckStackVars2       000000014005e460 f   MSVCRTD:stack.obj
 0002:0003d5b0       __GSHandlerCheck           000000014005e5b0 f   MSVCRTD:gshandler.obj
 0002:0003d600       __GSHandlerCheckCommon     000000014005e600 f   MSVCRTD:gshandler.obj
 0002:0003d740       __GSHandlerCheck_EH4       000000014005e740 f   MSVCRTD:gshandlereh4.obj
 0002:0003d820       __security_check_cookie    000000014005e820 f   MSVCRTD:amdsecgs.obj
 0002:0003d850       ?__scrt_initialize_type_info@@YAXXZ 000000014005e850 f   MSVCRTD:tncleanup.obj
 0002:0003d870       ?__scrt_uninitialize_type_info@@YAXXZ 000000014005e870 f   MSVCRTD:tncleanup.obj
 0002:0003d890       ?configure_argv@__scrt_narrow_argv_policy@@SAHXZ 000000014005e890 f i MSVCRTD:utility.obj
 0002:0003d9b0       ?initialize_environment@__scrt_narrow_environment_policy@@SAHXZ 000000014005e9b0 f i MSVCRTD:utility.obj
 0002:0003da80       NtCurrentTeb               000000014005ea80 f i MSVCRTD:utility.obj
 0002:0003da90       __scrt_acquire_startup_lock 000000014005ea90 f   MSVCRTD:utility.obj
 0002:0003db10       __scrt_dllmain_after_initialize_c 000000014005eb10 f   MSVCRTD:utility.obj
 0002:0003db50       __scrt_dllmain_before_initialize_c 000000014005eb50 f   MSVCRTD:utility.obj
 0002:0003db80       __scrt_dllmain_crt_thread_attach 000000014005eb80 f   MSVCRTD:utility.obj
 0002:0003dbc0       __scrt_dllmain_crt_thread_detach 000000014005ebc0 f   MSVCRTD:utility.obj
 0002:0003dbe0       __scrt_dllmain_exception_filter 000000014005ebe0 f   MSVCRTD:utility.obj
 0002:0003dc60       __scrt_dllmain_uninitialize_c 000000014005ec60 f   MSVCRTD:utility.obj
 0002:0003dca0       __scrt_dllmain_uninitialize_critical 000000014005eca0 f   MSVCRTD:utility.obj
 0002:0003dcc0       __scrt_initialize_crt      000000014005ecc0 f   MSVCRTD:utility.obj
 0002:0003dd20       __scrt_initialize_onexit_tables 000000014005ed20 f   MSVCRTD:utility.obj
 0002:0003de70       __scrt_is_nonwritable_in_current_image 000000014005ee70 f   MSVCRTD:utility.obj
 0002:0003df20       __scrt_release_startup_lock 000000014005ef20 f   MSVCRTD:utility.obj
 0002:0003df60       __scrt_uninitialize_crt    000000014005ef60 f   MSVCRTD:utility.obj
 0002:0003dfb0       _onexit                    000000014005efb0 f   MSVCRTD:utility.obj
 0002:0003e050       at_quick_exit              000000014005f050 f   MSVCRTD:utility.obj
 0002:0003e0b0       atexit                     000000014005f0b0 f   MSVCRTD:utility.obj
 0002:0003e2a0       _Init_thread_abort         000000014005f2a0 f   MSVCRTD:thread_safe_statics.obj
 0002:0003e2e0       _Init_thread_footer        000000014005f2e0 f   MSVCRTD:thread_safe_statics.obj
 0002:0003e360       _Init_thread_header        000000014005f360 f   MSVCRTD:thread_safe_statics.obj
 0002:0003e410       _Init_thread_lock          000000014005f410 f   MSVCRTD:thread_safe_statics.obj
 0002:0003e430       _Init_thread_notify        000000014005f430 f   MSVCRTD:thread_safe_statics.obj
 0002:0003e4a0       _Init_thread_unlock        000000014005f4a0 f   MSVCRTD:thread_safe_statics.obj
 0002:0003e4c0       _Init_thread_wait          000000014005f4c0 f   MSVCRTD:thread_safe_statics.obj
 0002:0003e940       ?set_app_type@__scrt_main_policy@@SAXXZ 000000014005f940 f i MSVCRTD:exe_main.obj
 0002:0003e960       ?set_commode@__scrt_file_policy@@SAXXZ 000000014005f960 f i MSVCRTD:exe_main.obj
 0002:0003e990       ?set_fmode@__scrt_file_policy@@SAXXZ 000000014005f990 f i MSVCRTD:exe_main.obj
 0002:0003e9b0       mainCRTStartup             000000014005f9b0 f   MSVCRTD:exe_main.obj
 0002:0003e9d0       _guard_check_icall_nop     000000014005f9d0 f i MSVCRTD:guard_support.obj
 0002:0003e9e0       ReadNoFence64              000000014005f9e0 f i MSVCRTD:guard_support.obj
 0002:0003ea10       ReadPointerNoFence         000000014005fa10 f i MSVCRTD:guard_support.obj
 0002:0003ea30       _guard_icall_checks_enforced 000000014005fa30 f i MSVCRTD:guard_support.obj
 0002:0003ea80       _guard_rf_checks_enforced  000000014005fa80 f i MSVCRTD:guard_support.obj
 0002:0003ea90       ??0bad_alloc@std@@QEAA@XZ  000000014005fa90 f i MSVCRTD:throw_bad_alloc.obj
 0002:0003eae0       ?__scrt_throw_std_bad_alloc@@YAXXZ 000000014005fae0 f   MSVCRTD:throw_bad_alloc.obj
 0002:0003eb10       ?__scrt_throw_std_bad_array_new_length@@YAXXZ 000000014005fb10 f   MSVCRTD:throw_bad_alloc.obj
 0002:0003eb40       ??3@YAXPEAX@Z              000000014005fb40 f   MSVCRTD:delete_scalar.obj
 0002:0003eb70       ?_RTC_GetErrorFunc@@YAP6AHHPEBDH00ZZPEBX@Z 000000014005fb70 f   MSVCRTD:userapi.obj
 0002:0003eb80       ?_RTC_GetErrorFuncW@@YAP6AHHPEB_WH00ZZPEBX@Z 000000014005fb80 f   MSVCRTD:userapi.obj
 0002:0003eb90       _RTC_GetErrDesc            000000014005fb90 f   MSVCRTD:userapi.obj
 0002:0003ebb0       _RTC_NumErrors             000000014005fbb0 f   MSVCRTD:userapi.obj
 0002:0003ebc0       _RTC_SetErrorFunc          000000014005fbc0 f   MSVCRTD:userapi.obj
 0002:0003ebe0       _RTC_SetErrorFuncW         000000014005fbe0 f   MSVCRTD:userapi.obj
 0002:0003ec00       _RTC_SetErrorType          000000014005fc00 f   MSVCRTD:userapi.obj
 0002:0003ece0       ?_RTC_AllocaFailure@@YAXPEAXPEAU_RTC_ALLOCA_NODE@@H@Z 000000014005fce0 f   MSVCRTD:error.obj
 0002:0003ee90       ?_RTC_Failure@@YAXPEAXH@Z  000000014005fe90 f   MSVCRTD:error.obj
 0002:0003ef00       ?_RTC_StackFailure@@YAXPEAXPEBD@Z 000000014005ff00 f   MSVCRTD:error.obj
 0002:0003f440       _RTC_UninitUse             0000000140060440 f   MSVCRTD:error.obj
 0002:0003f540       __local_stdio_printf_options 0000000140060540 f i MSVCRTD:error.obj
 0002:0003f550       _vsprintf_s_l              0000000140060550 f i MSVCRTD:error.obj
 0002:0003f5d0       sprintf_s                  00000001400605d0 f i MSVCRTD:error.obj
 0002:0003f600       __raise_securityfailure    0000000140060600 f   MSVCRTD:gs_report.obj
 0002:0003f650       __report_gsfailure         0000000140060650 f   MSVCRTD:gs_report.obj
 0002:0003f760       __report_rangecheckfailure 0000000140060760 f   MSVCRTD:gs_report.obj
 0002:0003f780       __report_securityfailure   0000000140060780 f   MSVCRTD:gs_report.obj
 0002:0003f850       __report_securityfailureEx 0000000140060850 f   MSVCRTD:gs_report.obj
 0002:0003fb50       __isa_available_init       0000000140060b50 f   MSVCRTD:cpu_disp.obj
 0002:0003ffd0       _get_startup_argv_mode     0000000140060fd0 f   MSVCRTD:argv_mode.obj
 0002:0003ffe0       __scrt_is_ucrt_dll_in_use  0000000140060fe0 f   MSVCRTD:ucrt_detection.obj
 0002:00040010       __crt_debugger_hook        0000000140061010 f   MSVCRTD:utility_desktop.obj
 0002:00040030       __scrt_fastfail            0000000140061030 f   MSVCRTD:utility_desktop.obj
 0002:00040230       __scrt_get_show_window_mode 0000000140061230 f   MSVCRTD:utility_desktop.obj
 0002:000402a0       __scrt_initialize_mta      00000001400612a0 f   MSVCRTD:utility_desktop.obj
 0002:000402c0       __scrt_initialize_winrt    00000001400612c0 f   MSVCRTD:utility_desktop.obj
 0002:000402d0       __scrt_is_managed_app      00000001400612d0 f   MSVCRTD:utility_desktop.obj
 0002:000403a0       __scrt_set_unhandled_exception_filter 00000001400613a0 f   MSVCRTD:utility_desktop.obj
 0002:000403c0       __scrt_exe_initialize_mta  00000001400613c0 f   MSVCRTD:utility_desktop.obj
 0002:000403c0       __scrt_stub_for_initialize_mta 00000001400613c0 f   MSVCRTD:utility_desktop.obj
 0002:000403d0       __scrt_unhandled_exception_filter 00000001400613d0 f   MSVCRTD:utility_desktop.obj
 0002:00040580       __security_init_cookie     0000000140061580 f   MSVCRTD:gs_support.obj
 0002:00040620       _matherr                   0000000140061620 f   MSVCRTD:matherr.obj
 0002:00040630       _get_startup_commit_mode   0000000140061630 f   MSVCRTD:commit_mode.obj
 0002:00040640       _get_startup_file_mode     0000000140061640 f   MSVCRTD:file_mode.obj
 0002:00040650       _get_startup_new_mode      0000000140061650 f   MSVCRTD:new_mode.obj
 0002:00040660       _get_startup_thread_locale_mode 0000000140061660 f   MSVCRTD:thread_locale.obj
 0002:00040670       _should_initialize_environment 0000000140061670 f   MSVCRTD:env_mode.obj
 0002:00040680       _initialize_invalid_parameter_handler 0000000140061680 f   MSVCRTD:invalid_parameter_handler.obj
 0002:00040690       _initialize_denormal_control 0000000140061690 f   MSVCRTD:denormal_control.obj
 0002:000406a0       __local_stdio_scanf_options 00000001400616a0 f i MSVCRTD:default_local_stdio_options.obj
 0002:000406b0       __scrt_initialize_default_local_stdio_options 00000001400616b0 f   MSVCRTD:default_local_stdio_options.obj
 0002:00040710       __scrt_is_user_matherr_present 0000000140061710 f   MSVCRTD:matherr_detection.obj
 0002:00040740       __scrt_get_dyn_tls_init_callback 0000000140061740 f   MSVCRTD:dyn_tls_init.obj
 0002:00040750       __scrt_get_dyn_tls_dtor_callback 0000000140061750 f   MSVCRTD:dyn_tls_dtor.obj
 0002:00040760       _RTC_Initialize            0000000140061760 f   MSVCRTD:initsect.obj
 0002:000407c0       _RTC_Terminate             00000001400617c0 f   MSVCRTD:initsect.obj
 0002:00040e70       ?_RTC_GetSrcLine@@YAHPEAEPEA_WKPEAH1K@Z 0000000140061e70 f   MSVCRTD:pdblkup.obj
 0002:00041326       _purecall                  0000000140062326 f   vcruntimed:VCRUNTIME140D.dll
 0002:0004132c       __CxxFrameHandler4         000000014006232c f   vcruntimed:VCRUNTIME140_1D.dll
 0002:00041332       memcmp                     0000000140062332 f   vcruntimed:VCRUNTIME140D.dll
 0002:00041338       __std_exception_copy       0000000140062338 f   vcruntimed:VCRUNTIME140D.dll
 0002:0004133e       __std_exception_destroy    000000014006233e f   vcruntimed:VCRUNTIME140D.dll
 0002:00041344       __std_type_info_compare    0000000140062344 f   vcruntimed:VCRUNTIME140D.dll
 0002:0004134a       memcpy                     000000014006234a f   vcruntimed:VCRUNTIME140D.dll
 0002:00041350       memmove                    0000000140062350 f   vcruntimed:VCRUNTIME140D.dll
 0002:00041356       _CxxThrowException         0000000140062356 f   vcruntimed:VCRUNTIME140D.dll
 0002:0004135c       __RTtypeid                 000000014006235c f   vcruntimed:VCRUNTIME140D.dll
 0002:00041362       __std_type_info_name       0000000140062362 f   vcruntimed:VCRUNTIME140D.dll
 0002:00041368       __current_exception        0000000140062368 f   vcruntimed:VCRUNTIME140D.dll
 0002:0004136e       __current_exception_context 000000014006236e f   vcruntimed:VCRUNTIME140D.dll
 0002:00041374       __C_specific_handler       0000000140062374 f   vcruntimed:VCRUNTIME140D.dll
 0002:0004137a       __std_type_info_destroy_list 000000014006237a f   vcruntimed:VCRUNTIME140D.dll
 0002:00041380       __C_specific_handler_noexcept 0000000140062380 f   vcruntimed:VCRUNTIME140D.dll
 0002:00041386       __vcrt_GetModuleFileNameW  0000000140062386 f   vcruntimed:VCRUNTIME140D.dll
 0002:0004138c       __vcrt_GetModuleHandleW    000000014006238c f   vcruntimed:VCRUNTIME140D.dll
 0002:00041392       __vcrt_LoadLibraryExW      0000000140062392 f   vcruntimed:VCRUNTIME140D.dll
 0002:00041398       _invalid_parameter         0000000140062398 f   ucrtd:ucrtbased.dll
 0002:0004139e       _calloc_dbg                000000014006239e f   ucrtd:ucrtbased.dll
 0002:000413a4       _CrtDbgReport              00000001400623a4 f   ucrtd:ucrtbased.dll
 0002:000413aa       wcslen                     00000001400623aa f   ucrtd:ucrtbased.dll
 0002:000413b0       strlen                     00000001400623b0 f   ucrtd:ucrtbased.dll
 0002:000413b6       _localtime64               00000001400623b6 f   ucrtd:ucrtbased.dll
 0002:000413bc       _get_stream_buffer_pointers 00000001400623bc f   ucrtd:ucrtbased.dll
 0002:000413c2       fclose                     00000001400623c2 f   ucrtd:ucrtbased.dll
 0002:000413c8       fflush                     00000001400623c8 f   ucrtd:ucrtbased.dll
 0002:000413ce       fgetc                      00000001400623ce f   ucrtd:ucrtbased.dll
 0002:000413d4       fgetpos                    00000001400623d4 f   ucrtd:ucrtbased.dll
 0002:000413da       fputc                      00000001400623da f   ucrtd:ucrtbased.dll
 0002:000413e0       fread                      00000001400623e0 f   ucrtd:ucrtbased.dll
 0002:000413e6       fsetpos                    00000001400623e6 f   ucrtd:ucrtbased.dll
 0002:000413ec       _fseeki64                  00000001400623ec f   ucrtd:ucrtbased.dll
 0002:000413f2       fwrite                     00000001400623f2 f   ucrtd:ucrtbased.dll
 0002:000413f8       setvbuf                    00000001400623f8 f   ucrtd:ucrtbased.dll
 0002:000413fe       ungetc                     00000001400623fe f   ucrtd:ucrtbased.dll
 0002:00041404       _lock_file                 0000000140062404 f   ucrtd:ucrtbased.dll
 0002:0004140a       _unlock_file               000000014006240a f   ucrtd:ucrtbased.dll
 0002:00041410       _free_dbg                  0000000140062410 f   ucrtd:ucrtbased.dll
 0002:00041416       _malloc_dbg                0000000140062416 f   ucrtd:ucrtbased.dll
 0002:0004141c       _callnewh                  000000014006241c f   ucrtd:ucrtbased.dll
 0002:00041422       malloc                     0000000140062422 f   ucrtd:ucrtbased.dll
 0002:00041428       _CrtDbgReportW             0000000140062428 f   ucrtd:ucrtbased.dll
 0002:0004142e       terminate                  000000014006242e f   ucrtd:ucrtbased.dll
 0002:00041434       _seh_filter_dll            0000000140062434 f   ucrtd:ucrtbased.dll
 0002:0004143a       _configure_narrow_argv     000000014006243a f   ucrtd:ucrtbased.dll
 0002:00041440       _initialize_narrow_environment 0000000140062440 f   ucrtd:ucrtbased.dll
 0002:00041446       _initialize_onexit_table   0000000140062446 f   ucrtd:ucrtbased.dll
 0002:0004144c       _register_onexit_function  000000014006244c f   ucrtd:ucrtbased.dll
 0002:00041452       _execute_onexit_table      0000000140062452 f   ucrtd:ucrtbased.dll
 0002:00041458       _crt_atexit                0000000140062458 f   ucrtd:ucrtbased.dll
 0002:0004145e       _crt_at_quick_exit         000000014006245e f   ucrtd:ucrtbased.dll
 0002:00041464       _cexit                     0000000140062464 f   ucrtd:ucrtbased.dll
 0002:0004146a       _seh_filter_exe            000000014006246a f   ucrtd:ucrtbased.dll
 0002:00041470       _set_app_type              0000000140062470 f   ucrtd:ucrtbased.dll
 0002:00041476       __setusermatherr           0000000140062476 f   ucrtd:ucrtbased.dll
 0002:0004147c       _get_initial_narrow_environment 000000014006247c f   ucrtd:ucrtbased.dll
 0002:00041482       _initterm                  0000000140062482 f   ucrtd:ucrtbased.dll
 0002:00041488       _initterm_e                0000000140062488 f   ucrtd:ucrtbased.dll
 0002:0004148e       exit                       000000014006248e f   ucrtd:ucrtbased.dll
 0002:00041494       _exit                      0000000140062494 f   ucrtd:ucrtbased.dll
 0002:0004149a       _set_fmode                 000000014006249a f   ucrtd:ucrtbased.dll
 0002:000414a0       __p___argc                 00000001400624a0 f   ucrtd:ucrtbased.dll
 0002:000414a6       __p___argv                 00000001400624a6 f   ucrtd:ucrtbased.dll
 0002:000414ac       _c_exit                    00000001400624ac f   ucrtd:ucrtbased.dll
 0002:000414b2       _register_thread_local_exe_atexit_callback 00000001400624b2 f   ucrtd:ucrtbased.dll
 0002:000414b8       _configthreadlocale        00000001400624b8 f   ucrtd:ucrtbased.dll
 0002:000414be       _set_new_mode              00000001400624be f   ucrtd:ucrtbased.dll
 0002:000414c4       __p__commode               00000001400624c4 f   ucrtd:ucrtbased.dll
 0002:000414ca       strcpy_s                   00000001400624ca f   ucrtd:ucrtbased.dll
 0002:000414d0       strcat_s                   00000001400624d0 f   ucrtd:ucrtbased.dll
 0002:000414d6       __stdio_common_vsprintf_s  00000001400624d6 f   ucrtd:ucrtbased.dll
 0002:000414dc       _wmakepath_s               00000001400624dc f   ucrtd:ucrtbased.dll
 0002:000414e2       _wsplitpath_s              00000001400624e2 f   ucrtd:ucrtbased.dll
 0002:000414e8       wcscpy_s                   00000001400624e8 f   ucrtd:ucrtbased.dll
 0002:000414ee       GetCurrentThreadId         00000001400624ee f   kernel32:KERNEL32.dll
 0002:000414f4       InitializeSListHead        00000001400624f4 f   kernel32:KERNEL32.dll
 0002:000414fa       CloseHandle                00000001400624fa f   kernel32:KERNEL32.dll
 0002:00041500       EnterCriticalSection       0000000140062500 f   kernel32:KERNEL32.dll
 0002:00041506       LeaveCriticalSection       0000000140062506 f   kernel32:KERNEL32.dll
 0002:0004150c       InitializeCriticalSectionAndSpinCount 000000014006250c f   kernel32:KERNEL32.dll
 0002:00041512       DeleteCriticalSection      0000000140062512 f   kernel32:KERNEL32.dll
 0002:00041518       SetEvent                   0000000140062518 f   kernel32:KERNEL32.dll
 0002:0004151e       ResetEvent                 000000014006251e f   kernel32:KERNEL32.dll
 0002:00041524       WaitForSingleObjectEx      0000000140062524 f   kernel32:KERNEL32.dll
 0002:0004152a       CreateEventW               000000014006252a f   kernel32:KERNEL32.dll
 0002:00041530       GetModuleHandleW           0000000140062530 f   kernel32:KERNEL32.dll
 0002:00041536       GetProcAddress             0000000140062536 f   kernel32:KERNEL32.dll
 0002:0004153c       IsDebuggerPresent          000000014006253c f   kernel32:KERNEL32.dll
 0002:00041542       RaiseException             0000000140062542 f   kernel32:KERNEL32.dll
 0002:00041548       MultiByteToWideChar        0000000140062548 f   kernel32:KERNEL32.dll
 0002:0004154e       WideCharToMultiByte        000000014006254e f   kernel32:KERNEL32.dll
 0002:00041554       RtlCaptureContext          0000000140062554 f   kernel32:KERNEL32.dll
 0002:0004155a       RtlLookupFunctionEntry     000000014006255a f   kernel32:KERNEL32.dll
 0002:00041560       RtlVirtualUnwind           0000000140062560 f   kernel32:KERNEL32.dll
 0002:00041566       UnhandledExceptionFilter   0000000140062566 f   kernel32:KERNEL32.dll
 0002:0004156c       SetUnhandledExceptionFilter 000000014006256c f   kernel32:KERNEL32.dll
 0002:00041572       GetCurrentProcess          0000000140062572 f   kernel32:KERNEL32.dll
 0002:00041578       TerminateProcess           0000000140062578 f   kernel32:KERNEL32.dll
 0002:0004157e       IsProcessorFeaturePresent  000000014006257e f   kernel32:KERNEL32.dll
 0002:00041584       GetStartupInfoW            0000000140062584 f   kernel32:KERNEL32.dll
 0002:0004158a       QueryPerformanceCounter    000000014006258a f   kernel32:KERNEL32.dll
 0002:00041590       GetCurrentProcessId        0000000140062590 f   kernel32:KERNEL32.dll
 0002:00041596       GetSystemTimeAsFileTime    0000000140062596 f   kernel32:KERNEL32.dll
 0002:0004159c       GetLastError               000000014006259c f   kernel32:KERNEL32.dll
 0002:000415a2       HeapAlloc                  00000001400625a2 f   kernel32:KERNEL32.dll
 0002:000415a8       HeapFree                   00000001400625a8 f   kernel32:KERNEL32.dll
 0002:000415ae       GetProcessHeap             00000001400625ae f   kernel32:KERNEL32.dll
 0002:000415b4       VirtualQuery               00000001400625b4 f   kernel32:KERNEL32.dll
 0002:000415ba       FreeLibrary                00000001400625ba f   kernel32:KERNEL32.dll
 0002:000415c0       __acrt_initialize          00000001400625c0 f   MSVCRTD:ucrt_stubs.obj
 0002:000415c0       __vcrt_initialize          00000001400625c0 f   MSVCRTD:ucrt_stubs.obj
 0002:000415c0       __scrt_stub_for_acrt_initialize 00000001400625c0 f   MSVCRTD:ucrt_stubs.obj
 0002:000415d0       __scrt_stub_for_acrt_thread_attach 00000001400625d0 f   MSVCRTD:ucrt_stubs.obj
 0002:000415d0       __vcrt_thread_attach       00000001400625d0 f   MSVCRTD:ucrt_stubs.obj
 0002:000415d0       __acrt_thread_attach       00000001400625d0 f   MSVCRTD:ucrt_stubs.obj
 0002:000415e0       __acrt_thread_detach       00000001400625e0 f   MSVCRTD:ucrt_stubs.obj
 0002:000415e0       __vcrt_thread_detach       00000001400625e0 f   MSVCRTD:ucrt_stubs.obj
 0002:000415e0       __scrt_stub_for_acrt_thread_detach 00000001400625e0 f   MSVCRTD:ucrt_stubs.obj
 0002:000415f0       __scrt_stub_for_acrt_uninitialize 00000001400625f0 f   MSVCRTD:ucrt_stubs.obj
 0002:000415f0       __acrt_uninitialize        00000001400625f0 f   MSVCRTD:ucrt_stubs.obj
 0002:000415f0       __vcrt_uninitialize        00000001400625f0 f   MSVCRTD:ucrt_stubs.obj
 0002:00041600       __scrt_stub_for_acrt_uninitialize_critical 0000000140062600 f   MSVCRTD:ucrt_stubs.obj
 0002:00041600       __vcrt_uninitialize_critical 0000000140062600 f   MSVCRTD:ucrt_stubs.obj
 0002:00041600       __acrt_uninitialize_critical 0000000140062600 f   MSVCRTD:ucrt_stubs.obj
 0002:00041610       _is_c_termination_complete 0000000140062610 f   MSVCRTD:ucrt_stubs.obj
 0002:00041610       __scrt_stub_for_is_c_termination_complete 0000000140062610 f   MSVCRTD:ucrt_stubs.obj
 0002:00043250       _guard_dispatch_icall_nop  0000000140064250 f   MSVCRTD:guard_dispatch.obj
 0002:00043270       _guard_xfg_dispatch_icall_nop 0000000140064270 f   MSVCRTD:guard_xfg_dispatch.obj
 0003:00000000       __xc_a                     000000014006b000     MSVCRTD:initializers.obj
 0003:00000440       __xc_z                     000000014006b440     MSVCRTD:initializers.obj
 0003:00000550       __xi_a                     000000014006b550     MSVCRTD:initializers.obj
 0003:00000990       __xi_z                     000000014006b990     MSVCRTD:initializers.obj
 0003:00000aa0       __xl_a                     000000014006baa0     MSVCRTD:tlssup.obj
 0003:00000aa8       __xl_z                     000000014006baa8     MSVCRTD:tlssup.obj
 0003:00000ab0       __xp_a                     000000014006bab0     MSVCRTD:initializers.obj
 0003:00000bc0       __xp_z                     000000014006bbc0     MSVCRTD:initializers.obj
 0003:00000cd0       __xt_a                     000000014006bcd0     MSVCRTD:initializers.obj
 0003:00000de0       __xt_z                     000000014006bde0     MSVCRTD:initializers.obj
 0003:00000ef8       ??_7ClientHandler@Client@Domain@@6B@ 000000014006bef8     ClientHandler.obj
 0003:00000f16       ??_C@_00CNPNBAHC@@         000000014006bf16     ClientHandler.obj
 0003:00000f18       ??$_Any_small_RTTI_obj@V?$basic_string@DU?$char_traits@D@std@@V?$allocator@D@2@@std@@@std@@3U_Any_small_RTTI@1@B 000000014006bf18     Session.obj
 0003:00002a40       ??_7exception@std@@6B@     000000014006da40     Session.obj
 0003:00002a58       ??_C@_0BC@EOODALEL@Unknown?5exception@ 000000014006da58     Session.obj
 0003:00002a78       ??_7bad_alloc@std@@6B@     000000014006da78     Session.obj
 0003:00002a98       ??_7bad_array_new_length@std@@6B@ 000000014006da98     Session.obj
 0003:00002ab0       ??_C@_0BF@KINCDENJ@bad?5array?5new?5length@ 000000014006dab0     Session.obj
 0003:00002ad8       ??_7bad_cast@std@@6B@      000000014006dad8     Session.obj
 0003:00002af0       ??_C@_08EPJLHIJG@bad?5cast@ 000000014006daf0     Session.obj
 0003:00002b00       ??_C@_0BB@FCMFBGOM@invalid?5argument@ 000000014006db00     Session.obj
 0003:00002b14       ??_C@_02DKCKIIND@?$CFs@    000000014006db14     Session.obj
 0003:00002b20       ??_C@_0GI@JMEOMKJO@C?3?2Program?5Files?5?$CIx86?$CJ?2Microsof@ 000000014006db20     Session.obj
 0003:00002ba0       ??_C@_1NA@FEEOBALC@?$AAC?$AA?3?$AA?2?$AAP?$AAr?$AAo?$AAg?$AAr?$AAa?$AAm?$AA?5?$AAF?$AAi?$AAl?$AAe@ 000000014006dba0     Session.obj
 0003:00002ca0       ??_C@_1EK@NIFDJFDG@?$AAs?$AAt?$AAd?$AA?3?$AA?3?$AA_?$AAA?$AAd?$AAj?$AAu?$AAs?$AAt?$AA_?$AAm?$AAa@ 000000014006dca0     Session.obj
 0003:00002cf8       ??_C@_1CG@JNLFBNGN@?$AA?$CC?$AAi?$AAn?$AAv?$AAa?$AAl?$AAi?$AAd?$AA?5?$AAa?$AAr?$AAg?$AAu?$AAm?$AAe@ 000000014006dcf8     Session.obj
 0003:00002d28       ??_C@_0BJ@LFDBABJJ@ITERATOR?5LIST?5CORRUPTED?$CB@ 000000014006dd28     Session.obj
 0003:00002d50       ??_C@_1EE@KLDMFDFL@?$AAs?$AAt?$AAd?$AA?3?$AA?3?$AA_?$AAI?$AAt?$AAe?$AAr?$AAa?$AAt?$AAo?$AAr?$AA_@ 000000014006dd50     Session.obj
 0003:00002da8       ??_C@_1DG@PLBPCAEM@?$AA?$CC?$AAI?$AAT?$AAE?$AAR?$AAA?$AAT?$AAO?$AAR?$AA?5?$AAL?$AAI?$AAS?$AAT?$AA?5@ 000000014006dda8     Session.obj
 0003:00002df0       ??_7bad_any_cast@std@@6B@  000000014006ddf0     Session.obj
 0003:00002e08       ??_C@_0N@HLEAKECE@Bad?5any_cast@ 000000014006de08     Session.obj
 0003:00002e18       ??_C@_0BA@JFNIOLAK@string?5too?5long@ 000000014006de18     Session.obj
 0003:00002e38       ??_7runtime_error@std@@6B@ 000000014006de38     Session.obj
 0003:00002e50       ??_C@_0BB@GCADKGJO@map?1set?5too?5long@ 000000014006de50     Session.obj
 0003:00002e70       ??_7SessionException@SessionHandler@Session@Domain@@6B@ 000000014006de70     Session.obj
 0003:00002e90       ??_7BadCommand@SessionHandler@Session@Domain@@6B@ 000000014006de90     Session.obj
 0003:00002eb0       ??_7SessionHandler@Session@Domain@@6B@ 000000014006deb0     Session.obj
 0003:00002ed0       ??_C@_0GI@DEICPIDJ@C?3?2Program?5Files?5?$CIx86?$CJ?2Microsof@ 000000014006ded0     Session.obj
 0003:00002f50       ??_C@_0GI@LHMPPKJI@C?3?2Program?5Files?5?$CIx86?$CJ?2Microsof@ 000000014006df50     Session.obj
 0003:00002fd8       ??_7SessionBase@Session@Domain@@6B@ 000000014006dfd8     Session.obj
 0003:00003000       ??_7ITAdministratorSession@Session@Domain@@6B@ 000000014006e000     Session.obj
 0003:00003028       ??_7AssistantSession@Session@Domain@@6B@ 000000014006e028     Session.obj
 0003:00003050       ??_7SalespersonSession@Session@Domain@@6B@ 000000014006e050     Session.obj
 0003:00003078       ??_7SalesManagerSession@Session@Domain@@6B@ 000000014006e078     Session.obj
 0003:000030a0       ??_7ClientDomain@Client@Domain@@6B@ 000000014006e0a0     Session.obj
 0003:000030c0       ??_C@_0BI@BCKAEEG@?$CC?5shutdown?5successfully@ 000000014006e0c0     Session.obj
 0003:000030e0       ??_C@_09NHGCAMBC@Session?5?$CC@ 000000014006e0e0     Session.obj
 0003:000030f8       ??_7ClientSession@Client@Domain@@6B@ 000000014006e0f8     Session.obj
 0003:00003118       ??_C@_0BA@ONEJIIDJ@?$CC?5checkout?5by?5?$CC@ 000000014006e118     Session.obj
 0003:00003130       ??_C@_07KOJAGPG@Title?5?$CC@ 000000014006e130     Session.obj
 0003:00003140       ??_C@_0BA@CBKHFNFK@checkoutBook?3?5?5@ 000000014006e140     Session.obj
 0003:00003154       ??_C@_04CEJDCDCH@test@     000000014006e154     Session.obj
 0003:0000315c       ??_C@_02BAABKJLB@?9?9@     000000014006e15c     Session.obj
 0003:00003160       ??_C@_01EEMJAFIK@?6@       000000014006e160     Session.obj
 0003:00003168       ??_C@_0DD@ODCAKGML@?$CC?5being?5used?5and?5has?5been?5succe@ 000000014006e168     Session.obj
 0003:000031a8       ??_C@_0BP@LDPKGJO@List?5Of?5Clients?5Updated?5Table?6@ 000000014006e1a8     Session.obj
 0003:000031d0       ??_C@_0L@IELDBGIM@?5Creator?5?6@ 000000014006e1d0     Session.obj
 0003:000031e0       ??_C@_0M@JEKJGHKJ@Client?5ID?5?5@ 000000014006e1e0     Session.obj
 0003:000031f0       ??_C@_0BB@EACHBHJ@Client?5Genarated@ 000000014006e1f0     Session.obj
 0003:00003208       ??_C@_0O@CECDAEGN@?5Client?5ID?3?5?$CC@ 000000014006e208     Session.obj
 0003:00003218       ??_C@_03HJEJCFBE@?$CC?5?5@ 000000014006e218     Session.obj
 0003:00003220       ??_C@_0BM@MCKGDABE@?$CC?5request?5with?5parameters?3?5@ 000000014006e220     Session.obj
 0003:00003248       ??_C@_0BA@NGCPBCD@Responding?5to?5?$CC@ 000000014006e248     Session.obj
 0003:00003260       ??_C@_0BII@KDHNJBKI@class?5std?3?3any?5__cdecl?5Domain?3?3@ 000000014006e260     Session.obj
 0003:00003438       ??_C@_0BK@BJAGDGOJ@?$CC?5failed?0?5no?5such?5command@ 000000014006e438     Session.obj
 0003:00003458       ??_C@_0BG@PDDGODBF@?5attempt?5to?5execute?5?$CC@ 000000014006e458     Session.obj
 0003:00003478       ??_C@_0BD@PMHKAIOJ@Responding?5with?3?5?$CC@ 000000014006e478     Session.obj
 0003:00003490       ??_C@_08KIJEALLB@IT?5Admin@ 000000014006e490     Session.obj
 0003:000034a0       ??_C@_0BG@CLDEOIPM@?$CC?5as?5role?5?$CCIT?5Admin?$CC?4@ 000000014006e4a0     Session.obj
 0003:000034c0       ??_C@_0BH@OEENBGGA@Login?5Successful?5for?5?$CC@ 000000014006e4c0     Session.obj
 0003:000034e0       ??_C@_0BA@IMDKPJEF@Add?5New?5Account@ 000000014006e4e0     Session.obj
 0003:000034f8       ??_C@_0BB@CLMENHDM@Back?9up?5Database@ 000000014006e4f8     Session.obj
 0003:00003510       ??_C@_09JDLGGIJM@Assistant@ 000000014006e510     Session.obj
 0003:00003520       ??_C@_0BH@PCJBLIPB@?$CC?5as?5role?5?$CCAssistant?$CC?4@ 000000014006e520     Session.obj
 0003:00003540       ??_C@_0BB@OOLJNJAN@Show?5All?5Clients@ 000000014006e540     Session.obj
 0003:00003558       ??_C@_0P@FNHHOOAI@Add?5New?5Client@ 000000014006e558     Session.obj
 0003:00003570       ??_C@_0O@BDNDHKMM@Modify?5Client@ 000000014006e570     Session.obj
 0003:00003580       ??_C@_0BA@IOHIGNDE@Ask?5IT?5for?5Help@ 000000014006e580     Session.obj
 0003:00003598       ??_C@_0P@JCBMFHEG@Schedule?5Event@ 000000014006e598     Session.obj
 0003:000035b0       ??_C@_0BH@DMHOFDJD@Attach?5Client?5Document@ 000000014006e5b0     Session.obj
 0003:000035d0       ??_C@_0O@FOGFLPIB@Invite?5Client@ 000000014006e5d0     Session.obj
 0003:000035e0       ??_C@_0M@FHFJHGNJ@Salesperson@ 000000014006e5e0     Session.obj
 0003:000035f0       ??_C@_0BJ@IAGINEFK@?$CC?5as?5role?5?$CCSalesperson?$CC?4@ 000000014006e5f0     Session.obj
 0003:00003610       ??_C@_09MKOENMDM@Make?5Sale@ 000000014006e610     Session.obj
 0003:00003620       ??_C@_0O@MJAOLBNB@Sales?5Manager@ 000000014006e620     Session.obj
 0003:00003630       ??_C@_0BL@LLNLGCEB@?$CC?5as?5role?5?$CCSales?5Manager?$CC?4@ 000000014006e630     Session.obj
 0003:00003650       ??_C@_0BE@MMFMMPIL@Manage?5Subscription@ 000000014006e650     Session.obj
 0003:00003668       ??_C@_0BP@OLDKBHLM@map?1set?5iterators?5incompatible@ 000000014006e668     Session.obj
 0003:00003690       ??_C@_0GG@JEDBIIGA@C?3?2Program?5Files?5?$CIx86?$CJ?2Microsof@ 000000014006e690     Session.obj
 0003:00003710       ??_C@_1MM@PEILDNJI@?$AAC?$AA?3?$AA?2?$AAP?$AAr?$AAo?$AAg?$AAr?$AAa?$AAm?$AA?5?$AAF?$AAi?$AAl?$AAe@ 000000014006e710     Session.obj
 0003:00003810       ??_C@_1DOK@DDLLOJ@?$AAs?$AAt?$AAd?$AA?3?$AA?3?$AA_?$AAT?$AAr?$AAe?$AAe?$AA_?$AAc?$AAo?$AAn?$AAs@ 000000014006e810     Session.obj
 0003:00003cd0       ??_C@_1EC@JLIDLCDH@?$AA?$CC?$AAm?$AAa?$AAp?$AA?1?$AAs?$AAe?$AAt?$AA?5?$AAi?$AAt?$AAe?$AAr?$AAa?$AAt@ 000000014006ecd0     Session.obj
 0003:00003d20       ??_C@_0N@LPFKKEBD@?3AM?3am?3PM?3pm@ 000000014006ed20     Session.obj
 0003:00003d30       ??_C@_0BO@PFKOHNJC@vector?5subscript?5out?5of?5range@ 000000014006ed30     Session.obj
 0003:00003d60       ??_C@_0GH@HACIOKNJ@C?3?2Program?5Files?5?$CIx86?$CJ?2Microsof@ 000000014006ed60     Session.obj
 0003:00003de0       ??_C@_1MO@KFAGNMIJ@?$AAC?$AA?3?$AA?2?$AAP?$AAr?$AAo?$AAg?$AAr?$AAa?$AAm?$AA?5?$AAF?$AAi?$AAl?$AAe@ 000000014006ede0     Session.obj
 0003:00003ee0       ??_C@_1BME@NCIPHHDN@?$AAs?$AAt?$AAd?$AA?3?$AA?3?$AAv?$AAe?$AAc?$AAt?$AAo?$AAr?$AA?$DM?$AAc?$AAl?$AAa@ 000000014006eee0     Session.obj
 0003:00004100       ??_C@_1EA@LEKOKFNB@?$AA?$CC?$AAv?$AAe?$AAc?$AAt?$AAo?$AAr?$AA?5?$AAs?$AAu?$AAb?$AAs?$AAc?$AAr?$AAi@ 000000014006f100     Session.obj
 0003:00004150       ??_C@_0BA@FOIKENOD@vector?5too?5long@ 000000014006f150     Session.obj
 0003:00004168       ??_C@_0DG@LCFNIIPB@cannot?5dereference?5value?9initia@ 000000014006f168     Session.obj
 0003:000041b0       ??_C@_1DOI@BPNCMCPF@?$AAs?$AAt?$AAd?$AA?3?$AA?3?$AA_?$AAT?$AAr?$AAe?$AAe?$AA_?$AAc?$AAo?$AAn?$AAs@ 000000014006f1b0     Session.obj
 0003:00004660       ??_C@_1HA@ILGCNILF@?$AA?$CC?$AAc?$AAa?$AAn?$AAn?$AAo?$AAt?$AA?5?$AAd?$AAe?$AAr?$AAe?$AAf?$AAe?$AAr@ 000000014006f660     Session.obj
 0003:000046e8       ??_C@_0CI@OKFEHCEB@cannot?5dereference?5end?5map?1set?5@ 000000014006f6e8     Session.obj
 0003:00004720       ??_C@_1FE@NKHAAGMB@?$AA?$CC?$AAc?$AAa?$AAn?$AAn?$AAo?$AAt?$AA?5?$AAd?$AAe?$AAr?$AAe?$AAf?$AAe?$AAr@ 000000014006f720     Session.obj
 0003:00004788       ??_C@_0BI@CFPLBAOH@invalid?5string?5position@ 000000014006f788     Session.obj
 0003:000047a8       ??_C@_1BK@MHIKGOKE@?$AA?3?$AAA?$AAM?$AA?3?$AAa?$AAm?$AA?3?$AAP?$AAM?$AA?3?$AAp?$AAm@ 000000014006f7a8     Session.obj
 0003:000047c8       ??_C@_0BJ@HAJGEHKO@transposed?5pointer?5range@ 000000014006f7c8     Session.obj
 0003:000047f0       ??_C@_0GJ@NENAPENJ@C?3?2Program?5Files?5?$CIx86?$CJ?2Microsof@ 000000014006f7f0     Session.obj
 0003:00004870       ??_C@_1NC@MGIEKFBC@?$AAC?$AA?3?$AA?2?$AAP?$AAr?$AAo?$AAg?$AAr?$AAa?$AAm?$AA?5?$AAF?$AAi?$AAl?$AAe@ 000000014006f870     Session.obj
 0003:00004970       ??_C@_1CG@LJCPDKEJ@?$AAs?$AAt?$AAd?$AA?3?$AA?3?$AA_?$AAV?$AAe?$AAr?$AAi?$AAf?$AAy?$AA_?$AAr?$AAa@ 000000014006f970     Session.obj
 0003:000049a0       ??_C@_1DG@FJIKMGFD@?$AA?$CC?$AAt?$AAr?$AAa?$AAn?$AAs?$AAp?$AAo?$AAs?$AAe?$AAd?$AA?5?$AAp?$AAo?$AAi@ 000000014006f9a0     Session.obj
 0003:000049e0       ??_C@_1EO@GFNCMDLA@?$AAs?$AAt?$AAd?$AA?3?$AA?3?$AA_?$AAA?$AAl?$AAl?$AAo?$AAc?$AAa?$AAt?$AAe?$AA_@ 000000014006f9e0     Session.obj
 0003:00004a40       ??_C@_0BD@FEEMDEPI@invalid?5comparator@ 000000014006fa40     Session.obj
 0003:00004a58       ??_C@_1CI@JONCLBEJ@?$AAs?$AAt?$AAd?$AA?3?$AA?3?$AA_?$AAD?$AAe?$AAb?$AAu?$AAg?$AA_?$AAl?$AAt?$AA_@ 000000014006fa58     Session.obj
 0003:00004a88       ??_C@_1CK@NDNHPKPI@?$AA?$CC?$AAi?$AAn?$AAv?$AAa?$AAl?$AAi?$AAd?$AA?5?$AAc?$AAo?$AAm?$AAp?$AAa?$AAr@ 000000014006fa88     Session.obj
 0003:00004b50       ??_7logic_error@std@@6B@   000000014006fb50     SessionHandler.obj
 0003:00004b70       ??_C@_0PH@BGJJJDPH@class?5std?3?3unique_ptr?$DMclass?5Dom@ 000000014006fb70     SessionHandler.obj
 0003:00004c98       ??_C@_0CE@MDEHHBOJ@Invalid?5role?5requested?5in?5funct@ 000000014006fc98     SessionHandler.obj
 0003:000050b0       ??_C@_0CL@CDNJEIGC@?6Money?5Trail?5CRM?5system?5initial@ 00000001400700b0     main.obj
 0003:000050e8       ??_C@_0CI@OPNOBPOD@?6Initialization?5completed?5succe@ 00000001400700e8     main.obj
 0003:00005118       ??_C@_0DF@IPBKNIOF@Ready?5to?5transition?5into?5Operat@ 0000000140070118     main.obj
 0003:00005158       ??_C@_0CI@IJOIBBJE@?6Program?5complete?0?5initiating?5s@ 0000000140070158     main.obj
 0003:00005188       ??_C@_0CP@OEDGJPBF@Fatal?3?5?5Uncaught?5memory?5allocat@ 0000000140070188     main.obj
 0003:000051c0       ??_C@_0CF@INAELGLH@Fatal?3?5?5Uncaught?5standard?5excep@ 00000001400701c0     main.obj
 0003:000051f0       ??_C@_0CL@CGNHJBGJ@Fatal?3?5?5Uncaught?5?$CIunknown?5type?$CJ@ 00000001400701f0     main.obj
 0003:000054d8       ??_7LoggerException@LoggerHandler@Logging@TechnicalServices@@6B@ 00000001400704d8     LoggerHandler.obj
 0003:000054f8       ??_7BadLoggerRequest@LoggerHandler@Logging@TechnicalServices@@6B@ 00000001400704f8     LoggerHandler.obj
 0003:00005518       ??_7LoggerHandler@Logging@TechnicalServices@@6B@ 0000000140070518     LoggerHandler.obj
 0003:00005538       ??_7SimpleLogger@Logging@TechnicalServices@@6B@ 0000000140070538     LoggerHandler.obj
 0003:00005550       ??_C@_0DP@BJCMHAFL@Simple?5Logger?5being?5used?5and?5ha@ 0000000140070550     LoggerHandler.obj
 0003:000055a0       ??_C@_0CE@HLNLKCMN@Simple?5Logger?5shutdown?5successf@ 00000001400705a0     LoggerHandler.obj
 0003:000055cc       ??_C@_03LGOGDKEL@?5?$HM?5@ 00000001400705cc     LoggerHandler.obj
 0003:000055d0       ??_C@_0M@EHAPGNAC@?$CFY?9?$CFm?9?$CFd?5?$CFX@ 00000001400705d0     LoggerHandler.obj
 0003:000055e0       ??_C@_0BB@DIDJNGIG@Component?4Logger@ 00000001400705e0     LoggerHandler.obj
 0003:000055f8       ??_C@_0O@DEDBBBEE@Simple?5Logger@ 00000001400705f8     LoggerHandler.obj
 0003:00005610       ??_C@_0BAP@HMONGLGF@class?5std?3?3unique_ptr?$DMclass?5Tec@ 0000000140070610     LoggerHandler.obj
 0003:00005758       ??_C@_0BK@JFDMOKKO@?$CC?6?5?5detected?5in?5function?5@ 0000000140070758     LoggerHandler.obj
 0003:00005778       ??_C@_0CD@FNBOPCPL@Unknown?5Logger?5object?5requested@ 0000000140070778     LoggerHandler.obj
 0003:000057b0       ??_7PersistenceHandler@Persistence@TechnicalServices@@6B@ 00000001400707b0     PersistenceHandler.obj
 0003:00007413       ?piecewise_construct@std@@3Upiecewise_construct_t@1@B 0000000140072413     SimpleDB.obj
 0003:00007420       ??_7PersistenceException@PersistenceHandler@Persistence@TechnicalServices@@6B@ 0000000140072420     SimpleDB.obj
 0003:00007440       ??_7NoSuchUser@PersistenceHandler@Persistence@TechnicalServices@@6B@ 0000000140072440     SimpleDB.obj
 0003:00007460       ??_7NoSuchProperty@PersistenceHandler@Persistence@TechnicalServices@@6B@ 0000000140072460     SimpleDB.obj
 0003:00007480       ??_7SimpleDB@Persistence@TechnicalServices@@6B@ 0000000140072480     SimpleDB.obj
 0003:000074c0       ??_7?$basic_filebuf@DU?$char_traits@D@std@@@std@@6B@ 00000001400724c0     SimpleDB.obj
 0003:00007560       ??_7?$basic_ifstream@DU?$char_traits@D@std@@@std@@6B@ 0000000140072560     SimpleDB.obj
 0003:00007570       ??_8?$basic_ifstream@DU?$char_traits@D@std@@@std@@7B@ 0000000140072570     SimpleDB.obj
 0003:00007580       ??_C@_0DL@BHBHICOE@Simple?5DB?5being?5used?5and?5has?5be@ 0000000140072580     SimpleDB.obj
 0003:000075c8       ??_C@_0CB@JLAEOENE@Library_System_AdaptableData?4da@ 00000001400725c8     SimpleDB.obj
 0003:000075f0       ??_C@_02CBLDBPFN@?1?1@     00000001400725f0     SimpleDB.obj
 0003:000075f8       ??_C@_09NMAKHIEJ@Simple?5UI@ 00000001400725f8     SimpleDB.obj
 0003:00007608       ??_C@_0N@GNLLJOEH@Component?4UI@ 0000000140072608     SimpleDB.obj
 0003:00007618       ??_C@_0CA@BHOLIMIF@Simple?5DB?5shutdown?5successfully@ 0000000140072618     SimpleDB.obj
 0003:00007640       ??_C@_0BB@NANNIDAN@Security?5Officer@ 0000000140072640     SimpleDB.obj
 0003:00007654       ??_C@_01FHEEJDEE@A@        0000000140072654     SimpleDB.obj
 0003:00007658       ??_C@_01HMGJMAIH@B@        0000000140072658     SimpleDB.obj
 0003:0000765c       ??_C@_03JAMCBOB@Tom@       000000014007265c     SimpleDB.obj
 0003:00007660       ??_C@_04FICNKJPG@CPSC@     0000000140072660     SimpleDB.obj
 0003:00007668       ??_C@_06HIBGKFBP@Amanda@   0000000140072668     SimpleDB.obj
 0003:00007670       ??_C@_0OA@CKEAIMJA@struct?5TechnicalServices?3?3Persi@ 0000000140072670     SimpleDB.obj
 0003:00007780       ??_C@_08MNBGHMON@?$CC?5failed@ 0000000140072780     SimpleDB.obj
 0003:00007790       ??_C@_0BI@CAAODGOO@?5attempt?5to?5find?5user?5?$CC@ 0000000140072790     SimpleDB.obj
 0003:000077b0       ??_C@_0BAE@KNCHKPDC@const?5class?5std?3?3basic_string?$DMc@ 00000001400727b0     SimpleDB.obj
 0003:000078e8       ??_C@_0BG@FEFICEAE@?$CC?5failed?0?5no?5such?5Key@ 00000001400728e8     SimpleDB.obj
 0003:00007908       ??_C@_0DA@BNFLCIAL@?5attempt?5to?5access?5adaptation?5d@ 0000000140072908     SimpleDB.obj
 0003:00007950       ??_C@_0GI@GFIDMGHH@C?3?2Program?5Files?5?$CIx86?$CJ?2Microsof@ 0000000140072950     SimpleDB.obj
 0003:000079d0       ??_C@_1NA@LKMCOJGD@?$AAC?$AA?3?$AA?2?$AAP?$AAr?$AAo?$AAg?$AAr?$AAa?$AAm?$AA?5?$AAF?$AAi?$AAl?$AAe@ 00000001400729d0     SimpleDB.obj
 0003:00007ad0       ??_C@_1CFG@FGJHCIBH@?$AAs?$AAt?$AAd?$AA?3?$AA?3?$AA_?$AAT?$AAr?$AAe?$AAe?$AA_?$AAc?$AAo?$AAn?$AAs@ 0000000140072ad0     SimpleDB.obj
 0003:00007da0       ??_C@_1CFE@PPLBLEGL@?$AAs?$AAt?$AAd?$AA?3?$AA?3?$AA_?$AAT?$AAr?$AAe?$AAe?$AA_?$AAc?$AAo?$AAn?$AAs@ 0000000140072da0     SimpleDB.obj
 0003:00008070       ??_C@_0BP@PFIPNLNI@front?$CI?$CJ?5called?5on?5empty?5string@ 0000000140073070     SimpleDB.obj
 0003:000080a0       ??_C@_1LC@BJDDPGPA@?$AAs?$AAt?$AAd?$AA?3?$AA?3?$AAb?$AAa?$AAs?$AAi?$AAc?$AA_?$AAs?$AAt?$AAr?$AAi@ 00000001400730a0     SimpleDB.obj
 0003:00008180       ??_C@_1EC@DINNLDHA@?$AA?$CC?$AAf?$AAr?$AAo?$AAn?$AAt?$AA?$CI?$AA?$CJ?$AA?5?$AAc?$AAa?$AAl?$AAl?$AAe?$AAd@ 0000000140073180     SimpleDB.obj
 0003:00008970       ??_7UserInterfaceHandler@UI@@6B@ 0000000140073970     SimpleUI.obj
 0003:00008990       ??_7SimpleUI@UI@@6B@       0000000140073990     SimpleUI.obj
 0003:000089a8       ??_C@_0DL@DGNBDAFF@Simple?5UI?5being?5used?5and?5has?5be@ 00000001400739a8     SimpleUI.obj
 0003:000089f0       ??_C@_0CA@GAGEKOHD@Simple?5UI?5shutdown?5successfully@ 00000001400739f0     SimpleUI.obj
 0003:00008a18       ??_C@_08KLHCBAMK@?5?5name?3?5@ 0000000140073a18     SimpleUI.obj
 0003:00008a28       ??_C@_0BA@ILPNJJBN@?5?5pass?5phrase?3?5@ 0000000140073a28     SimpleUI.obj
 0003:00008a40       ??_C@_0BC@CNBJIMPF@Login?5Successful?6@ 0000000140073a40     SimpleUI.obj
 0003:00008a58       ??_C@_0BB@MICAEIDH@?$CK?$CK?5Login?5failed?6@ 0000000140073a58     SimpleUI.obj
 0003:00008a6c       ??_C@_03NLJIHOMM@?5?9?5@   0000000140073a6c     SimpleUI.obj
 0003:00008a70       ??_C@_05FHOEHKDO@Quit?6@   0000000140073a70     SimpleUI.obj
 0003:00008a78       ??_C@_03LPPJIELD@?$CJ?3?5@ 0000000140073a78     SimpleUI.obj
 0003:00008a80       ??_C@_0N@HNKDLDDO@?5?5action?5?$CI0?9@ 0000000140073a80     SimpleUI.obj
 0003:00008a90       ??_C@_0BD@MDGDICNG@Command?5selected?5?$CC@ 0000000140073a90     SimpleUI.obj
 0003:00008aa8       ??_C@_0O@OLLJLLAF@Checkout?5Book@ 0000000140073aa8     SimpleUI.obj
 0003:00008ab8       ??_C@_0BH@DBMKOIGM@?5Enter?5book?8s?5title?3?5?5@ 0000000140073ab8     SimpleUI.obj
 0003:00008ad8       ??_C@_0BH@GCLJMHPF@?5Enter?5book?8s?5author?3?5@ 0000000140073ad8     SimpleUI.obj
 0003:00008af8       ??_C@_0BH@POIJFLOI@?5Enter?5book?8s?5ISBN?3?5?5?5@ 0000000140073af8     SimpleUI.obj
 0003:00008b18       ??_C@_0BC@OJPFOAKJ@Received?5reply?3?5?$CC@ 0000000140073b18     SimpleUI.obj
 0003:00008b30       ??_C@_0BC@BMFDLHKK@List?5Of?5Clients?5?6@ 0000000140073b30     SimpleUI.obj
 0003:00008b48       ??_C@_0BA@NFJLLIND@Another?5command@ 0000000140073b48     SimpleUI.obj
 0003:00008b60       ??_C@_0BP@HIAJAIHD@Ending?5session?5and?5terminating@ 0000000140073b60     SimpleUI.obj
 0003:00008cb8       ??_7SystemDriverUI@UI@@6B@ 0000000140073cb8     SystemDriverUI.obj
 0003:00008cd0       ??_C@_0DP@LGMKJIID@Contracted?5UI?5being?5used?5and?5ha@ 0000000140073cd0     SystemDriverUI.obj
 0003:00008d20       ??_C@_0CE@IMNGDNHI@Contracted?5UI?5shutdown?5successf@ 0000000140073d20     SystemDriverUI.obj
 0003:00008d50       ??_C@_0CD@DPNABGIF@Starting?5scenario?51?3?5Checkout?5B@ 0000000140073d50     SystemDriverUI.obj
 0003:00008d80       ??_C@_0BA@HIONGBMM@CPSC?5462?5Rocks?$CB@ 0000000140073d80     SystemDriverUI.obj
 0003:00008d98       ??_C@_08GDNLHFAJ@Borrower@ 0000000140073d98     SystemDriverUI.obj
 0003:00008da8       ??_C@_0BJ@FKDNKJHB@Applied?5UML?5and?5Patterns@ 0000000140073da8     SystemDriverUI.obj
 0003:00008dc8       ??_C@_06NKKFJIDM@Larman@   0000000140073dc8     SystemDriverUI.obj
 0003:00008dd0       ??_C@_0O@NMNHJMGO@0?913?9148906?92@ 0000000140073dd0     SystemDriverUI.obj
 0003:00008de0       ??_C@_0BF@OMEJBECH@Completed?5scenario?51@ 0000000140073de0     SystemDriverUI.obj
 0003:00008e80       ??_7UIException@UserInterfaceHandler@UI@@6B@ 0000000140073e80     UserInterfaceHandler.obj
 0003:00008ea0       ??_7BadUIRequest@UserInterfaceHandler@UI@@6B@ 0000000140073ea0     UserInterfaceHandler.obj
 0003:00008eb8       ??_C@_0O@JFBFKOHB@Contracted?5UI@ 0000000140073eb8     UserInterfaceHandler.obj
 0003:00008ed0       ??_C@_0KD@DNPGOIKM@class?5std?3?3unique_ptr?$DMclass?5UI?3@ 0000000140073ed0     UserInterfaceHandler.obj
 0003:00008f98       ??_C@_0CL@EBGMFP@Unknown?5User?5Interface?5object?5r@ 0000000140073f98     UserInterfaceHandler.obj
 0003:00008fd0       ??_C@_0DO@EILFPDGE@D?3?2agent?2_work?29?2s?2src?2vctools?2@ 0000000140073fd0     msvcprtd:locale0_implib.obj
 0003:00009028       ??_7type_info@@6B@         0000000140074028     MSVCRTD:std_type_info_static.obj
 0003:00009038       ??_C@_17CNPHIMPH@?$AA?$CF?$AAl?$AAs@ 0000000140074038     MSVCRTD:thread_safe_statics.obj
 0003:00009050       ??_C@_1EC@JIJBPKFM@?$AAa?$AAp?$AAi?$AA?9?$AAm?$AAs?$AA?9?$AAw?$AAi?$AAn?$AA?9?$AAc?$AAo?$AAr?$AAe@ 0000000140074050     MSVCRTD:thread_safe_statics.obj
 0003:000090a0       ??_C@_1BK@MGMFAEKH@?$AAk?$AAe?$AAr?$AAn?$AAe?$AAl?$AA3?$AA2?$AA?4?$AAd?$AAl?$AAl@ 00000001400740a0     MSVCRTD:thread_safe_statics.obj
 0003:000090c0       ??_C@_0BJ@JEBJOJFJ@SleepConditionVariableCS@ 00000001400740c0     MSVCRTD:thread_safe_statics.obj
 0003:000090e0       ??_C@_0BJ@PGPPEPCC@WakeAllConditionVariable@ 00000001400740e0     MSVCRTD:thread_safe_statics.obj
 0003:00009100       ??_C@_1JM@JMOPDBLF@?$AAD?$AA?3?$AA?2?$AAa?$AAg?$AAe?$AAn?$AAt?$AA?2?$AA_?$AAw?$AAo?$AAr?$AAk?$AA?2@ 0000000140074100     MSVCRTD:thread_safe_statics.obj
 0003:000091c0       ??_C@_0P@GHFPNOJB@bad?5allocation@ 00000001400741c0     MSVCRTD:throw_bad_alloc.obj
 0003:00009208       ??_C@_0BJ@HEGAHDFO@Stack?5pointer?5corruption@ 0000000140074208     MSVCRTD:userapi.obj
 0003:00009228       ??_C@_0CK@FEGOIOPB@Cast?5to?5smaller?5type?5causing?5lo@ 0000000140074228     MSVCRTD:userapi.obj
 0003:00009260       ??_C@_0BI@CIGMDCBH@Stack?5memory?5corruption@ 0000000140074260     MSVCRTD:userapi.obj
 0003:00009280       ??_C@_0CK@CNLNOEPB@Local?5variable?5used?5before?5init@ 0000000140074280     MSVCRTD:userapi.obj
 0003:000092b8       ??_C@_0BP@OGBCLIBO@Stack?5around?5_alloca?5corrupted@ 00000001400742b8     MSVCRTD:userapi.obj
 0003:000093c0       ??_C@_0NN@JMPELKLB@The?5value?5of?5ESP?5was?5not?5proper@ 00000001400743c0     MSVCRTD:error.obj
 0003:000094d0       ??_C@_0BBN@ELNNILBE@A?5cast?5to?5a?5smaller?5data?5type?5h@ 00000001400744d0     MSVCRTD:error.obj
 0003:00009628       ??_C@_0BN@BPOGFMJL@Stack?5memory?5was?5corrupted?$AN?6@ 0000000140074628     MSVCRTD:error.obj
 0003:00009650       ??_C@_0DG@DAJCDLPN@A?5local?5variable?5was?5used?5befor@ 0000000140074650     MSVCRTD:error.obj
 0003:00009690       ??_C@_0CM@JMIDGKLA@Stack?5memory?5around?5_alloca?5was@ 0000000140074690     MSVCRTD:error.obj
 0003:000096c8       ??_C@_0BO@CHIONIOI@Unknown?5Runtime?5Check?5Error?$AN?6@ 00000001400746c8     MSVCRTD:error.obj
 0003:000096f0       ??_C@_1GM@CNOOJIHC@?$AAR?$AAu?$AAn?$AAt?$AAi?$AAm?$AAe?$AA?5?$AAC?$AAh?$AAe?$AAc?$AAk?$AA?5?$AAE@ 00000001400746f0     MSVCRTD:error.obj
 0003:00009780       ??_C@_1EA@NFKNIFJP@?$AAR?$AAu?$AAn?$AA?9?$AAT?$AAi?$AAm?$AAe?$AA?5?$AAC?$AAh?$AAe?$AAc?$AAk?$AA?5@ 0000000140074780     MSVCRTD:error.obj
 0003:000097d0       ??_C@_0BB@PFFGGCJP@Unknown?5Filename@ 00000001400747d0     MSVCRTD:error.obj
 0003:000097e8       ??_C@_0BE@GNBOBNCK@Unknown?5Module?5Name@ 00000001400747e8     MSVCRTD:error.obj
 0003:00009800       ??_C@_0CA@IODNCDPG@Run?9Time?5Check?5Failure?5?$CD?$CFd?5?9?5?$CFs@ 0000000140074800     MSVCRTD:error.obj
 0003:00009828       ??_C@_0CG@IAFNJNEE@Stack?5corrupted?5near?5unknown?5va@ 0000000140074828     MSVCRTD:error.obj
 0003:00009858       ??_C@_05MKKEDADM@?$CF?42X?5@ 0000000140074858     MSVCRTD:error.obj
 0003:00009860       ??_C@_0EJ@LJKNEOLN@Stack?5area?5around?5_alloca?5memor@ 0000000140074860     MSVCRTD:error.obj
 0003:000098b8       ??_C@_02LLMPMKNF@?$DO?5@   00000001400748b8     MSVCRTD:error.obj
 0003:000098c0       ??_C@_08OMAHNMHJ@?6Data?3?5?$DM@ 00000001400748c0     MSVCRTD:error.obj
 0003:000098d0       ??_C@_0CK@DKGBICFE@?6Allocation?5number?5within?5this?5@ 00000001400748d0     MSVCRTD:error.obj
 0003:00009908       ??_C@_07DFDJCKFN@?6Size?3?5@ 0000000140074908     MSVCRTD:error.obj
 0003:00009918       ??_C@_0N@MHFFIMFG@?6Address?3?50x@ 0000000140074918     MSVCRTD:error.obj
 0003:00009930       ??_C@_0EI@CLEPFNGI@Stack?5area?5around?5_alloca?5memor@ 0000000140074930     MSVCRTD:error.obj
 0003:00009988       ??_C@_0BK@ODNDAGKB@?$CFs?$CFs?$CFp?$CFs?$CFzd?$CFs?$CFd?$CFs?$CFs?$CFs?$CFs?$CFs@ 0000000140074988     MSVCRTD:error.obj
 0003:000099a8       ??_C@_0DE@OHJBPMBP@A?5variable?5is?5being?5used?5withou@ 00000001400749a8     MSVCRTD:error.obj
 0003:00009a70       ??_C@_1EI@MLPKHBGE@?$AAa?$AAp?$AAi?$AA?9?$AAm?$AAs?$AA?9?$AAw?$AAi?$AAn?$AA?9?$AAc?$AAo?$AAr?$AAe@ 0000000140074a70     MSVCRTD:pdblkup.obj
 0003:00009ac8       ??_C@_1BK@JHLNAEJL@?$AAa?$AAd?$AAv?$AAa?$AAp?$AAi?$AA3?$AA2?$AA?4?$AAd?$AAl?$AAl@ 0000000140074ac8     MSVCRTD:pdblkup.obj
 0003:00009ae8       ??_C@_0O@COHOBMLB@RegOpenKeyExW@ 0000000140074ae8     MSVCRTD:pdblkup.obj
 0003:00009af8       ??_C@_0BB@GLNAEDBD@RegQueryValueExW@ 0000000140074af8     MSVCRTD:pdblkup.obj
 0003:00009b10       ??_C@_0M@HLOHPNFA@RegCloseKey@ 0000000140074b10     MSVCRTD:pdblkup.obj
 0003:00009b20       ??_C@_1HE@EBEAGLFB@?$AAS?$AAO?$AAF?$AAT?$AAW?$AAA?$AAR?$AAE?$AA?2?$AAW?$AAo?$AAw?$AA6?$AA4?$AA3@ 0000000140074b20     MSVCRTD:pdblkup.obj
 0003:00009bb0       ??_C@_1BG@EABPBLLF@?$AAP?$AAr?$AAo?$AAd?$AAu?$AAc?$AAt?$AAD?$AAi?$AAr@ 0000000140074bb0     MSVCRTD:pdblkup.obj
 0003:00009bf8       ??_C@_1BC@JINFINNJ@?$AAM?$AAS?$AAP?$AAD?$AAB?$AA1?$AA4?$AA0@ 0000000140074bf8     MSVCRTD:pdblkup.obj
 0003:00009c10       ??_C@_0BB@KCIACLNC@PDBOpenValidate5@ 0000000140074c10     MSVCRTD:pdblkup.obj
 0003:00009c24       ??_C@_01KDCPPGHE@r@        0000000140074c24     MSVCRTD:pdblkup.obj
 0003:00009c60       _load_config_used          0000000140074c60     MSVCRTD:loadcfg.obj
 0003:0000a0c8       _tls_used                  00000001400750c8     MSVCRTD:tlssup.obj
 0003:0000a1f8       ??_R4ClientHandler@Client@Domain@@6B@ 00000001400751f8     ClientHandler.obj
 0003:0000a228       ??_R3ClientHandler@Client@Domain@@8 0000000140075228     ClientHandler.obj
 0003:0000a240       ??_R2ClientHandler@Client@Domain@@8 0000000140075240     ClientHandler.obj
 0003:0000a250       ??_R1A@?0A@EA@ClientHandler@Client@Domain@@8 0000000140075250     ClientHandler.obj
 0003:0000a280       ??_R4exception@std@@6B@    0000000140075280     Session.obj
 0003:0000a2b0       ??_R3exception@std@@8      00000001400752b0     Session.obj
 0003:0000a2c8       ??_R2exception@std@@8      00000001400752c8     Session.obj
 0003:0000a2d8       ??_R1A@?0A@EA@exception@std@@8 00000001400752d8     Session.obj
 0003:0000a308       ??_R4bad_alloc@std@@6B@    0000000140075308     Session.obj
 0003:0000a338       ??_R3bad_alloc@std@@8      0000000140075338     Session.obj
 0003:0000a350       ??_R2bad_alloc@std@@8      0000000140075350     Session.obj
 0003:0000a368       ??_R1A@?0A@EA@bad_alloc@std@@8 0000000140075368     Session.obj
 0003:0000a398       ??_R4bad_array_new_length@std@@6B@ 0000000140075398     Session.obj
 0003:0000a3c8       ??_R3bad_array_new_length@std@@8 00000001400753c8     Session.obj
 0003:0000a3e0       ??_R2bad_array_new_length@std@@8 00000001400753e0     Session.obj
 0003:0000a408       ??_R1A@?0A@EA@bad_array_new_length@std@@8 0000000140075408     Session.obj
 0003:0000a438       ??_R4bad_cast@std@@6B@     0000000140075438     Session.obj
 0003:0000a468       ??_R3bad_cast@std@@8       0000000140075468     Session.obj
 0003:0000a480       ??_R2bad_cast@std@@8       0000000140075480     Session.obj
 0003:0000a498       ??_R1A@?0A@EA@bad_cast@std@@8 0000000140075498     Session.obj
 0003:0000a4c8       ??_R4bad_any_cast@std@@6B@ 00000001400754c8     Session.obj
 0003:0000a4f8       ??_R3bad_any_cast@std@@8   00000001400754f8     Session.obj
 0003:0000a510       ??_R2bad_any_cast@std@@8   0000000140075510     Session.obj
 0003:0000a538       ??_R1A@?0A@EA@bad_any_cast@std@@8 0000000140075538     Session.obj
 0003:0000a568       ??_R4runtime_error@std@@6B@ 0000000140075568     Session.obj
 0003:0000a598       ??_R3runtime_error@std@@8  0000000140075598     Session.obj
 0003:0000a5b0       ??_R2runtime_error@std@@8  00000001400755b0     Session.obj
 0003:0000a5c8       ??_R1A@?0A@EA@runtime_error@std@@8 00000001400755c8     Session.obj
 0003:0000a5f8       ??_R4SessionHandler@Session@Domain@@6B@ 00000001400755f8     Session.obj
 0003:0000a628       ??_R3SessionHandler@Session@Domain@@8 0000000140075628     Session.obj
 0003:0000a640       ??_R2SessionHandler@Session@Domain@@8 0000000140075640     Session.obj
 0003:0000a650       ??_R1A@?0A@EA@SessionHandler@Session@Domain@@8 0000000140075650     Session.obj
 0003:0000a680       ??_R4SessionException@SessionHandler@Session@Domain@@6B@ 0000000140075680     Session.obj
 0003:0000a6b0       ??_R3SessionException@SessionHandler@Session@Domain@@8 00000001400756b0     Session.obj
 0003:0000a6c8       ??_R2SessionException@SessionHandler@Session@Domain@@8 00000001400756c8     Session.obj
 0003:0000a6f0       ??_R1A@?0A@EA@SessionException@SessionHandler@Session@Domain@@8 00000001400756f0     Session.obj
 0003:0000a720       ??_R4BadCommand@SessionHandler@Session@Domain@@6B@ 0000000140075720     Session.obj
 0003:0000a750       ??_R3BadCommand@SessionHandler@Session@Domain@@8 0000000140075750     Session.obj
 0003:0000a768       ??_R2BadCommand@SessionHandler@Session@Domain@@8 0000000140075768     Session.obj
 0003:0000a798       ??_R1A@?0A@EA@BadCommand@SessionHandler@Session@Domain@@8 0000000140075798     Session.obj
 0003:0000a7c8       ??_R4SessionBase@Session@Domain@@6B@ 00000001400757c8     Session.obj
 0003:0000a7f8       ??_R3SessionBase@Session@Domain@@8 00000001400757f8     Session.obj
 0003:0000a810       ??_R2SessionBase@Session@Domain@@8 0000000140075810     Session.obj
 0003:0000a828       ??_R1A@?0A@EA@SessionBase@Session@Domain@@8 0000000140075828     Session.obj
 0003:0000a858       ??_R4ITAdministratorSession@Session@Domain@@6B@ 0000000140075858     Session.obj
 0003:0000a888       ??_R3ITAdministratorSession@Session@Domain@@8 0000000140075888     Session.obj
 0003:0000a8a0       ??_R2ITAdministratorSession@Session@Domain@@8 00000001400758a0     Session.obj
 0003:0000a8c8       ??_R1A@?0A@EA@ITAdministratorSession@Session@Domain@@8 00000001400758c8     Session.obj
 0003:0000a8f8       ??_R4AssistantSession@Session@Domain@@6B@ 00000001400758f8     Session.obj
 0003:0000a928       ??_R3AssistantSession@Session@Domain@@8 0000000140075928     Session.obj
 0003:0000a940       ??_R2AssistantSession@Session@Domain@@8 0000000140075940     Session.obj
 0003:0000a968       ??_R1A@?0A@EA@AssistantSession@Session@Domain@@8 0000000140075968     Session.obj
 0003:0000a998       ??_R4SalespersonSession@Session@Domain@@6B@ 0000000140075998     Session.obj
 0003:0000a9c8       ??_R3SalespersonSession@Session@Domain@@8 00000001400759c8     Session.obj
 0003:0000a9e0       ??_R2SalespersonSession@Session@Domain@@8 00000001400759e0     Session.obj
 0003:0000aa08       ??_R1A@?0A@EA@SalespersonSession@Session@Domain@@8 0000000140075a08     Session.obj
 0003:0000aa38       ??_R4SalesManagerSession@Session@Domain@@6B@ 0000000140075a38     Session.obj
 0003:0000aa68       ??_R3SalesManagerSession@Session@Domain@@8 0000000140075a68     Session.obj
 0003:0000aa80       ??_R2SalesManagerSession@Session@Domain@@8 0000000140075a80     Session.obj
 0003:0000aaa8       ??_R1A@?0A@EA@SalesManagerSession@Session@Domain@@8 0000000140075aa8     Session.obj
 0003:0000aad8       ??_R4ClientDomain@Client@Domain@@6B@ 0000000140075ad8     Session.obj
 0003:0000ab08       ??_R3ClientDomain@Client@Domain@@8 0000000140075b08     Session.obj
 0003:0000ab20       ??_R2ClientDomain@Client@Domain@@8 0000000140075b20     Session.obj
 0003:0000ab38       ??_R1A@?0A@EA@ClientDomain@Client@Domain@@8 0000000140075b38     Session.obj
 0003:0000ab68       ??_R4ClientSession@Client@Domain@@6B@ 0000000140075b68     Session.obj
 0003:0000ab98       ??_R3ClientSession@Client@Domain@@8 0000000140075b98     Session.obj
 0003:0000abb0       ??_R2ClientSession@Client@Domain@@8 0000000140075bb0     Session.obj
 0003:0000abd8       ??_R1A@?0A@EA@ClientSession@Client@Domain@@8 0000000140075bd8     Session.obj
 0003:0000ac08       ??_R4logic_error@std@@6B@  0000000140075c08     SessionHandler.obj
 0003:0000ac38       ??_R3logic_error@std@@8    0000000140075c38     SessionHandler.obj
 0003:0000ac50       ??_R2logic_error@std@@8    0000000140075c50     SessionHandler.obj
 0003:0000ac68       ??_R1A@?0A@EA@logic_error@std@@8 0000000140075c68     SessionHandler.obj
 0003:0000ac98       ??_R4LoggerHandler@Logging@TechnicalServices@@6B@ 0000000140075c98     LoggerHandler.obj
 0003:0000acc8       ??_R3LoggerHandler@Logging@TechnicalServices@@8 0000000140075cc8     LoggerHandler.obj
 0003:0000ace0       ??_R2LoggerHandler@Logging@TechnicalServices@@8 0000000140075ce0     LoggerHandler.obj
 0003:0000acf0       ??_R1A@?0A@EA@LoggerHandler@Logging@TechnicalServices@@8 0000000140075cf0     LoggerHandler.obj
 0003:0000ad20       ??_R4LoggerException@LoggerHandler@Logging@TechnicalServices@@6B@ 0000000140075d20     LoggerHandler.obj
 0003:0000ad50       ??_R3LoggerException@LoggerHandler@Logging@TechnicalServices@@8 0000000140075d50     LoggerHandler.obj
 0003:0000ad68       ??_R2LoggerException@LoggerHandler@Logging@TechnicalServices@@8 0000000140075d68     LoggerHandler.obj
 0003:0000ad90       ??_R1A@?0A@EA@LoggerException@LoggerHandler@Logging@TechnicalServices@@8 0000000140075d90     LoggerHandler.obj
 0003:0000adc0       ??_R4BadLoggerRequest@LoggerHandler@Logging@TechnicalServices@@6B@ 0000000140075dc0     LoggerHandler.obj
 0003:0000adf0       ??_R3BadLoggerRequest@LoggerHandler@Logging@TechnicalServices@@8 0000000140075df0     LoggerHandler.obj
 0003:0000ae08       ??_R2BadLoggerRequest@LoggerHandler@Logging@TechnicalServices@@8 0000000140075e08     LoggerHandler.obj
 0003:0000ae38       ??_R1A@?0A@EA@BadLoggerRequest@LoggerHandler@Logging@TechnicalServices@@8 0000000140075e38     LoggerHandler.obj
 0003:0000ae68       ??_R4SimpleLogger@Logging@TechnicalServices@@6B@ 0000000140075e68     LoggerHandler.obj
 0003:0000ae98       ??_R3SimpleLogger@Logging@TechnicalServices@@8 0000000140075e98     LoggerHandler.obj
 0003:0000aeb0       ??_R2SimpleLogger@Logging@TechnicalServices@@8 0000000140075eb0     LoggerHandler.obj
 0003:0000aec8       ??_R1A@?0A@EA@SimpleLogger@Logging@TechnicalServices@@8 0000000140075ec8     LoggerHandler.obj
 0003:0000aef8       ??_R4PersistenceHandler@Persistence@TechnicalServices@@6B@ 0000000140075ef8     PersistenceHandler.obj
 0003:0000af28       ??_R3PersistenceHandler@Persistence@TechnicalServices@@8 0000000140075f28     PersistenceHandler.obj
 0003:0000af40       ??_R2PersistenceHandler@Persistence@TechnicalServices@@8 0000000140075f40     PersistenceHandler.obj
 0003:0000af50       ??_R1A@?0A@EA@PersistenceHandler@Persistence@TechnicalServices@@8 0000000140075f50     PersistenceHandler.obj
 0003:0000af80       ??_R4?$basic_filebuf@DU?$char_traits@D@std@@@std@@6B@ 0000000140075f80     SimpleDB.obj
 0003:0000afb0       ??_R3?$basic_filebuf@DU?$char_traits@D@std@@@std@@8 0000000140075fb0     SimpleDB.obj
 0003:0000afc8       ??_R2?$basic_filebuf@DU?$char_traits@D@std@@@std@@8 0000000140075fc8     SimpleDB.obj
 0003:0000afe0       ??_R1A@?0A@EA@?$basic_filebuf@DU?$char_traits@D@std@@@std@@8 0000000140075fe0     SimpleDB.obj
 0003:0000b010       ??_R1A@?0A@EA@?$basic_streambuf@DU?$char_traits@D@std@@@std@@8 0000000140076010     SimpleDB.obj
 0003:0000b040       ??_R3?$basic_streambuf@DU?$char_traits@D@std@@@std@@8 0000000140076040     SimpleDB.obj
 0003:0000b058       ??_R2?$basic_streambuf@DU?$char_traits@D@std@@@std@@8 0000000140076058     SimpleDB.obj
 0003:0000b068       ??_R4?$basic_ifstream@DU?$char_traits@D@std@@@std@@6B@ 0000000140076068     SimpleDB.obj
 0003:0000b098       ??_R3?$basic_ifstream@DU?$char_traits@D@std@@@std@@8 0000000140076098     SimpleDB.obj
 0003:0000b0b0       ??_R2?$basic_ifstream@DU?$char_traits@D@std@@@std@@8 00000001400760b0     SimpleDB.obj
 0003:0000b0e8       ??_R1A@?0A@EA@?$basic_ifstream@DU?$char_traits@D@std@@@std@@8 00000001400760e8     SimpleDB.obj
 0003:0000b118       ??_R1A@?0A@EA@?$basic_istream@DU?$char_traits@D@std@@@std@@8 0000000140076118     SimpleDB.obj
 0003:0000b148       ??_R3?$basic_istream@DU?$char_traits@D@std@@@std@@8 0000000140076148     SimpleDB.obj
 0003:0000b160       ??_R2?$basic_istream@DU?$char_traits@D@std@@@std@@8 0000000140076160     SimpleDB.obj
 0003:0000b190       ??_R1A@A@3FA@?$basic_ios@DU?$char_traits@D@std@@@std@@8 0000000140076190     SimpleDB.obj
 0003:0000b1c0       ??_R3?$basic_ios@DU?$char_traits@D@std@@@std@@8 00000001400761c0     SimpleDB.obj
 0003:0000b1d8       ??_R2?$basic_ios@DU?$char_traits@D@std@@@std@@8 00000001400761d8     SimpleDB.obj
 0003:0000b200       ??_R1A@?0A@EA@?$basic_ios@DU?$char_traits@D@std@@@std@@8 0000000140076200     SimpleDB.obj
 0003:0000b230       ??_R1A@?0A@EA@ios_base@std@@8 0000000140076230     SimpleDB.obj
 0003:0000b260       ??_R3ios_base@std@@8       0000000140076260     SimpleDB.obj
 0003:0000b278       ??_R2ios_base@std@@8       0000000140076278     SimpleDB.obj
 0003:0000b290       ??_R17?0A@EA@?$_Iosb@H@std@@8 0000000140076290     SimpleDB.obj
 0003:0000b2c0       ??_R3?$_Iosb@H@std@@8      00000001400762c0     SimpleDB.obj
 0003:0000b2d8       ??_R2?$_Iosb@H@std@@8      00000001400762d8     SimpleDB.obj
 0003:0000b2e8       ??_R1A@?0A@EA@?$_Iosb@H@std@@8 00000001400762e8     SimpleDB.obj
 0003:0000b318       ??_R1A@A@3EA@ios_base@std@@8 0000000140076318     SimpleDB.obj
 0003:0000b348       ??_R17A@3EA@?$_Iosb@H@std@@8 0000000140076348     SimpleDB.obj
 0003:0000b378       ??_R4PersistenceException@PersistenceHandler@Persistence@TechnicalServices@@6B@ 0000000140076378     SimpleDB.obj
 0003:0000b3a8       ??_R3PersistenceException@PersistenceHandler@Persistence@TechnicalServices@@8 00000001400763a8     SimpleDB.obj
 0003:0000b3c0       ??_R2PersistenceException@PersistenceHandler@Persistence@TechnicalServices@@8 00000001400763c0     SimpleDB.obj
 0003:0000b3e8       ??_R1A@?0A@EA@PersistenceException@PersistenceHandler@Persistence@TechnicalServices@@8 00000001400763e8     SimpleDB.obj
 0003:0000b418       ??_R4NoSuchUser@PersistenceHandler@Persistence@TechnicalServices@@6B@ 0000000140076418     SimpleDB.obj
 0003:0000b448       ??_R3NoSuchUser@PersistenceHandler@Persistence@TechnicalServices@@8 0000000140076448     SimpleDB.obj
 0003:0000b460       ??_R2NoSuchUser@PersistenceHandler@Persistence@TechnicalServices@@8 0000000140076460     SimpleDB.obj
 0003:0000b490       ??_R1A@?0A@EA@NoSuchUser@PersistenceHandler@Persistence@TechnicalServices@@8 0000000140076490     SimpleDB.obj
 0003:0000b4c0       ??_R4NoSuchProperty@PersistenceHandler@Persistence@TechnicalServices@@6B@ 00000001400764c0     SimpleDB.obj
 0003:0000b4f0       ??_R3NoSuchProperty@PersistenceHandler@Persistence@TechnicalServices@@8 00000001400764f0     SimpleDB.obj
 0003:0000b508       ??_R2NoSuchProperty@PersistenceHandler@Persistence@TechnicalServices@@8 0000000140076508     SimpleDB.obj
 0003:0000b538       ??_R1A@?0A@EA@NoSuchProperty@PersistenceHandler@Persistence@TechnicalServices@@8 0000000140076538     SimpleDB.obj
 0003:0000b568       ??_R4SimpleDB@Persistence@TechnicalServices@@6B@ 0000000140076568     SimpleDB.obj
 0003:0000b598       ??_R3SimpleDB@Persistence@TechnicalServices@@8 0000000140076598     SimpleDB.obj
 0003:0000b5b0       ??_R2SimpleDB@Persistence@TechnicalServices@@8 00000001400765b0     SimpleDB.obj
 0003:0000b5c8       ??_R1A@?0A@EA@SimpleDB@Persistence@TechnicalServices@@8 00000001400765c8     SimpleDB.obj
 0003:0000b5f8       ??_R4UserInterfaceHandler@UI@@6B@ 00000001400765f8     SimpleUI.obj
 0003:0000b628       ??_R3UserInterfaceHandler@UI@@8 0000000140076628     SimpleUI.obj
 0003:0000b640       ??_R2UserInterfaceHandler@UI@@8 0000000140076640     SimpleUI.obj
 0003:0000b650       ??_R1A@?0A@EA@UserInterfaceHandler@UI@@8 0000000140076650     SimpleUI.obj
 0003:0000b680       ??_R4SimpleUI@UI@@6B@      0000000140076680     SimpleUI.obj
 0003:0000b6b0       ??_R3SimpleUI@UI@@8        00000001400766b0     SimpleUI.obj
 0003:0000b6c8       ??_R2SimpleUI@UI@@8        00000001400766c8     SimpleUI.obj
 0003:0000b6e0       ??_R1A@?0A@EA@SimpleUI@UI@@8 00000001400766e0     SimpleUI.obj
 0003:0000b710       ??_R4SystemDriverUI@UI@@6B@ 0000000140076710     SystemDriverUI.obj
 0003:0000b740       ??_R3SystemDriverUI@UI@@8  0000000140076740     SystemDriverUI.obj
 0003:0000b758       ??_R2SystemDriverUI@UI@@8  0000000140076758     SystemDriverUI.obj
 0003:0000b770       ??_R1A@?0A@EA@SystemDriverUI@UI@@8 0000000140076770     SystemDriverUI.obj
 0003:0000b7a0       ??_R4UIException@UserInterfaceHandler@UI@@6B@ 00000001400767a0     UserInterfaceHandler.obj
 0003:0000b7d0       ??_R3UIException@UserInterfaceHandler@UI@@8 00000001400767d0     UserInterfaceHandler.obj
 0003:0000b7e8       ??_R2UIException@UserInterfaceHandler@UI@@8 00000001400767e8     UserInterfaceHandler.obj
 0003:0000b810       ??_R1A@?0A@EA@UIException@UserInterfaceHandler@UI@@8 0000000140076810     UserInterfaceHandler.obj
 0003:0000b840       ??_R4BadUIRequest@UserInterfaceHandler@UI@@6B@ 0000000140076840     UserInterfaceHandler.obj
 0003:0000b870       ??_R3BadUIRequest@UserInterfaceHandler@UI@@8 0000000140076870     UserInterfaceHandler.obj
 0003:0000b888       ??_R2BadUIRequest@UserInterfaceHandler@UI@@8 0000000140076888     UserInterfaceHandler.obj
 0003:0000b8b8       ??_R1A@?0A@EA@BadUIRequest@UserInterfaceHandler@UI@@8 00000001400768b8     UserInterfaceHandler.obj
 0003:0000b8e8       ??_R4type_info@@6B@        00000001400768e8     MSVCRTD:std_type_info_static.obj
 0003:0000b918       ??_R3type_info@@8          0000000140076918     MSVCRTD:std_type_info_static.obj
 0003:0000b930       ??_R2type_info@@8          0000000140076930     MSVCRTD:std_type_info_static.obj
 0003:0000b940       ??_R1A@?0A@EA@type_info@@8 0000000140076940     MSVCRTD:std_type_info_static.obj
 0003:0000bcf8       __rtc_iaa                  0000000140076cf8     MSVCRTD:initsect.obj
 0003:0000bfb8       __rtc_izz                  0000000140076fb8     MSVCRTD:initsect.obj
 0003:0000c0c8       __rtc_taa                  00000001400770c8     MSVCRTD:initsect.obj
 0003:0000c388       __rtc_tzz                  0000000140077388     MSVCRTD:initsect.obj
 0003:000171f8       _TI3?AVbad_array_new_length@std@@ 00000001400821f8     Session.obj
 0003:00017218       _CTA3?AVbad_array_new_length@std@@ 0000000140082218     Session.obj
 0003:00017238       _CT??_R0?AVbad_array_new_length@std@@@8??0bad_array_new_length@std@@QEAA@AEBV01@@Z24 0000000140082238     Session.obj
 0003:00017260       _CT??_R0?AVbad_alloc@std@@@8??0bad_alloc@std@@QEAA@AEBV01@@Z24 0000000140082260     Session.obj
 0003:00017288       _CT??_R0?AVexception@std@@@8??0exception@std@@QEAA@AEBV01@@Z24 0000000140082288     Session.obj
 0003:000172b0       _CT??_R0?AVbad_cast@std@@@8??0bad_cast@std@@QEAA@AEBV01@@Z24 00000001400822b0     Session.obj
 0003:000172d8       _TI3?AVbad_any_cast@std@@  00000001400822d8     Session.obj
 0003:000172f8       _CTA3?AVbad_any_cast@std@@ 00000001400822f8     Session.obj
 0003:00017318       _CT??_R0?AVbad_any_cast@std@@@8??0bad_any_cast@std@@QEAA@AEBV01@@Z24 0000000140082318     Session.obj
 0003:00017340       _CT??_R0?AVruntime_error@std@@@8??0runtime_error@std@@QEAA@AEBV01@@Z24 0000000140082340     Session.obj
 0003:00017368       _TI4?AUBadCommand@SessionHandler@Session@Domain@@ 0000000140082368     Session.obj
 0003:00017388       _CTA4?AUBadCommand@SessionHandler@Session@Domain@@ 0000000140082388     Session.obj
 0003:000173b0       _CT??_R0?AUBadCommand@SessionHandler@Session@Domain@@@8??0BadCommand@SessionHandler@Session@Domain@@QEAA@AEBU0123@@Z24 00000001400823b0     Session.obj
 0003:000173d8       _CT??_R0?AUSessionException@SessionHandler@Session@Domain@@@8??0SessionException@SessionHandler@Session@Domain@@QEAA@AEBU0123@@Z24 00000001400823d8     Session.obj
 0003:00017400       _TI2?AVlogic_error@std@@   0000000140082400     SessionHandler.obj
 0003:00017420       _CTA2?AVlogic_error@std@@  0000000140082420     SessionHandler.obj
 0003:00017438       _CT??_R0?AVlogic_error@std@@@8??0logic_error@std@@QEAA@AEBV01@@Z24 0000000140082438     SessionHandler.obj
 0003:00017460       _TI2?AVbad_cast@std@@      0000000140082460     main.obj
 0003:00017480       _CTA2?AVbad_cast@std@@     0000000140082480     main.obj
 0003:00017498       _TI4?AUBadLoggerRequest@LoggerHandler@Logging@TechnicalServices@@ 0000000140082498     LoggerHandler.obj
 0003:000174b8       _CTA4?AUBadLoggerRequest@LoggerHandler@Logging@TechnicalServices@@ 00000001400824b8     LoggerHandler.obj
 0003:000174e0       _CT??_R0?AUBadLoggerRequest@LoggerHandler@Logging@TechnicalServices@@@8??0BadLoggerRequest@LoggerHandler@Logging@TechnicalServices@@QEAA@AEBU0123@@Z24 00000001400824e0     LoggerHandler.obj
 0003:00017508       _CT??_R0?AULoggerException@LoggerHandler@Logging@TechnicalServices@@@8??0LoggerException@LoggerHandler@Logging@TechnicalServices@@QEAA@AEBU0123@@Z24 0000000140082508     LoggerHandler.obj
 0003:00017530       _TI4?AUNoSuchUser@PersistenceHandler@Persistence@TechnicalServices@@ 0000000140082530     SimpleDB.obj
 0003:00017550       _CTA4?AUNoSuchUser@PersistenceHandler@Persistence@TechnicalServices@@ 0000000140082550     SimpleDB.obj
 0003:00017578       _CT??_R0?AUNoSuchUser@PersistenceHandler@Persistence@TechnicalServices@@@8??0NoSuchUser@PersistenceHandler@Persistence@TechnicalServices@@QEAA@AEBU0123@@Z24 0000000140082578     SimpleDB.obj
 0003:000175a0       _CT??_R0?AUPersistenceException@PersistenceHandler@Persistence@TechnicalServices@@@8??0PersistenceException@PersistenceHandler@Persistence@TechnicalServices@@QEAA@AEBU0123@@Z24 00000001400825a0     SimpleDB.obj
 0003:000175c8       _TI4?AUNoSuchProperty@PersistenceHandler@Persistence@TechnicalServices@@ 00000001400825c8     SimpleDB.obj
 0003:000175e8       _CTA4?AUNoSuchProperty@PersistenceHandler@Persistence@TechnicalServices@@ 00000001400825e8     SimpleDB.obj
 0003:00017610       _CT??_R0?AUNoSuchProperty@PersistenceHandler@Persistence@TechnicalServices@@@8??0NoSuchProperty@PersistenceHandler@Persistence@TechnicalServices@@QEAA@AEBU0123@@Z24 0000000140082610     SimpleDB.obj
 0003:00017638       _TI4?AUBadUIRequest@UserInterfaceHandler@UI@@ 0000000140082638     UserInterfaceHandler.obj
 0003:00017658       _CTA4?AUBadUIRequest@UserInterfaceHandler@UI@@ 0000000140082658     UserInterfaceHandler.obj
 0003:00017680       _CT??_R0?AUBadUIRequest@UserInterfaceHandler@UI@@@8??0BadUIRequest@UserInterfaceHandler@UI@@QEAA@AEBU012@@Z24 0000000140082680     UserInterfaceHandler.obj
 0003:000176a8       _CT??_R0?AUUIException@UserInterfaceHandler@UI@@@8??0UIException@UserInterfaceHandler@UI@@QEAA@AEBU012@@Z24 00000001400826a8     UserInterfaceHandler.obj
 0003:000176d0       _TI2?AVbad_alloc@std@@     00000001400826d0     MSVCRTD:throw_bad_alloc.obj
 0003:000176f0       _CTA2?AVbad_alloc@std@@    00000001400826f0     MSVCRTD:throw_bad_alloc.obj
 0004:00000000       ?__LINE__Var@?0??_Adjust_manually_vector_aligned@std@@YAXAEAPEAXAEA_K@Z@4JA 0000000140083000     Session.obj
 0004:00000004       ?__LINE__Var@?0??_Maklocwcs@std@@YAPEA_WPEB_W@Z@4JA 0000000140083004     Session.obj
 0004:00000010       __security_cookie_complement 0000000140083010     MSVCRTD:gs_cookie.obj
 0004:00000018       __security_cookie          0000000140083018     MSVCRTD:gs_cookie.obj
 0004:00000024       __scrt_native_dllmain_reason 0000000140083024     MSVCRTD:utility.obj
 0004:00000028       _Init_global_epoch         0000000140083028     MSVCRTD:thread_safe_statics.obj
 0004:00000030       ?_RTC_ErrorLevels@@3PAHA   0000000140083030     MSVCRTD:error.obj
 0004:00000048       __isa_available            0000000140083048     MSVCRTD:cpu_disp.obj
 0004:0000004c       __isa_enabled              000000014008304c     MSVCRTD:cpu_disp.obj
 0004:00000050       __memcpy_nt_iters          0000000140083050     MSVCRTD:cpu_disp.obj
 0004:00000058       __memset_nt_iters          0000000140083058     MSVCRTD:cpu_disp.obj
 0004:00000064       __scrt_default_matherr     0000000140083064     MSVCRTD:matherr.obj
 0004:00000070       __scrt_ucrt_dll_is_in_use  0000000140083070     MSVCRTD:ucrt_stubs.obj
 0004:00000180       ??_R0?AVClientHandler@Client@Domain@@@8 0000000140083180     ClientHandler.obj
 0004:000001c0       ??_R0?AVbad_array_new_length@std@@@8 00000001400831c0     Session.obj
 0004:000001f8       ??_R0?AVbad_alloc@std@@@8  00000001400831f8     Session.obj
 0004:00000228       ??_R0?AVexception@std@@@8  0000000140083228     Session.obj
 0004:00000258       ??_R0?AVbad_cast@std@@@8   0000000140083258     Session.obj
 0004:00000288       ??_R0?AVbad_any_cast@std@@@8 0000000140083288     Session.obj
 0004:000002b8       ??_R0?AVruntime_error@std@@@8 00000001400832b8     Session.obj
 0004:000002e8       ??_R0?AUBadCommand@SessionHandler@Session@Domain@@@8 00000001400832e8     Session.obj
 0004:00000340       ??_R0?AUSessionException@SessionHandler@Session@Domain@@@8 0000000140083340     Session.obj
 0004:000003a0       ??_R0?AV?$basic_string@DU?$char_traits@D@std@@V?$allocator@D@2@@std@@@8 00000001400833a0     Session.obj
 0004:00000408       ??_R0PEBD@8                0000000140083408     Session.obj
 0004:00000428       ??_R0?AVSessionHandler@Session@Domain@@@8 0000000140083428     Session.obj
 0004:00000468       ??_R0?AVSessionBase@Session@Domain@@@8 0000000140083468     Session.obj
 0004:000004a8       ??_R0?AUITAdministratorSession@Session@Domain@@@8 00000001400834a8     Session.obj
 0004:000004f0       ??_R0?AUAssistantSession@Session@Domain@@@8 00000001400834f0     Session.obj
 0004:00000530       ??_R0?AUSalespersonSession@Session@Domain@@@8 0000000140083530     Session.obj
 0004:00000578       ??_R0?AUSalesManagerSession@Session@Domain@@@8 0000000140083578     Session.obj
 0004:000005c0       ??_R0?AVClientDomain@Client@Domain@@@8 00000001400835c0     Session.obj
 0004:00000600       ??_R0?AUClientSession@Client@Domain@@@8 0000000140083600     Session.obj
 0004:00000640       ??_R0?AVlogic_error@std@@@8 0000000140083640     SessionHandler.obj
 0004:00000670       ??_R0?AUNoSuchUser@PersistenceHandler@Persistence@TechnicalServices@@@8 0000000140083670     SessionHandler.obj
 0004:000006e0       ??_R0?AUBadLoggerRequest@LoggerHandler@Logging@TechnicalServices@@@8 00000001400836e0     LoggerHandler.obj
 0004:00000740       ??_R0?AULoggerException@LoggerHandler@Logging@TechnicalServices@@@8 0000000140083740     LoggerHandler.obj
 0004:000007a0       ??_R0?AVLoggerHandler@Logging@TechnicalServices@@@8 00000001400837a0     LoggerHandler.obj
 0004:000007f0       ??_R0?AVSimpleLogger@Logging@TechnicalServices@@@8 00000001400837f0     LoggerHandler.obj
 0004:00000840       ??_R0?AVPersistenceHandler@Persistence@TechnicalServices@@@8 0000000140083840     PersistenceHandler.obj
 0004:000008a0       ??_R0?AUPersistenceException@PersistenceHandler@Persistence@TechnicalServices@@@8 00000001400838a0     SimpleDB.obj
 0004:00000910       ??_R0?AUNoSuchProperty@PersistenceHandler@Persistence@TechnicalServices@@@8 0000000140083910     SimpleDB.obj
 0004:00000980       ??_R0?AV?$basic_filebuf@DU?$char_traits@D@std@@@std@@@8 0000000140083980     SimpleDB.obj
 0004:000009d0       ??_R0?AV?$basic_streambuf@DU?$char_traits@D@std@@@std@@@8 00000001400839d0     SimpleDB.obj
 0004:00000a30       ??_R0?AV?$basic_ifstream@DU?$char_traits@D@std@@@std@@@8 0000000140083a30     SimpleDB.obj
 0004:00000a80       ??_R0?AV?$basic_istream@DU?$char_traits@D@std@@@std@@@8 0000000140083a80     SimpleDB.obj
 0004:00000ad0       ??_R0?AV?$basic_ios@DU?$char_traits@D@std@@@std@@@8 0000000140083ad0     SimpleDB.obj
 0004:00000b20       ??_R0?AVios_base@std@@@8   0000000140083b20     SimpleDB.obj
 0004:00000b50       ??_R0?AV?$_Iosb@H@std@@@8  0000000140083b50     SimpleDB.obj
 0004:00000b80       ??_R0?AVSimpleDB@Persistence@TechnicalServices@@@8 0000000140083b80     SimpleDB.obj
 0004:00000bd0       ??_R0?AVUserInterfaceHandler@UI@@@8 0000000140083bd0     SimpleUI.obj
 0004:00000c08       ??_R0?AVSimpleUI@UI@@@8    0000000140083c08     SimpleUI.obj
 0004:00000c30       ??_R0?AVSystemDriverUI@UI@@@8 0000000140083c30     SystemDriverUI.obj
 0004:00000c60       ??_R0?AUBadUIRequest@UserInterfaceHandler@UI@@@8 0000000140083c60     UserInterfaceHandler.obj
 0004:00000ca8       ??_R0?AUUIException@UserInterfaceHandler@UI@@@8 0000000140083ca8     UserInterfaceHandler.obj
 0004:00000cf0       ??_R0?AVtype_info@@@8      0000000140083cf0     MSVCRTD:std_type_info_static.obj
 0004:00000e60       ?_Psave@?$_Facetptr@V?$ctype@D@std@@@std@@2PEBVfacet@locale@2@EB 0000000140083e60     main.obj
 0004:00000e70       ?_Psave@?$_Facetptr@V?$time_put@DV?$ostreambuf_iterator@DU?$char_traits@D@std@@@std@@@std@@@std@@2PEBVfacet@locale@2@EB 0000000140083e70     LoggerHandler.obj
 0004:00000f18       ?_Stinit@?1??_Init@?$basic_filebuf@DU?$char_traits@D@std@@@std@@IEAAXPEAU_iobuf@@W4_Initfl@23@@Z@4U_Mbstatet@@A 0000000140083f18     SimpleDB.obj
 0004:00000f28       ?_Psave@?$_Facetptr@V?$codecvt@DDU_Mbstatet@@@std@@@std@@2PEBVfacet@locale@2@EB 0000000140083f28     SimpleDB.obj
 0004:00000f50       ?__type_info_root_node@@3U__type_info_node@@A 0000000140083f50     MSVCRTD:tncleanup.obj
 0004:00000f68       __scrt_current_native_startup_state 0000000140083f68     MSVCRTD:utility.obj
 0004:00000f70       __scrt_native_startup_lock 0000000140083f70     MSVCRTD:utility.obj
 0004:00001018       _tls_index                 0000000140084018     MSVCRTD:tlssup.obj
 0004:00001038       ?_OptionsStorage@?1??__local_stdio_printf_options@@9@4_KA 0000000140084038     MSVCRTD:error.obj
 0004:000016d8       __favor                    00000001400846d8     MSVCRTD:cpu_disp.obj
 0004:000016dc       __scrt_debugger_hook_flag  00000001400846dc     MSVCRTD:utility_desktop.obj
 0004:000016e0       ?_OptionsStorage@?1??__local_stdio_scanf_options@@9@4_KA 00000001400846e0     MSVCRTD:default_local_stdio_options.obj
 0004:00001700       __dyn_tls_dtor_callback    0000000140084700     <common>
 0004:00001718       __dyn_tls_init_callback    0000000140084718     <common>
 0004:0000172c       __DebuggerCurrentSteppingThreadId 000000014008472c     <common>
 0006:00000000       __imp_GetCurrentThreadId   000000014008c000     kernel32:KERNEL32.dll
 0006:00000008       __imp_InitializeSListHead  000000014008c008     kernel32:KERNEL32.dll
 0006:00000010       __imp_CloseHandle          000000014008c010     kernel32:KERNEL32.dll
 0006:00000018       __imp_EnterCriticalSection 000000014008c018     kernel32:KERNEL32.dll
 0006:00000020       __imp_LeaveCriticalSection 000000014008c020     kernel32:KERNEL32.dll
 0006:00000028       __imp_InitializeCriticalSectionAndSpinCount 000000014008c028     kernel32:KERNEL32.dll
 0006:00000030       __imp_DeleteCriticalSection 000000014008c030     kernel32:KERNEL32.dll
 0006:00000038       __imp_SetEvent             000000014008c038     kernel32:KERNEL32.dll
 0006:00000040       __imp_ResetEvent           000000014008c040     kernel32:KERNEL32.dll
 0006:00000048       __imp_WaitForSingleObjectEx 000000014008c048     kernel32:KERNEL32.dll
 0006:00000050       __imp_CreateEventW         000000014008c050     kernel32:KERNEL32.dll
 0006:00000058       __imp_GetModuleHandleW     000000014008c058     kernel32:KERNEL32.dll
 0006:00000060       __imp_GetProcAddress       000000014008c060     kernel32:KERNEL32.dll
 0006:00000068       __imp_IsDebuggerPresent    000000014008c068     kernel32:KERNEL32.dll
 0006:00000070       __imp_RaiseException       000000014008c070     kernel32:KERNEL32.dll
 0006:00000078       __imp_MultiByteToWideChar  000000014008c078     kernel32:KERNEL32.dll
 0006:00000080       __imp_WideCharToMultiByte  000000014008c080     kernel32:KERNEL32.dll
 0006:00000088       __imp_RtlCaptureContext    000000014008c088     kernel32:KERNEL32.dll
 0006:00000090       __imp_RtlLookupFunctionEntry 000000014008c090     kernel32:KERNEL32.dll
 0006:00000098       __imp_RtlVirtualUnwind     000000014008c098     kernel32:KERNEL32.dll
 0006:000000a0       __imp_UnhandledExceptionFilter 000000014008c0a0     kernel32:KERNEL32.dll
 0006:000000a8       __imp_SetUnhandledExceptionFilter 000000014008c0a8     kernel32:KERNEL32.dll
 0006:000000b0       __imp_GetCurrentProcess    000000014008c0b0     kernel32:KERNEL32.dll
 0006:000000b8       __imp_TerminateProcess     000000014008c0b8     kernel32:KERNEL32.dll
 0006:000000c0       __imp_IsProcessorFeaturePresent 000000014008c0c0     kernel32:KERNEL32.dll
 0006:000000c8       __imp_GetStartupInfoW      000000014008c0c8     kernel32:KERNEL32.dll
 0006:000000d0       __imp_QueryPerformanceCounter 000000014008c0d0     kernel32:KERNEL32.dll
 0006:000000d8       __imp_GetCurrentProcessId  000000014008c0d8     kernel32:KERNEL32.dll
 0006:000000e0       __imp_GetSystemTimeAsFileTime 000000014008c0e0     kernel32:KERNEL32.dll
 0006:000000e8       __imp_GetLastError         000000014008c0e8     kernel32:KERNEL32.dll
 0006:000000f0       __imp_HeapAlloc            000000014008c0f0     kernel32:KERNEL32.dll
 0006:000000f8       __imp_HeapFree             000000014008c0f8     kernel32:KERNEL32.dll
 0006:00000100       __imp_GetProcessHeap       000000014008c100     kernel32:KERNEL32.dll
 0006:00000108       __imp_VirtualQuery         000000014008c108     kernel32:KERNEL32.dll
 0006:00000110       __imp_FreeLibrary          000000014008c110     kernel32:KERNEL32.dll
 0006:00000118       \177KERNEL32_NULL_THUNK_DATA 000000014008c118     kernel32:KERNEL32.dll
 0006:000001a8       __imp_?_Ipfx@?$basic_istream@DU?$char_traits@D@std@@@std@@QEAA_N_N@Z 000000014008c1a8     msvcprtd:MSVCP140D.dll
 0006:000001b0       __imp_?id@?$ctype@D@std@@2V0locale@2@A 000000014008c1b0     msvcprtd:MSVCP140D.dll
 0006:000001b8       __imp_?cin@std@@3V?$basic_istream@DU?$char_traits@D@std@@@1@A 000000014008c1b8     msvcprtd:MSVCP140D.dll
 0006:000001c0       __imp_?cerr@std@@3V?$basic_ostream@DU?$char_traits@D@std@@@1@A 000000014008c1c0     msvcprtd:MSVCP140D.dll
 0006:000001c8       __imp_?setf@ios_base@std@@QEAAHH@Z 000000014008c1c8     msvcprtd:MSVCP140D.dll
 0006:000001d0       __imp_?getloc@ios_base@std@@QEBA?AVlocale@2@XZ 000000014008c1d0     msvcprtd:MSVCP140D.dll
 0006:000001d8       __imp_??6?$basic_ostream@DU?$char_traits@D@std@@@std@@QEAAAEAV01@P6AAEAVios_base@1@AEAV21@@Z@Z 000000014008c1d8     msvcprtd:MSVCP140D.dll
 0006:000001e0       __imp__Xtime_get_ticks     000000014008c1e0     msvcprtd:MSVCP140D.dll
 0006:000001e8       __imp_?put@?$time_put@DV?$ostreambuf_iterator@DU?$char_traits@D@std@@@std@@@std@@QEBA?AV?$ostreambuf_iterator@DU?$char_traits@D@std@@@2@V32@AEAVios_base@2@DPEBUtm@@PEBD3@Z 000000014008c1e8     msvcprtd:MSVCP140D.dll
 0006:000001f0       __imp_?_Getcat@?$time_put@DV?$ostreambuf_iterator@DU?$char_traits@D@std@@@std@@@std@@SA_KPEAPEBVfacet@locale@2@PEBV42@@Z 000000014008c1f0     msvcprtd:MSVCP140D.dll
 0006:000001f8       __imp_?id@?$time_put@DV?$ostreambuf_iterator@DU?$char_traits@D@std@@@std@@@std@@2V0locale@2@A 000000014008c1f8     msvcprtd:MSVCP140D.dll
 0006:00000200       __imp_?always_noconv@codecvt_base@std@@QEBA_NXZ 000000014008c200     msvcprtd:MSVCP140D.dll
 0006:00000208       __imp_?is@?$ctype@D@std@@QEBA_NFD@Z 000000014008c208     msvcprtd:MSVCP140D.dll
 0006:00000210       __imp_?in@?$codecvt@DDU_Mbstatet@@@std@@QEBAHAEAU_Mbstatet@@PEBD1AEAPEBDPEAD3AEAPEAD@Z 000000014008c210     msvcprtd:MSVCP140D.dll
 0006:00000218       __imp_?out@?$codecvt@DDU_Mbstatet@@@std@@QEBAHAEAU_Mbstatet@@PEBD1AEAPEBDPEAD3AEAPEAD@Z 000000014008c218     msvcprtd:MSVCP140D.dll
 0006:00000220       __imp_?unshift@?$codecvt@DDU_Mbstatet@@@std@@QEBAHAEAU_Mbstatet@@PEAD1AEAPEAD@Z 000000014008c220     msvcprtd:MSVCP140D.dll
 0006:00000228       __imp_?_Getcat@?$codecvt@DDU_Mbstatet@@@std@@SA_KPEAPEBVfacet@locale@2@PEBV42@@Z 000000014008c228     msvcprtd:MSVCP140D.dll
 0006:00000230       __imp_??Bios_base@std@@QEBA_NXZ 000000014008c230     msvcprtd:MSVCP140D.dll
 0006:00000238       __imp_??0?$basic_streambuf@DU?$char_traits@D@std@@@std@@IEAA@XZ 000000014008c238     msvcprtd:MSVCP140D.dll
 0006:00000240       __imp_??1?$basic_streambuf@DU?$char_traits@D@std@@@std@@UEAA@XZ 000000014008c240     msvcprtd:MSVCP140D.dll
 0006:00000248       __imp_?getloc@?$basic_streambuf@DU?$char_traits@D@std@@@std@@QEBA?AVlocale@2@XZ 000000014008c248     msvcprtd:MSVCP140D.dll
 0006:00000250       __imp_?sgetc@?$basic_streambuf@DU?$char_traits@D@std@@@std@@QEAAHXZ 000000014008c250     msvcprtd:MSVCP140D.dll
 0006:00000258       __imp_?snextc@?$basic_streambuf@DU?$char_traits@D@std@@@std@@QEAAHXZ 000000014008c258     msvcprtd:MSVCP140D.dll
 0006:00000260       __imp_?eback@?$basic_streambuf@DU?$char_traits@D@std@@@std@@IEBAPEADXZ 000000014008c260     msvcprtd:MSVCP140D.dll
 0006:00000268       __imp_?gptr@?$basic_streambuf@DU?$char_traits@D@std@@@std@@IEBAPEADXZ 000000014008c268     msvcprtd:MSVCP140D.dll
 0006:00000270       __imp_?pptr@?$basic_streambuf@DU?$char_traits@D@std@@@std@@IEBAPEADXZ 000000014008c270     msvcprtd:MSVCP140D.dll
 0006:00000278       __imp_?sbumpc@?$basic_streambuf@DU?$char_traits@D@std@@@std@@QEAAHXZ 000000014008c278     msvcprtd:MSVCP140D.dll
 0006:00000280       __imp_?gbump@?$basic_streambuf@DU?$char_traits@D@std@@@std@@IEAAXH@Z 000000014008c280     msvcprtd:MSVCP140D.dll
 0006:00000288       __imp_?setg@?$basic_streambuf@DU?$char_traits@D@std@@@std@@IEAAXPEAD00@Z 000000014008c288     msvcprtd:MSVCP140D.dll
 0006:00000290       __imp_?epptr@?$basic_streambuf@DU?$char_traits@D@std@@@std@@IEBAPEADXZ 000000014008c290     msvcprtd:MSVCP140D.dll
 0006:00000298       __imp_?_Gndec@?$basic_streambuf@DU?$char_traits@D@std@@@std@@IEAAPEADXZ 000000014008c298     msvcprtd:MSVCP140D.dll
 0006:000002a0       __imp_?_Gninc@?$basic_streambuf@DU?$char_traits@D@std@@@std@@IEAAPEADXZ 000000014008c2a0     msvcprtd:MSVCP140D.dll
 0006:000002a8       __imp_?_Gnavail@?$basic_streambuf@DU?$char_traits@D@std@@@std@@IEBA_JXZ 000000014008c2a8     msvcprtd:MSVCP140D.dll
 0006:000002b0       __imp_?pbump@?$basic_streambuf@DU?$char_traits@D@std@@@std@@IEAAXH@Z 000000014008c2b0     msvcprtd:MSVCP140D.dll
 0006:000002b8       __imp_?_Pninc@?$basic_streambuf@DU?$char_traits@D@std@@@std@@IEAAPEADXZ 000000014008c2b8     msvcprtd:MSVCP140D.dll
 0006:000002c0       __imp_?_Pnavail@?$basic_streambuf@DU?$char_traits@D@std@@@std@@IEBA_JXZ 000000014008c2c0     msvcprtd:MSVCP140D.dll
 0006:000002c8       __imp_?_Init@?$basic_streambuf@DU?$char_traits@D@std@@@std@@IEAAXXZ 000000014008c2c8     msvcprtd:MSVCP140D.dll
 0006:000002d0       __imp_?_Init@?$basic_streambuf@DU?$char_traits@D@std@@@std@@IEAAXPEAPEAD0PEAH001@Z 000000014008c2d0     msvcprtd:MSVCP140D.dll
 0006:000002d8       __imp_?xsgetn@?$basic_streambuf@DU?$char_traits@D@std@@@std@@MEAA_JPEAD_J@Z 000000014008c2d8     msvcprtd:MSVCP140D.dll
 0006:000002e0       __imp_?xsputn@?$basic_streambuf@DU?$char_traits@D@std@@@std@@MEAA_JPEBD_J@Z 000000014008c2e0     msvcprtd:MSVCP140D.dll
 0006:000002e8       __imp_??1?$basic_ios@DU?$char_traits@D@std@@@std@@UEAA@XZ 000000014008c2e8     msvcprtd:MSVCP140D.dll
 0006:000002f0       __imp_??0?$basic_ios@DU?$char_traits@D@std@@@std@@IEAA@XZ 000000014008c2f0     msvcprtd:MSVCP140D.dll
 0006:000002f8       __imp_??0?$basic_istream@DU?$char_traits@D@std@@@std@@QEAA@PEAV?$basic_streambuf@DU?$char_traits@D@std@@@1@_N@Z 000000014008c2f8     msvcprtd:MSVCP140D.dll
 0006:00000300       __imp_??1?$basic_istream@DU?$char_traits@D@std@@@std@@UEAA@XZ 000000014008c300     msvcprtd:MSVCP140D.dll
 0006:00000308       __imp_?ignore@?$basic_istream@DU?$char_traits@D@std@@@std@@QEAAAEAV12@_JH@Z 000000014008c308     msvcprtd:MSVCP140D.dll
 0006:00000310       __imp_?_Fiopen@std@@YAPEAU_iobuf@@PEBDHH@Z 000000014008c310     msvcprtd:MSVCP140D.dll
 0006:00000318       __imp_?showmanyc@?$basic_streambuf@DU?$char_traits@D@std@@@std@@MEAA_JXZ 000000014008c318     msvcprtd:MSVCP140D.dll
 0006:00000320       __imp_?id@?$codecvt@DDU_Mbstatet@@@std@@2V0locale@2@A 000000014008c320     msvcprtd:MSVCP140D.dll
 0006:00000328       __imp_??6?$basic_ostream@DU?$char_traits@D@std@@@std@@QEAAAEAV01@I@Z 000000014008c328     msvcprtd:MSVCP140D.dll
 0006:00000330       __imp_??6?$basic_ostream@DU?$char_traits@D@std@@@std@@QEAAAEAV01@_K@Z 000000014008c330     msvcprtd:MSVCP140D.dll
 0006:00000338       __imp_??5?$basic_istream@DU?$char_traits@D@std@@@std@@QEAAAEAV01@P6AAEAV01@AEAV01@@Z@Z 000000014008c338     msvcprtd:MSVCP140D.dll
 0006:00000340       __imp_??5?$basic_istream@DU?$char_traits@D@std@@@std@@QEAAAEAV01@AEAI@Z 000000014008c340     msvcprtd:MSVCP140D.dll
 0006:00000348       __imp_?_Getcat@?$ctype@D@std@@SA_KPEAPEBVfacet@locale@2@PEBV42@@Z 000000014008c348     msvcprtd:MSVCP140D.dll
 0006:00000350       __imp_?toupper@?$ctype@D@std@@QEBADD@Z 000000014008c350     msvcprtd:MSVCP140D.dll
 0006:00000358       __imp_?_Getgloballocale@locale@std@@CAPEAV_Locimp@12@XZ 000000014008c358     msvcprtd:MSVCP140D.dll
 0006:00000360       __imp_?_Init@locale@std@@CAPEAV_Locimp@12@_N@Z 000000014008c360     msvcprtd:MSVCP140D.dll
 0006:00000368       __imp_??Bid@locale@std@@QEAA_KXZ 000000014008c368     msvcprtd:MSVCP140D.dll
 0006:00000370       __imp_?clog@std@@3V?$basic_ostream@DU?$char_traits@D@std@@@1@A 000000014008c370     msvcprtd:MSVCP140D.dll
 0006:00000378       __imp_?cout@std@@3V?$basic_ostream@DU?$char_traits@D@std@@@1@A 000000014008c378     msvcprtd:MSVCP140D.dll
 0006:00000380       __imp_?setw@std@@YA?AU?$_Smanip@_J@1@_J@Z 000000014008c380     msvcprtd:MSVCP140D.dll
 0006:00000388       __imp_?flush@?$basic_ostream@DU?$char_traits@D@std@@@std@@QEAAAEAV12@XZ 000000014008c388     msvcprtd:MSVCP140D.dll
 0006:00000390       __imp_?put@?$basic_ostream@DU?$char_traits@D@std@@@std@@QEAAAEAV12@D@Z 000000014008c390     msvcprtd:MSVCP140D.dll
 0006:00000398       __imp_??6?$basic_ostream@DU?$char_traits@D@std@@@std@@QEAAAEAV01@P6AAEAV01@AEAV01@@Z@Z 000000014008c398     msvcprtd:MSVCP140D.dll
 0006:000003a0       __imp_?_Osfx@?$basic_ostream@DU?$char_traits@D@std@@@std@@QEAAXXZ 000000014008c3a0     msvcprtd:MSVCP140D.dll
 0006:000003a8       __imp_?widen@?$basic_ios@DU?$char_traits@D@std@@@std@@QEBADD@Z 000000014008c3a8     msvcprtd:MSVCP140D.dll
 0006:000003b0       __imp_?fill@?$basic_ios@DU?$char_traits@D@std@@@std@@QEBADXZ 000000014008c3b0     msvcprtd:MSVCP140D.dll
 0006:000003b8       __imp_??0_Lockit@std@@QEAA@H@Z 000000014008c3b8     msvcprtd:MSVCP140D.dll
 0006:000003c0       __imp_?rdbuf@?$basic_ios@DU?$char_traits@D@std@@@std@@QEBAPEAV?$basic_streambuf@DU?$char_traits@D@std@@@2@XZ 000000014008c3c0     msvcprtd:MSVCP140D.dll
 0006:000003c8       __imp_?tie@?$basic_ios@DU?$char_traits@D@std@@@std@@QEBAPEAV?$basic_ostream@DU?$char_traits@D@std@@@2@XZ 000000014008c3c8     msvcprtd:MSVCP140D.dll
 0006:000003d0       __imp_?setstate@?$basic_ios@DU?$char_traits@D@std@@@std@@QEAAXH_N@Z 000000014008c3d0     msvcprtd:MSVCP140D.dll
 0006:000003d8       __imp_?sputn@?$basic_streambuf@DU?$char_traits@D@std@@@std@@QEAA_JPEBD_J@Z 000000014008c3d8     msvcprtd:MSVCP140D.dll
 0006:000003e0       __imp_?sputc@?$basic_streambuf@DU?$char_traits@D@std@@@std@@QEAAHD@Z 000000014008c3e0     msvcprtd:MSVCP140D.dll
 0006:000003e8       __imp_?width@ios_base@std@@QEAA_J_J@Z 000000014008c3e8     msvcprtd:MSVCP140D.dll
 0006:000003f0       __imp_?width@ios_base@std@@QEBA_JXZ 000000014008c3f0     msvcprtd:MSVCP140D.dll
 0006:000003f8       __imp_?flags@ios_base@std@@QEBAHXZ 000000014008c3f8     msvcprtd:MSVCP140D.dll
 0006:00000400       __imp_?good@ios_base@std@@QEBA_NXZ 000000014008c400     msvcprtd:MSVCP140D.dll
 0006:00000408       __imp_?_W_Getmonths@_Locinfo@std@@QEBAPEBGXZ 000000014008c408     msvcprtd:MSVCP140D.dll
 0006:00000410       __imp_?_W_Getdays@_Locinfo@std@@QEBAPEBGXZ 000000014008c410     msvcprtd:MSVCP140D.dll
 0006:00000418       __imp_?_Getmonths@_Locinfo@std@@QEBAPEBDXZ 000000014008c418     msvcprtd:MSVCP140D.dll
 0006:00000420       __imp_?_Getdays@_Locinfo@std@@QEBAPEBDXZ 000000014008c420     msvcprtd:MSVCP140D.dll
 0006:00000428       __imp_?_Getcvt@_Locinfo@std@@QEBA?AU_Cvtvec@@XZ 000000014008c428     msvcprtd:MSVCP140D.dll
 0006:00000430       __imp__Mbrtowc             000000014008c430     msvcprtd:MSVCP140D.dll
 0006:00000438       __imp_?_Xout_of_range@std@@YAXPEBD@Z 000000014008c438     msvcprtd:MSVCP140D.dll
 0006:00000440       __imp_?_Xlength_error@std@@YAXPEBD@Z 000000014008c440     msvcprtd:MSVCP140D.dll
 0006:00000448       __imp_?_Xbad_alloc@std@@YAXXZ 000000014008c448     msvcprtd:MSVCP140D.dll
 0006:00000450       __imp_?uncaught_exception@std@@YA_NXZ 000000014008c450     msvcprtd:MSVCP140D.dll
 0006:00000458       __imp_??1_Lockit@std@@QEAA@XZ 000000014008c458     msvcprtd:MSVCP140D.dll
 0006:00000460       __imp_?egptr@?$basic_streambuf@DU?$char_traits@D@std@@@std@@IEBAPEADXZ 000000014008c460     msvcprtd:MSVCP140D.dll
 0006:00000468       \177MSVCP140D_NULL_THUNK_DATA 000000014008c468     msvcprtd:MSVCP140D.dll
 0006:00000548       __imp_memcmp               000000014008c548     vcruntimed:VCRUNTIME140D.dll
 0006:00000550       __imp___std_exception_copy 000000014008c550     vcruntimed:VCRUNTIME140D.dll
 0006:00000558       __imp___std_exception_destroy 000000014008c558     vcruntimed:VCRUNTIME140D.dll
 0006:00000560       __imp___std_type_info_compare 000000014008c560     vcruntimed:VCRUNTIME140D.dll
 0006:00000568       __imp_memcpy               000000014008c568     vcruntimed:VCRUNTIME140D.dll
 0006:00000570       __imp_memmove              000000014008c570     vcruntimed:VCRUNTIME140D.dll
 0006:00000578       __imp__CxxThrowException   000000014008c578     vcruntimed:VCRUNTIME140D.dll
 0006:00000580       __imp___RTtypeid           000000014008c580     vcruntimed:VCRUNTIME140D.dll
 0006:00000588       __imp___std_type_info_name 000000014008c588     vcruntimed:VCRUNTIME140D.dll
 0006:00000590       __imp___current_exception  000000014008c590     vcruntimed:VCRUNTIME140D.dll
 0006:00000598       __imp___current_exception_context 000000014008c598     vcruntimed:VCRUNTIME140D.dll
 0006:000005a0       __imp___std_type_info_destroy_list 000000014008c5a0     vcruntimed:VCRUNTIME140D.dll
 0006:000005a8       __imp___C_specific_handler_noexcept 000000014008c5a8     vcruntimed:VCRUNTIME140D.dll
 0006:000005b0       __imp___vcrt_GetModuleFileNameW 000000014008c5b0     vcruntimed:VCRUNTIME140D.dll
 0006:000005b8       __imp___vcrt_GetModuleHandleW 000000014008c5b8     vcruntimed:VCRUNTIME140D.dll
 0006:000005c0       __imp___vcrt_LoadLibraryExW 000000014008c5c0     vcruntimed:VCRUNTIME140D.dll
 0006:000005c8       __imp___C_specific_handler 000000014008c5c8     vcruntimed:VCRUNTIME140D.dll
 0006:000005d0       __imp__purecall            000000014008c5d0     vcruntimed:VCRUNTIME140D.dll
 0006:000005d8       \177VCRUNTIME140D_NULL_THUNK_DATA 000000014008c5d8     vcruntimed:VCRUNTIME140D.dll
 0006:00000648       __imp___CxxFrameHandler4   000000014008c648     vcruntimed:VCRUNTIME140_1D.dll
 0006:00000650       \177VCRUNTIME140_1D_NULL_THUNK_DATA 000000014008c650     vcruntimed:VCRUNTIME140_1D.dll
 0006:000006a8       __imp__set_app_type        000000014008c6a8     ucrtd:ucrtbased.dll
 0006:000006b0       __imp___setusermatherr     000000014008c6b0     ucrtd:ucrtbased.dll
 0006:000006b8       __imp__get_initial_narrow_environment 000000014008c6b8     ucrtd:ucrtbased.dll
 0006:000006c0       __imp__initterm            000000014008c6c0     ucrtd:ucrtbased.dll
 0006:000006c8       __imp__initterm_e          000000014008c6c8     ucrtd:ucrtbased.dll
 0006:000006d0       __imp_exit                 000000014008c6d0     ucrtd:ucrtbased.dll
 0006:000006d8       __imp__exit                000000014008c6d8     ucrtd:ucrtbased.dll
 0006:000006e0       __imp__set_fmode           000000014008c6e0     ucrtd:ucrtbased.dll
 0006:000006e8       __imp___p___argc           000000014008c6e8     ucrtd:ucrtbased.dll
 0006:000006f0       __imp___p___argv           000000014008c6f0     ucrtd:ucrtbased.dll
 0006:000006f8       __imp__c_exit              000000014008c6f8     ucrtd:ucrtbased.dll
 0006:00000700       __imp__register_thread_local_exe_atexit_callback 000000014008c700     ucrtd:ucrtbased.dll
 0006:00000708       __imp__configthreadlocale  000000014008c708     ucrtd:ucrtbased.dll
 0006:00000710       __imp__set_new_mode        000000014008c710     ucrtd:ucrtbased.dll
 0006:00000718       __imp___p__commode         000000014008c718     ucrtd:ucrtbased.dll
 0006:00000720       __imp_strcpy_s             000000014008c720     ucrtd:ucrtbased.dll
 0006:00000728       __imp_strcat_s             000000014008c728     ucrtd:ucrtbased.dll
 0006:00000730       __imp__cexit               000000014008c730     ucrtd:ucrtbased.dll
 0006:00000738       __imp__wmakepath_s         000000014008c738     ucrtd:ucrtbased.dll
 0006:00000740       __imp__wsplitpath_s        000000014008c740     ucrtd:ucrtbased.dll
 0006:00000748       __imp_wcscpy_s             000000014008c748     ucrtd:ucrtbased.dll
 0006:00000750       __imp__execute_onexit_table 000000014008c750     ucrtd:ucrtbased.dll
 0006:00000758       __imp_fsetpos              000000014008c758     ucrtd:ucrtbased.dll
 0006:00000760       __imp_fread                000000014008c760     ucrtd:ucrtbased.dll
 0006:00000768       __imp_fputc                000000014008c768     ucrtd:ucrtbased.dll
 0006:00000770       __imp_fgetpos              000000014008c770     ucrtd:ucrtbased.dll
 0006:00000778       __imp_fgetc                000000014008c778     ucrtd:ucrtbased.dll
 0006:00000780       __imp_fflush               000000014008c780     ucrtd:ucrtbased.dll
 0006:00000788       __imp_fclose               000000014008c788     ucrtd:ucrtbased.dll
 0006:00000790       __imp__get_stream_buffer_pointers 000000014008c790     ucrtd:ucrtbased.dll
 0006:00000798       __imp__localtime64         000000014008c798     ucrtd:ucrtbased.dll
 0006:000007a0       __imp_strlen               000000014008c7a0     ucrtd:ucrtbased.dll
 0006:000007a8       __imp_wcslen               000000014008c7a8     ucrtd:ucrtbased.dll
 0006:000007b0       __imp__CrtDbgReport        000000014008c7b0     ucrtd:ucrtbased.dll
 0006:000007b8       __imp__calloc_dbg          000000014008c7b8     ucrtd:ucrtbased.dll
 0006:000007c0       __imp__invalid_parameter   000000014008c7c0     ucrtd:ucrtbased.dll
 0006:000007c8       __imp__seh_filter_exe      000000014008c7c8     ucrtd:ucrtbased.dll
 0006:000007d0       __imp__crt_atexit          000000014008c7d0     ucrtd:ucrtbased.dll
 0006:000007d8       __imp__register_onexit_function 000000014008c7d8     ucrtd:ucrtbased.dll
 0006:000007e0       __imp__initialize_onexit_table 000000014008c7e0     ucrtd:ucrtbased.dll
 0006:000007e8       __imp__initialize_narrow_environment 000000014008c7e8     ucrtd:ucrtbased.dll
 0006:000007f0       __imp__configure_narrow_argv 000000014008c7f0     ucrtd:ucrtbased.dll
 0006:000007f8       __imp__seh_filter_dll      000000014008c7f8     ucrtd:ucrtbased.dll
 0006:00000800       __imp_terminate            000000014008c800     ucrtd:ucrtbased.dll
 0006:00000808       __imp__CrtDbgReportW       000000014008c808     ucrtd:ucrtbased.dll
 0006:00000810       __imp_malloc               000000014008c810     ucrtd:ucrtbased.dll
 0006:00000818       __imp__callnewh            000000014008c818     ucrtd:ucrtbased.dll
 0006:00000820       __imp__malloc_dbg          000000014008c820     ucrtd:ucrtbased.dll
 0006:00000828       __imp__free_dbg            000000014008c828     ucrtd:ucrtbased.dll
 0006:00000830       __imp__unlock_file         000000014008c830     ucrtd:ucrtbased.dll
 0006:00000838       __imp__lock_file           000000014008c838     ucrtd:ucrtbased.dll
 0006:00000840       __imp_ungetc               000000014008c840     ucrtd:ucrtbased.dll
 0006:00000848       __imp_setvbuf              000000014008c848     ucrtd:ucrtbased.dll
 0006:00000850       __imp_fwrite               000000014008c850     ucrtd:ucrtbased.dll
 0006:00000858       __imp__crt_at_quick_exit   000000014008c858     ucrtd:ucrtbased.dll
 0006:00000860       __imp___stdio_common_vsprintf_s 000000014008c860     ucrtd:ucrtbased.dll
 0006:00000868       __imp__fseeki64            000000014008c868     ucrtd:ucrtbased.dll
 0006:00000870       \177ucrtbased_NULL_THUNK_DATA 000000014008c870     ucrtd:ucrtbased.dll
 0006:00000920       __IMPORT_DESCRIPTOR_MSVCP140D 000000014008c920     msvcprtd:MSVCP140D.dll
 0006:00000934       __IMPORT_DESCRIPTOR_VCRUNTIME140D 000000014008c934     vcruntimed:VCRUNTIME140D.dll
 0006:00000948       __IMPORT_DESCRIPTOR_VCRUNTIME140_1D 000000014008c948     vcruntimed:VCRUNTIME140_1D.dll
 0006:0000095c       __IMPORT_DESCRIPTOR_ucrtbased 000000014008c95c     ucrtd:ucrtbased.dll
 0006:00000970       __IMPORT_DESCRIPTOR_KERNEL32 000000014008c970     kernel32:KERNEL32.dll
 0006:00000984       __NULL_IMPORT_DESCRIPTOR   000000014008c984     msvcprtd:MSVCP140D.dll
 0008:00000000       _tls_start                 0000000140091000     MSVCRTD:tlssup.obj
 0008:00000104       _Init_thread_epoch         0000000140091104     MSVCRTD:thread_safe_statics.obj
 0008:00000208       _tls_end                   0000000140091208     MSVCRTD:tlssup.obj
 0009:00000000       __guard_check_icall_fptr   0000000140092000     MSVCRTD:guard_support.obj
 0009:00000010       __guard_xfg_check_icall_fptr 0000000140092010     MSVCRTD:guard_support.obj
 0009:00000020       __guard_dispatch_icall_fptr 0000000140092020     MSVCRTD:guard_support.obj
 0009:00000030       __guard_xfg_dispatch_icall_fptr 0000000140092030     MSVCRTD:guard_support.obj
 0009:00000040       __guard_xfg_table_dispatch_icall_fptr 0000000140092040     MSVCRTD:guard_support.obj

 entry point at        0002:0000010e

 Static symbols

 0003:fff95000       $cppxdata$??$_Unfancy@D@std@@YAPEADPEAD@Z 0000000140000000     Session.obj
 0003:fff95000       $cppxdata$??$forward@AEBUClient@Persistence@TechnicalServices@@@std@@YAAEBUClient@Persistence@TechnicalServices@@AEBU123@@Z 0000000140000000     Session.obj
 0003:fff95000       $cppxdata$?_Large_string_engaged@?$_String_val@U?$_Simple_types@D@std@@@std@@QEBA_NXZ 0000000140000000     Session.obj
 0003:fff95000       $cppxdata$?_Myptr@?$_String_val@U?$_Simple_types@D@std@@@std@@QEBAPEBDXZ 0000000140000000     Session.obj
 0003:fff95000       $cppxdata$?__empty_global_delete@@YAXPEAX@Z 0000000140000000     Session.obj
 0003:fff95000       $cppxdata$?__empty_global_delete@@YAXPEAXW4align_val_t@std@@@Z 0000000140000000     Session.obj
 0003:fff95000       $cppxdata$?__empty_global_delete@@YAXPEAX_K@Z 0000000140000000     Session.obj
 0003:fff95000       $cppxdata$?__empty_global_delete@@YAXPEAX_KW4align_val_t@std@@@Z 0000000140000000     Session.obj
 0003:fff95000       $cppxdata$?compare@?$_Narrow_char_traits@DH@std@@SAHQEBD0_K@Z 0000000140000000     Session.obj
 0003:fff95000       $cppxdata$?length@?$_Narrow_char_traits@DH@std@@SA_KQEBD@Z 0000000140000000     Session.obj
 0003:fff95000       $ip2state$??$_Unfancy@D@std@@YAPEADPEAD@Z 0000000140000000     Session.obj
 0003:fff95000       $ip2state$??$forward@AEBUClient@Persistence@TechnicalServices@@@std@@YAAEBUClient@Persistence@TechnicalServices@@AEBU123@@Z 0000000140000000     Session.obj
 0003:fff95000       $ip2state$?_Large_string_engaged@?$_String_val@U?$_Simple_types@D@std@@@std@@QEBA_NXZ 0000000140000000     Session.obj
 0003:fff95000       $ip2state$?_Myptr@?$_String_val@U?$_Simple_types@D@std@@@std@@QEBAPEBDXZ 0000000140000000     Session.obj
 0003:fff95000       $ip2state$?__empty_global_delete@@YAXPEAX@Z 0000000140000000     Session.obj
 0003:fff95000       $ip2state$?__empty_global_delete@@YAXPEAXW4align_val_t@std@@@Z 0000000140000000     Session.obj
 0003:fff95000       $ip2state$?__empty_global_delete@@YAXPEAX_K@Z 0000000140000000     Session.obj
 0003:fff95000       $ip2state$?__empty_global_delete@@YAXPEAX_KW4align_val_t@std@@@Z 0000000140000000     Session.obj
 0003:fff95000       $ip2state$?compare@?$_Narrow_char_traits@DH@std@@SAHQEBD0_K@Z 0000000140000000     Session.obj
 0003:fff95000       $ip2state$?length@?$_Narrow_char_traits@DH@std@@SA_KQEBD@Z 0000000140000000     Session.obj
 0003:fff95000       $unwind$??$_Unfancy@D@std@@YAPEADPEAD@Z 0000000140000000     Session.obj
 0003:fff95000       $unwind$??$forward@AEBUClient@Persistence@TechnicalServices@@@std@@YAAEBUClient@Persistence@TechnicalServices@@AEBU123@@Z 0000000140000000     Session.obj
 0003:fff95000       $unwind$?_Large_string_engaged@?$_String_val@U?$_Simple_types@D@std@@@std@@QEBA_NXZ 0000000140000000     Session.obj
 0003:fff95000       $unwind$?_Myptr@?$_String_val@U?$_Simple_types@D@std@@@std@@QEBAPEBDXZ 0000000140000000     Session.obj
 0003:fff95000       $unwind$?__empty_global_delete@@YAXPEAX@Z 0000000140000000     Session.obj
 0003:fff95000       $unwind$?__empty_global_delete@@YAXPEAXW4align_val_t@std@@@Z 0000000140000000     Session.obj
 0003:fff95000       $unwind$?__empty_global_delete@@YAXPEAX_K@Z 0000000140000000     Session.obj
 0003:fff95000       $unwind$?__empty_global_delete@@YAXPEAX_KW4align_val_t@std@@@Z 0000000140000000     Session.obj
 0003:fff95000       $unwind$?compare@?$_Narrow_char_traits@DH@std@@SAHQEBD0_K@Z 0000000140000000     Session.obj
 0003:fff95000       $unwind$?length@?$_Narrow_char_traits@DH@std@@SA_KQEBD@Z 0000000140000000     Session.obj
 0003:fff95000       $cppxdata$??$?0D@?$allocator@U_Container_proxy@std@@@std@@QEAA@AEBV?$allocator@D@1@@Z 0000000140000000     SessionHandler.obj
 0003:fff95000       $cppxdata$??$?0V?$basic_string@DU?$char_traits@D@std@@V?$allocator@D@2@@std@@@?$allocator@U_Container_proxy@std@@@std@@QEAA@AEBV?$allocator@V?$basic_string@DU?$char_traits@D@std@@V?$allocator@D@2@@std@@@1@@Z 0000000140000000     SessionHandler.obj
 0003:fff95000       $cppxdata$??$_Construct_in_place@PEADAEBQEAD@std@@YAXAEAPEADAEBQEAD@Z 0000000140000000     SessionHandler.obj
 0003:fff95000       $cppxdata$??$_Construct_in_place@U_Container_proxy@std@@PEAU_Container_base12@2@@std@@YAXAEAU_Container_proxy@0@$$QEAPEAU_Container_base12@0@@Z 0000000140000000     SessionHandler.obj
 0003:fff95000       $cppxdata$??$_Convert_size@_K@std@@YA_K_K@Z 0000000140000000     SessionHandler.obj
 0003:fff95000       $cppxdata$??$_Deallocate@$0BA@$0A@@std@@YAXPEAX_K@Z 0000000140000000     SessionHandler.obj
 0003:fff95000       $cppxdata$??$_Deallocate_plain@V?$allocator@U_Container_proxy@std@@@std@@@std@@YAXAEAV?$allocator@U_Container_proxy@std@@@0@QEAU_Container_proxy@0@@Z 0000000140000000     SessionHandler.obj
 0003:fff95000       $cppxdata$??$_Delete_plain_internal@V?$allocator@U_Container_proxy@std@@@std@@@std@@YAXAEAV?$allocator@U_Container_proxy@std@@@0@QEAU_Container_proxy@0@@Z 0000000140000000     SessionHandler.obj
 0003:fff95000       $cppxdata$??$_Destroy_in_place@PEAD@std@@YAXAEAPEAD@Z 0000000140000000     SessionHandler.obj
 0003:fff95000       $cppxdata$??$_Destroy_range@V?$allocator@V?$basic_string@DU?$char_traits@D@std@@V?$allocator@D@2@@std@@@std@@@std@@YAXPEAV?$basic_string@DU?$char_traits@D@std@@V?$allocator@D@2@@0@QEAV10@AEAV?$allocator@V?$basic_string@DU?$char_traits@D@std@@V?$allocator@D@2@@std@@@0@@Z 0000000140000000     SessionHandler.obj
 0003:fff95000       $cppxdata$??$_Traits_equal@U?$char_traits@D@std@@@std@@YA_NQEBD_K01@Z 0000000140000000     SessionHandler.obj
 0003:fff95000       $cppxdata$??$_Unfancy@D@std@@YAPEADPEAD@Z 0000000140000000     SessionHandler.obj
 0003:fff95000       $cppxdata$??$_Unfancy@U_Container_proxy@std@@@std@@YAPEAU_Container_proxy@0@PEAU10@@Z 0000000140000000     SessionHandler.obj
 0003:fff95000       $cppxdata$??$_Unfancy@V?$basic_string@DU?$char_traits@D@std@@V?$allocator@D@2@@std@@@std@@YAPEAV?$basic_string@DU?$char_traits@D@std@@V?$allocator@D@2@@0@PEAV10@@Z 0000000140000000     SessionHandler.obj
 0003:fff95000       $cppxdata$??$addressof@$$CBV?$_String_val@U?$_Simple_types@D@std@@@std@@@std@@YAPEBV?$_String_val@U?$_Simple_types@D@std@@@0@AEBV10@@Z 0000000140000000     SessionHandler.obj
 0003:fff95000       $cppxdata$??$addressof@PEAD@std@@YAPEAPEADAEAPEAD@Z 0000000140000000     SessionHandler.obj
 0003:fff95000       $cppxdata$??$addressof@U_Container_base12@std@@@std@@YAPEAU_Container_base12@0@AEAU10@@Z 0000000140000000     SessionHandler.obj
 0003:fff95000       $cppxdata$??$addressof@U_Container_proxy@std@@@std@@YAPEAU_Container_proxy@0@AEAU10@@Z 0000000140000000     SessionHandler.obj
 0003:fff95000       $cppxdata$??$addressof@V?$_String_val@U?$_Simple_types@D@std@@@std@@@std@@YAPEAV?$_String_val@U?$_Simple_types@D@std@@@0@AEAV10@@Z 0000000140000000     SessionHandler.obj
 0003:fff95000       $cppxdata$??$exchange@PEAU_Container_proxy@std@@$$T@std@@YAPEAU_Container_proxy@0@AEAPEAU10@$$QEA$$T@Z 0000000140000000     SessionHandler.obj
 0003:fff95000       $cppxdata$??$forward@AEBQEAD@std@@YAAEBQEADAEBQEAD@Z 0000000140000000     SessionHandler.obj
 0003:fff95000       $cppxdata$??$forward@PEAU_Container_base12@std@@@std@@YA$$QEAPEAU_Container_base12@0@AEAPEAU10@@Z 0000000140000000     SessionHandler.obj
 0003:fff95000       $cppxdata$??$forward@V?$allocator@D@std@@@std@@YA$$QEAV?$allocator@D@0@AEAV10@@Z 0000000140000000     SessionHandler.obj
 0003:fff95000       $cppxdata$??$max@_K@std@@YAAEB_KAEB_K0@Z 0000000140000000     SessionHandler.obj
 0003:fff95000       $cppxdata$??$min@_K@std@@YAAEB_KAEB_K0@Z 0000000140000000     SessionHandler.obj
 0003:fff95000       $cppxdata$??$move@AEAV?$allocator@D@std@@@std@@YA$$QEAV?$allocator@D@0@AEAV10@@Z 0000000140000000     SessionHandler.obj
 0003:fff95000       $cppxdata$??$move@AEAV?$basic_string@DU?$char_traits@D@std@@V?$allocator@D@2@@std@@@std@@YA$$QEAV?$basic_string@DU?$char_traits@D@std@@V?$allocator@D@2@@0@AEAV10@@Z 0000000140000000     SessionHandler.obj
 0003:fff95000       $cppxdata$??0?$allocator@D@std@@QEAA@XZ 0000000140000000     SessionHandler.obj
 0003:fff95000       $cppxdata$??0?$basic_string@DU?$char_traits@D@std@@V?$allocator@D@2@@std@@QEAA@$$QEAV01@@Z 0000000140000000     SessionHandler.obj
 0003:fff95000       $cppxdata$??0?$basic_string@DU?$char_traits@D@std@@V?$allocator@D@2@@std@@QEAA@QEBD@Z 0000000140000000     SessionHandler.obj
 0003:fff95000       $cppxdata$??0_Container_base12@std@@QEAA@XZ 0000000140000000     SessionHandler.obj
 0003:fff95000       $cppxdata$??0_Container_proxy@std@@QEAA@PEAU_Container_base12@1@@Z 0000000140000000     SessionHandler.obj
 0003:fff95000       $cppxdata$??0bad_alloc@std@@AEAA@QEBD@Z 0000000140000000     SessionHandler.obj
 0003:fff95000       $cppxdata$??0bad_array_new_length@std@@QEAA@XZ 0000000140000000     SessionHandler.obj
 0003:fff95000       $cppxdata$??0exception@std@@QEAA@AEBV01@@Z 0000000140000000     SessionHandler.obj
 0003:fff95000       $cppxdata$??0exception@std@@QEAA@QEBD@Z 0000000140000000     SessionHandler.obj
 0003:fff95000       $cppxdata$??0exception@std@@QEAA@QEBDH@Z 0000000140000000     SessionHandler.obj
 0003:fff95000       $cppxdata$??1?$_Container_proxy_ptr12@V?$allocator@U_Container_proxy@std@@@std@@@std@@QEAA@XZ 0000000140000000     SessionHandler.obj
 0003:fff95000       $cppxdata$??1?$basic_string@DU?$char_traits@D@std@@V?$allocator@D@2@@std@@QEAA@XZ 0000000140000000     SessionHandler.obj
 0003:fff95000       $cppxdata$??1?$vector@V?$basic_string@DU?$char_traits@D@std@@V?$allocator@D@2@@std@@V?$allocator@V?$basic_string@DU?$char_traits@D@std@@V?$allocator@D@2@@std@@@2@@std@@QEAA@XZ 0000000140000000     SessionHandler.obj
 0003:fff95000       $cppxdata$??1_Bxty@?$_String_val@U?$_Simple_types@D@std@@@std@@QEAA@XZ 0000000140000000     SessionHandler.obj
 0003:fff95000       $cppxdata$??1exception@std@@UEAA@XZ 0000000140000000     SessionHandler.obj
 0003:fff95000       $cppxdata$??2@YAPEAX_KPEAX@Z 0000000140000000     SessionHandler.obj
 0003:fff95000       $cppxdata$?_Calculate_growth@?$basic_string@DU?$char_traits@D@std@@V?$allocator@D@2@@std@@AEBA_K_K@Z 0000000140000000     SessionHandler.obj
 0003:fff95000       $cppxdata$?_Calculate_growth@?$basic_string@DU?$char_traits@D@std@@V?$allocator@D@2@@std@@CA_K_K00@Z 0000000140000000     SessionHandler.obj
 0003:fff95000       $cppxdata$?_Equal@?$basic_string@DU?$char_traits@D@std@@V?$allocator@D@2@@std@@QEBA_NQEBD@Z 0000000140000000     SessionHandler.obj
 0003:fff95000       $cppxdata$?_Get_first@?$_Compressed_pair@V?$allocator@D@std@@V?$_String_val@U?$_Simple_types@D@std@@@2@$00@std@@QEAAAEAV?$allocator@D@2@XZ 0000000140000000     SessionHandler.obj
 0003:fff95000       $cppxdata$?_Get_first@?$_Compressed_pair@V?$allocator@D@std@@V?$_String_val@U?$_Simple_types@D@std@@@2@$00@std@@QEBAAEBV?$allocator@D@2@XZ 0000000140000000     SessionHandler.obj
 0003:fff95000       $cppxdata$?_Get_first@?$_Compressed_pair@V?$allocator@V?$basic_string@DU?$char_traits@D@std@@V?$allocator@D@2@@std@@@std@@V?$_Vector_val@U?$_Simple_types@V?$basic_string@DU?$char_traits@D@std@@V?$allocator@D@2@@std@@@std@@@2@$00@std@@QEAAAEAV?$allocator@V?$basic_string@DU?$char_traits@D@std@@V?$allocator@D@2@@std@@@2@XZ 0000000140000000     SessionHandler.obj
 0003:fff95000       $cppxdata$?_Getal@?$basic_string@DU?$char_traits@D@std@@V?$allocator@D@2@@std@@AEAAAEAV?$allocator@D@2@XZ 0000000140000000     SessionHandler.obj
 0003:fff95000       $cppxdata$?_Getal@?$basic_string@DU?$char_traits@D@std@@V?$allocator@D@2@@std@@AEBAAEBV?$allocator@D@2@XZ 0000000140000000     SessionHandler.obj
 0003:fff95000       $cppxdata$?_Getal@?$vector@V?$basic_string@DU?$char_traits@D@std@@V?$allocator@D@2@@std@@V?$allocator@V?$basic_string@DU?$char_traits@D@std@@V?$allocator@D@2@@std@@@2@@std@@AEAAAEAV?$allocator@V?$basic_string@DU?$char_traits@D@std@@V?$allocator@D@2@@std@@@2@XZ 0000000140000000     SessionHandler.obj
 0003:fff95000       $cppxdata$?_Large_string_engaged@?$_String_val@U?$_Simple_types@D@std@@@std@@QEBA_NXZ 0000000140000000     SessionHandler.obj
 0003:fff95000       $cppxdata$?_Memcpy_val_from@?$basic_string@DU?$char_traits@D@std@@V?$allocator@D@2@@std@@AEAAXAEBV12@@Z 0000000140000000     SessionHandler.obj
 0003:fff95000       $cppxdata$?_Myptr@?$_String_val@U?$_Simple_types@D@std@@@std@@QEAAPEADXZ 0000000140000000     SessionHandler.obj
 0003:fff95000       $cppxdata$?_Myptr@?$_String_val@U?$_Simple_types@D@std@@@std@@QEBAPEBDXZ 0000000140000000     SessionHandler.obj
 0003:fff95000       $cppxdata$?_Orphan_all@_Container_base12@std@@QEAAXXZ 0000000140000000     SessionHandler.obj
 0003:fff95000       $cppxdata$?_Release@_Basic_container_proxy_ptr12@std@@QEAAXXZ 0000000140000000     SessionHandler.obj
 0003:fff95000       $cppxdata$?_Swap_proxy_and_iterators@_Container_base12@std@@QEAAXAEAU12@@Z 0000000140000000     SessionHandler.obj
 0003:fff95000       $cppxdata$?_Take_contents@?$basic_string@DU?$char_traits@D@std@@V?$allocator@D@2@@std@@AEAAXAEAV12@U?$integral_constant@_N$00@2@@Z 0000000140000000     SessionHandler.obj
 0003:fff95000       $cppxdata$?_Tidy@?$vector@V?$basic_string@DU?$char_traits@D@std@@V?$allocator@D@2@@std@@V?$allocator@V?$basic_string@DU?$char_traits@D@std@@V?$allocator@D@2@@std@@@2@@std@@AEAAXXZ 0000000140000000     SessionHandler.obj
 0003:fff95000       $cppxdata$?_Tidy_deallocate@?$basic_string@DU?$char_traits@D@std@@V?$allocator@D@2@@std@@AEAAXXZ 0000000140000000     SessionHandler.obj
 0003:fff95000       $cppxdata$?_Tidy_init@?$basic_string@DU?$char_traits@D@std@@V?$allocator@D@2@@std@@AEAAXXZ 0000000140000000     SessionHandler.obj
 0003:fff95000       $cppxdata$?__empty_global_delete@@YAXPEAX@Z 0000000140000000     SessionHandler.obj
 0003:fff95000       $cppxdata$?__empty_global_delete@@YAXPEAXW4align_val_t@std@@@Z 0000000140000000     SessionHandler.obj
 0003:fff95000       $cppxdata$?__empty_global_delete@@YAXPEAX_K@Z 0000000140000000     SessionHandler.obj
 0003:fff95000       $cppxdata$?__empty_global_delete@@YAXPEAX_KW4align_val_t@std@@@Z 0000000140000000     SessionHandler.obj
 0003:fff95000       $cppxdata$?assign@?$_Narrow_char_traits@DH@std@@SAXAEADAEBD@Z 0000000140000000     SessionHandler.obj
 0003:fff95000       $cppxdata$?c_str@?$basic_string@DU?$char_traits@D@std@@V?$allocator@D@2@@std@@QEBAPEBDXZ 0000000140000000     SessionHandler.obj
 0003:fff95000       $cppxdata$?compare@?$_Narrow_char_traits@DH@std@@SAHQEBD0_K@Z 0000000140000000     SessionHandler.obj
 0003:fff95000       $cppxdata$?copy@?$_Narrow_char_traits@DH@std@@SAPEADQEADQEBD_K@Z 0000000140000000     SessionHandler.obj
 0003:fff95000       $cppxdata$?length@?$_Narrow_char_traits@DH@std@@SA_KQEBD@Z 0000000140000000     SessionHandler.obj
 0003:fff95000       $cppxdata$?max@?$numeric_limits@_J@std@@SA_JXZ 0000000140000000     SessionHandler.obj
 0003:fff95000       $cppxdata$?max_size@?$_Default_allocator_traits@V?$allocator@D@std@@@std@@SA_KAEBV?$allocator@D@2@@Z 0000000140000000     SessionHandler.obj
 0003:fff95000       $cppxdata$?max_size@?$basic_string@DU?$char_traits@D@std@@V?$allocator@D@2@@std@@QEBA_KXZ 0000000140000000     SessionHandler.obj
 0003:fff95000       $cppxdata$?move@?$_Narrow_char_traits@DH@std@@SAPEADQEADQEBD_K@Z 0000000140000000     SessionHandler.obj
 0003:fff95000       $ip2state$??$?0D@?$allocator@U_Container_proxy@std@@@std@@QEAA@AEBV?$allocator@D@1@@Z 0000000140000000     SessionHandler.obj
 0003:fff95000       $ip2state$??$?0V?$basic_string@DU?$char_traits@D@std@@V?$allocator@D@2@@std@@@?$allocator@U_Container_proxy@std@@@std@@QEAA@AEBV?$allocator@V?$basic_string@DU?$char_traits@D@std@@V?$allocator@D@2@@std@@@1@@Z 0000000140000000     SessionHandler.obj
 0003:fff95000       $ip2state$??$_Construct_in_place@PEADAEBQEAD@std@@YAXAEAPEADAEBQEAD@Z 0000000140000000     SessionHandler.obj
 0003:fff95000       $ip2state$??$_Construct_in_place@U_Container_proxy@std@@PEAU_Container_base12@2@@std@@YAXAEAU_Container_proxy@0@$$QEAPEAU_Container_base12@0@@Z 0000000140000000     SessionHandler.obj
 0003:fff95000       $ip2state$??$_Convert_size@_K@std@@YA_K_K@Z 0000000140000000     SessionHandler.obj
 0003:fff95000       $ip2state$??$_Deallocate@$0BA@$0A@@std@@YAXPEAX_K@Z 0000000140000000     SessionHandler.obj
 0003:fff95000       $ip2state$??$_Deallocate_plain@V?$allocator@U_Container_proxy@std@@@std@@@std@@YAXAEAV?$allocator@U_Container_proxy@std@@@0@QEAU_Container_proxy@0@@Z 0000000140000000     SessionHandler.obj
 0003:fff95000       $ip2state$??$_Delete_plain_internal@V?$allocator@U_Container_proxy@std@@@std@@@std@@YAXAEAV?$allocator@U_Container_proxy@std@@@0@QEAU_Container_proxy@0@@Z 0000000140000000     SessionHandler.obj
 0003:fff95000       $ip2state$??$_Destroy_in_place@PEAD@std@@YAXAEAPEAD@Z 0000000140000000     SessionHandler.obj
 0003:fff95000       $ip2state$??$_Destroy_range@V?$allocator@V?$basic_string@DU?$char_traits@D@std@@V?$allocator@D@2@@std@@@std@@@std@@YAXPEAV?$basic_string@DU?$char_traits@D@std@@V?$allocator@D@2@@0@QEAV10@AEAV?$allocator@V?$basic_string@DU?$char_traits@D@std@@V?$allocator@D@2@@std@@@0@@Z 0000000140000000     SessionHandler.obj
 0003:fff95000       $ip2state$??$_Traits_equal@U?$char_traits@D@std@@@std@@YA_NQEBD_K01@Z 0000000140000000     SessionHandler.obj
 0003:fff95000       $ip2state$??$_Unfancy@D@std@@YAPEADPEAD@Z 0000000140000000     SessionHandler.obj
 0003:fff95000       $ip2state$??$_Unfancy@U_Container_proxy@std@@@std@@YAPEAU_Container_proxy@0@PEAU10@@Z 0000000140000000     SessionHandler.obj
 0003:fff95000       $ip2state$??$_Unfancy@V?$basic_string@DU?$char_traits@D@std@@V?$allocator@D@2@@std@@@std@@YAPEAV?$basic_string@DU?$char_traits@D@std@@V?$allocator@D@2@@0@PEAV10@@Z 0000000140000000     SessionHandler.obj
 0003:fff95000       $ip2state$??$addressof@$$CBV?$_String_val@U?$_Simple_types@D@std@@@std@@@std@@YAPEBV?$_String_val@U?$_Simple_types@D@std@@@0@AEBV10@@Z 0000000140000000     SessionHandler.obj
 0003:fff95000       $ip2state$??$addressof@PEAD@std@@YAPEAPEADAEAPEAD@Z 0000000140000000     SessionHandler.obj
 0003:fff95000       $ip2state$??$addressof@U_Container_base12@std@@@std@@YAPEAU_Container_base12@0@AEAU10@@Z 0000000140000000     SessionHandler.obj
 0003:fff95000       $ip2state$??$addressof@U_Container_proxy@std@@@std@@YAPEAU_Container_proxy@0@AEAU10@@Z 0000000140000000     SessionHandler.obj
 0003:fff95000       $ip2state$??$addressof@V?$_String_val@U?$_Simple_types@D@std@@@std@@@std@@YAPEAV?$_String_val@U?$_Simple_types@D@std@@@0@AEAV10@@Z 0000000140000000     SessionHandler.obj
 0003:fff95000       $ip2state$??$exchange@PEAU_Container_proxy@std@@$$T@std@@YAPEAU_Container_proxy@0@AEAPEAU10@$$QEA$$T@Z 0000000140000000     SessionHandler.obj
 0003:fff95000       $ip2state$??$forward@AEBQEAD@std@@YAAEBQEADAEBQEAD@Z 0000000140000000     SessionHandler.obj
 0003:fff95000       $ip2state$??$forward@PEAU_Container_base12@std@@@std@@YA$$QEAPEAU_Container_base12@0@AEAPEAU10@@Z 0000000140000000     SessionHandler.obj
 0003:fff95000       $ip2state$??$forward@V?$allocator@D@std@@@std@@YA$$QEAV?$allocator@D@0@AEAV10@@Z 0000000140000000     SessionHandler.obj
 0003:fff95000       $ip2state$??$max@_K@std@@YAAEB_KAEB_K0@Z 0000000140000000     SessionHandler.obj
 0003:fff95000       $ip2state$??$min@_K@std@@YAAEB_KAEB_K0@Z 0000000140000000     SessionHandler.obj
 0003:fff95000       $ip2state$??$move@AEAV?$allocator@D@std@@@std@@YA$$QEAV?$allocator@D@0@AEAV10@@Z 0000000140000000     SessionHandler.obj
 0003:fff95000       $ip2state$??$move@AEAV?$basic_string@DU?$char_traits@D@std@@V?$allocator@D@2@@std@@@std@@YA$$QEAV?$basic_string@DU?$char_traits@D@std@@V?$allocator@D@2@@0@AEAV10@@Z 0000000140000000     SessionHandler.obj
 0003:fff95000       $ip2state$??0?$allocator@D@std@@QEAA@XZ 0000000140000000     SessionHandler.obj
 0003:fff95000       $ip2state$??0?$basic_string@DU?$char_traits@D@std@@V?$allocator@D@2@@std@@QEAA@$$QEAV01@@Z 0000000140000000     SessionHandler.obj
 0003:fff95000       $ip2state$??0?$basic_string@DU?$char_traits@D@std@@V?$allocator@D@2@@std@@QEAA@QEBD@Z 0000000140000000     SessionHandler.obj
 0003:fff95000       $ip2state$??0_Container_base12@std@@QEAA@XZ 0000000140000000     SessionHandler.obj
 0003:fff95000       $ip2state$??0_Container_proxy@std@@QEAA@PEAU_Container_base12@1@@Z 0000000140000000     SessionHandler.obj
 0003:fff95000       $ip2state$??0bad_alloc@std@@AEAA@QEBD@Z 0000000140000000     SessionHandler.obj
 0003:fff95000       $ip2state$??0bad_array_new_length@std@@QEAA@XZ 0000000140000000     SessionHandler.obj
 0003:fff95000       $ip2state$??0exception@std@@QEAA@AEBV01@@Z 0000000140000000     SessionHandler.obj
 0003:fff95000       $ip2state$??0exception@std@@QEAA@QEBD@Z 0000000140000000     SessionHandler.obj
 0003:fff95000       $ip2state$??0exception@std@@QEAA@QEBDH@Z 0000000140000000     SessionHandler.obj
 0003:fff95000       $ip2state$??1?$_Container_proxy_ptr12@V?$allocator@U_Container_proxy@std@@@std@@@std@@QEAA@XZ 0000000140000000     SessionHandler.obj
 0003:fff95000       $ip2state$??1?$basic_string@DU?$char_traits@D@std@@V?$allocator@D@2@@std@@QEAA@XZ 0000000140000000     SessionHandler.obj
 0003:fff95000       $ip2state$??1?$vector@V?$basic_string@DU?$char_traits@D@std@@V?$allocator@D@2@@std@@V?$allocator@V?$basic_string@DU?$char_traits@D@std@@V?$allocator@D@2@@std@@@2@@std@@QEAA@XZ 0000000140000000     SessionHandler.obj
 0003:fff95000       $ip2state$??1_Bxty@?$_String_val@U?$_Simple_types@D@std@@@std@@QEAA@XZ 0000000140000000     SessionHandler.obj
 0003:fff95000       $ip2state$??1exception@std@@UEAA@XZ 0000000140000000     SessionHandler.obj
 0003:fff95000       $ip2state$??2@YAPEAX_KPEAX@Z 0000000140000000     SessionHandler.obj
 0003:fff95000       $ip2state$?_Calculate_growth@?$basic_string@DU?$char_traits@D@std@@V?$allocator@D@2@@std@@AEBA_K_K@Z 0000000140000000     SessionHandler.obj
 0003:fff95000       $ip2state$?_Calculate_growth@?$basic_string@DU?$char_traits@D@std@@V?$allocator@D@2@@std@@CA_K_K00@Z 0000000140000000     SessionHandler.obj
 0003:fff95000       $ip2state$?_Equal@?$basic_string@DU?$char_traits@D@std@@V?$allocator@D@2@@std@@QEBA_NQEBD@Z 0000000140000000     SessionHandler.obj
 0003:fff95000       $ip2state$?_Get_first@?$_Compressed_pair@V?$allocator@D@std@@V?$_String_val@U?$_Simple_types@D@std@@@2@$00@std@@QEAAAEAV?$allocator@D@2@XZ 0000000140000000     SessionHandler.obj
 0003:fff95000       $ip2state$?_Get_first@?$_Compressed_pair@V?$allocator@D@std@@V?$_String_val@U?$_Simple_types@D@std@@@2@$00@std@@QEBAAEBV?$allocator@D@2@XZ 0000000140000000     SessionHandler.obj
 0003:fff95000       $ip2state$?_Get_first@?$_Compressed_pair@V?$allocator@V?$basic_string@DU?$char_traits@D@std@@V?$allocator@D@2@@std@@@std@@V?$_Vector_val@U?$_Simple_types@V?$basic_string@DU?$char_traits@D@std@@V?$allocator@D@2@@std@@@std@@@2@$00@std@@QEAAAEAV?$allocator@V?$basic_string@DU?$char_traits@D@std@@V?$allocator@D@2@@std@@@2@XZ 0000000140000000     SessionHandler.obj
 0003:fff95000       $ip2state$?_Getal@?$basic_string@DU?$char_traits@D@std@@V?$allocator@D@2@@std@@AEAAAEAV?$allocator@D@2@XZ 0000000140000000     SessionHandler.obj
 0003:fff95000       $ip2state$?_Getal@?$basic_string@DU?$char_traits@D@std@@V?$allocator@D@2@@std@@AEBAAEBV?$allocator@D@2@XZ 0000000140000000     SessionHandler.obj
 0003:fff95000       $ip2state$?_Getal@?$vector@V?$basic_string@DU?$char_traits@D@std@@V?$allocator@D@2@@std@@V?$allocator@V?$basic_string@DU?$char_traits@D@std@@V?$allocator@D@2@@std@@@2@@std@@AEAAAEAV?$allocator@V?$basic_string@DU?$char_traits@D@std@@V?$allocator@D@2@@std@@@2@XZ 0000000140000000     SessionHandler.obj
 0003:fff95000       $ip2state$?_Large_string_engaged@?$_String_val@U?$_Simple_types@D@std@@@std@@QEBA_NXZ 0000000140000000     SessionHandler.obj
 0003:fff95000       $ip2state$?_Memcpy_val_from@?$basic_string@DU?$char_traits@D@std@@V?$allocator@D@2@@std@@AEAAXAEBV12@@Z 0000000140000000     SessionHandler.obj
 0003:fff95000       $ip2state$?_Myptr@?$_String_val@U?$_Simple_types@D@std@@@std@@QEAAPEADXZ 0000000140000000     SessionHandler.obj
 0003:fff95000       $ip2state$?_Myptr@?$_String_val@U?$_Simple_types@D@std@@@std@@QEBAPEBDXZ 0000000140000000     SessionHandler.obj
 0003:fff95000       $ip2state$?_Orphan_all@_Container_base12@std@@QEAAXXZ 0000000140000000     SessionHandler.obj
 0003:fff95000       $ip2state$?_Release@_Basic_container_proxy_ptr12@std@@QEAAXXZ 0000000140000000     SessionHandler.obj
 0003:fff95000       $ip2state$?_Swap_proxy_and_iterators@_Container_base12@std@@QEAAXAEAU12@@Z 0000000140000000     SessionHandler.obj
 0003:fff95000       $ip2state$?_Take_contents@?$basic_string@DU?$char_traits@D@std@@V?$allocator@D@2@@std@@AEAAXAEAV12@U?$integral_constant@_N$00@2@@Z 0000000140000000     SessionHandler.obj
 0003:fff95000       $ip2state$?_Tidy@?$vector@V?$basic_string@DU?$char_traits@D@std@@V?$allocator@D@2@@std@@V?$allocator@V?$basic_string@DU?$char_traits@D@std@@V?$allocator@D@2@@std@@@2@@std@@AEAAXXZ 0000000140000000     SessionHandler.obj
 0003:fff95000       $ip2state$?_Tidy_deallocate@?$basic_string@DU?$char_traits@D@std@@V?$allocator@D@2@@std@@AEAAXXZ 0000000140000000     SessionHandler.obj
 0003:fff95000       $ip2state$?_Tidy_init@?$basic_string@DU?$char_traits@D@std@@V?$allocator@D@2@@std@@AEAAXXZ 0000000140000000     SessionHandler.obj
 0003:fff95000       $ip2state$?__empty_global_delete@@YAXPEAX@Z 0000000140000000     SessionHandler.obj
 0003:fff95000       $ip2state$?__empty_global_delete@@YAXPEAXW4align_val_t@std@@@Z 0000000140000000     SessionHandler.obj
 0003:fff95000       $ip2state$?__empty_global_delete@@YAXPEAX_K@Z 0000000140000000     SessionHandler.obj
 0003:fff95000       $ip2state$?__empty_global_delete@@YAXPEAX_KW4align_val_t@std@@@Z 0000000140000000     SessionHandler.obj
 0003:fff95000       $ip2state$?assign@?$_Narrow_char_traits@DH@std@@SAXAEADAEBD@Z 0000000140000000     SessionHandler.obj
 0003:fff95000       $ip2state$?c_str@?$basic_string@DU?$char_traits@D@std@@V?$allocator@D@2@@std@@QEBAPEBDXZ 0000000140000000     SessionHandler.obj
 0003:fff95000       $ip2state$?compare@?$_Narrow_char_traits@DH@std@@SAHQEBD0_K@Z 0000000140000000     SessionHandler.obj
 0003:fff95000       $ip2state$?copy@?$_Narrow_char_traits@DH@std@@SAPEADQEADQEBD_K@Z 0000000140000000     SessionHandler.obj
 0003:fff95000       $ip2state$?length@?$_Narrow_char_traits@DH@std@@SA_KQEBD@Z 0000000140000000     SessionHandler.obj
 0003:fff95000       $ip2state$?max@?$numeric_limits@_J@std@@SA_JXZ 0000000140000000     SessionHandler.obj
 0003:fff95000       $ip2state$?max_size@?$_Default_allocator_traits@V?$allocator@D@std@@@std@@SA_KAEBV?$allocator@D@2@@Z 0000000140000000     SessionHandler.obj
 0003:fff95000       $ip2state$?max_size@?$basic_string@DU?$char_traits@D@std@@V?$allocator@D@2@@std@@QEBA_KXZ 0000000140000000     SessionHandler.obj
 0003:fff95000       $ip2state$?move@?$_Narrow_char_traits@DH@std@@SAPEADQEADQEBD_K@Z 0000000140000000     SessionHandler.obj
 0003:fff95000       $stateUnwindMap$??0?$basic_string@DU?$char_traits@D@std@@V?$allocator@D@2@@std@@QEAA@QEBD@Z 0000000140000000     SessionHandler.obj
 0003:fff95000       $unwind$??$?0$$V@?$_Compressed_pair@V?$allocator@D@std@@V?$_String_val@U?$_Simple_types@D@std@@@2@$00@std@@QEAA@U_Zero_then_variadic_args_t@1@@Z 0000000140000000     SessionHandler.obj
 0003:fff95000       $unwind$??$?0D@?$allocator@U_Container_proxy@std@@@std@@QEAA@AEBV?$allocator@D@1@@Z 0000000140000000     SessionHandler.obj
 0003:fff95000       $unwind$??$?0V?$allocator@D@std@@$$V@?$_Compressed_pair@V?$allocator@D@std@@V?$_String_val@U?$_Simple_types@D@std@@@2@$00@std@@QEAA@U_One_then_variadic_args_t@1@$$QEAV?$allocator@D@1@@Z 0000000140000000     SessionHandler.obj
 0003:fff95000       $unwind$??$?0V?$basic_string@DU?$char_traits@D@std@@V?$allocator@D@2@@std@@@?$allocator@U_Container_proxy@std@@@std@@QEAA@AEBV?$allocator@V?$basic_string@DU?$char_traits@D@std@@V?$allocator@D@2@@std@@@1@@Z 0000000140000000     SessionHandler.obj
 0003:fff95000       $unwind$??$?8DU?$char_traits@D@std@@V?$allocator@D@1@@std@@YA_NAEBV?$basic_string@DU?$char_traits@D@std@@V?$allocator@D@2@@0@QEBD@Z 0000000140000000     SessionHandler.obj
 0003:fff95000       $unwind$??$?HDU?$char_traits@D@std@@V?$allocator@D@1@@std@@YA?AV?$basic_string@DU?$char_traits@D@std@@V?$allocator@D@2@@0@QEBD$$QEAV10@@Z 0000000140000000     SessionHandler.obj
 0003:fff95000       $unwind$??$_Alloc_proxy@V?$allocator@U_Container_proxy@std@@@std@@@_Container_base12@std@@QEAAX$$QEAV?$allocator@U_Container_proxy@std@@@1@@Z 0000000140000000     SessionHandler.obj
 0003:fff95000       $unwind$??$_Allocate@$0BA@U_Default_allocate_traits@std@@$0A@@std@@YAPEAX_K@Z 0000000140000000     SessionHandler.obj
 0003:fff95000       $unwind$??$_Allocate_manually_vector_aligned@U_Default_allocate_traits@std@@@std@@YAPEAX_K@Z 0000000140000000     SessionHandler.obj
 0003:fff95000       $unwind$??$_Construct_in_place@PEADAEBQEAD@std@@YAXAEAPEADAEBQEAD@Z 0000000140000000     SessionHandler.obj
 0003:fff95000       $unwind$??$_Construct_in_place@U_Container_proxy@std@@PEAU_Container_base12@2@@std@@YAXAEAU_Container_proxy@0@$$QEAPEAU_Container_base12@0@@Z 0000000140000000     SessionHandler.obj
 0003:fff95000       $unwind$??$_Convert_size@_K@std@@YA_K_K@Z 0000000140000000     SessionHandler.obj
 0003:fff95000       $unwind$??$_Deallocate@$0BA@$0A@@std@@YAXPEAX_K@Z 0000000140000000     SessionHandler.obj
 0003:fff95000       $unwind$??$_Deallocate_plain@V?$allocator@U_Container_proxy@std@@@std@@@std@@YAXAEAV?$allocator@U_Container_proxy@std@@@0@QEAU_Container_proxy@0@@Z 0000000140000000     SessionHandler.obj
 0003:fff95000       $unwind$??$_Delete_plain_internal@V?$allocator@U_Container_proxy@std@@@std@@@std@@YAXAEAV?$allocator@U_Container_proxy@std@@@0@QEAU_Container_proxy@0@@Z 0000000140000000     SessionHandler.obj
 0003:fff95000       $unwind$??$_Destroy_in_place@PEAD@std@@YAXAEAPEAD@Z 0000000140000000     SessionHandler.obj
 0003:fff95000       $unwind$??$_Destroy_range@V?$allocator@V?$basic_string@DU?$char_traits@D@std@@V?$allocator@D@2@@std@@@std@@@std@@YAXPEAV?$basic_string@DU?$char_traits@D@std@@V?$allocator@D@2@@0@QEAV10@AEAV?$allocator@V?$basic_string@DU?$char_traits@D@std@@V?$allocator@D@2@@std@@@0@@Z 0000000140000000     SessionHandler.obj
 0003:fff95000       $unwind$??$_Get_size_of_n@$00@std@@YA_K_K@Z 0000000140000000     SessionHandler.obj
 0003:fff95000       $unwind$??$_Get_size_of_n@$0BA@@std@@YA_K_K@Z 0000000140000000     SessionHandler.obj
 0003:fff95000       $unwind$??$_Reallocate_for@V<lambda_66f57f934f28d61049862f64df852ff0>@@PEBD@?$basic_string@DU?$char_traits@D@std@@V?$allocator@D@2@@std@@AEAAAEAV01@_KV<lambda_66f57f934f28d61049862f64df852ff0>@@PEBD@Z 0000000140000000     SessionHandler.obj
 0003:fff95000       $unwind$??$_Reallocate_grow_by@V<lambda_f3a66ab6a0570788f31503db83886f49>@@_KPEBD_K@?$basic_string@DU?$char_traits@D@std@@V?$allocator@D@2@@std@@AEAAAEAV01@_KV<lambda_f3a66ab6a0570788f31503db83886f49>@@_KPEBD2@Z 0000000140000000     SessionHandler.obj
 0003:fff95000       $unwind$??$_Traits_equal@U?$char_traits@D@std@@@std@@YA_NQEBD_K01@Z 0000000140000000     SessionHandler.obj
 0003:fff95000       $unwind$??$_Unfancy@D@std@@YAPEADPEAD@Z 0000000140000000     SessionHandler.obj
 0003:fff95000       $unwind$??$_Unfancy@U_Container_proxy@std@@@std@@YAPEAU_Container_proxy@0@PEAU10@@Z 0000000140000000     SessionHandler.obj
 0003:fff95000       $unwind$??$_Unfancy@V?$basic_string@DU?$char_traits@D@std@@V?$allocator@D@2@@std@@@std@@YAPEAV?$basic_string@DU?$char_traits@D@std@@V?$allocator@D@2@@0@PEAV10@@Z 0000000140000000     SessionHandler.obj
 0003:fff95000       $unwind$??$addressof@$$CBV?$_String_val@U?$_Simple_types@D@std@@@std@@@std@@YAPEBV?$_String_val@U?$_Simple_types@D@std@@@0@AEBV10@@Z 0000000140000000     SessionHandler.obj
 0003:fff95000       $unwind$??$addressof@PEAD@std@@YAPEAPEADAEAPEAD@Z 0000000140000000     SessionHandler.obj
 0003:fff95000       $unwind$??$addressof@U_Container_base12@std@@@std@@YAPEAU_Container_base12@0@AEAU10@@Z 0000000140000000     SessionHandler.obj
 0003:fff95000       $unwind$??$addressof@U_Container_proxy@std@@@std@@YAPEAU_Container_proxy@0@AEAU10@@Z 0000000140000000     SessionHandler.obj
 0003:fff95000       $unwind$??$addressof@V?$_String_val@U?$_Simple_types@D@std@@@std@@@std@@YAPEAV?$_String_val@U?$_Simple_types@D@std@@@0@AEAV10@@Z 0000000140000000     SessionHandler.obj
 0003:fff95000       $unwind$??$destroy@V?$basic_string@DU?$char_traits@D@std@@V?$allocator@D@2@@std@@@?$_Default_allocator_traits@V?$allocator@V?$basic_string@DU?$char_traits@D@std@@V?$allocator@D@2@@std@@@std@@@std@@SAXAEAV?$allocator@V?$basic_string@DU?$char_traits@D@std@@V?$allocator@D@2@@std@@@1@QEAV?$basic_string@DU?$char_traits@D@std@@V?$allocator@D@2@@1@@Z 0000000140000000     SessionHandler.obj
 0003:fff95000       $unwind$??$exchange@PEAU_Container_proxy@std@@$$T@std@@YAPEAU_Container_proxy@0@AEAPEAU10@$$QEA$$T@Z 0000000140000000     SessionHandler.obj
 0003:fff95000       $unwind$??$forward@AEBQEAD@std@@YAAEBQEADAEBQEAD@Z 0000000140000000     SessionHandler.obj
 0003:fff95000       $unwind$??$forward@PEAU_Container_base12@std@@@std@@YA$$QEAPEAU_Container_base12@0@AEAPEAU10@@Z 0000000140000000     SessionHandler.obj
 0003:fff95000       $unwind$??$forward@V?$allocator@D@std@@@std@@YA$$QEAV?$allocator@D@0@AEAV10@@Z 0000000140000000     SessionHandler.obj
 0003:fff95000       $unwind$??$max@_K@std@@YAAEB_KAEB_K0@Z 0000000140000000     SessionHandler.obj
 0003:fff95000       $unwind$??$min@_K@std@@YAAEB_KAEB_K0@Z 0000000140000000     SessionHandler.obj
 0003:fff95000       $unwind$??$move@AEAV?$allocator@D@std@@@std@@YA$$QEAV?$allocator@D@0@AEAV10@@Z 0000000140000000     SessionHandler.obj
 0003:fff95000       $unwind$??$move@AEAV?$basic_string@DU?$char_traits@D@std@@V?$allocator@D@2@@std@@@std@@YA$$QEAV?$basic_string@DU?$char_traits@D@std@@V?$allocator@D@2@@0@AEAV10@@Z 0000000140000000     SessionHandler.obj
 0003:fff95000       $unwind$??0?$_Container_proxy_ptr12@V?$allocator@U_Container_proxy@std@@@std@@@std@@QEAA@AEAV?$allocator@U_Container_proxy@std@@@1@AEAU_Container_base12@1@@Z 0000000140000000     SessionHandler.obj
 0003:fff95000       $unwind$??0?$_String_val@U?$_Simple_types@D@std@@@std@@QEAA@XZ 0000000140000000     SessionHandler.obj
 0003:fff95000       $unwind$??0?$allocator@D@std@@QEAA@XZ 0000000140000000     SessionHandler.obj
 0003:fff95000       $unwind$??0?$basic_string@DU?$char_traits@D@std@@V?$allocator@D@2@@std@@QEAA@$$QEAV01@@Z 0000000140000000     SessionHandler.obj
 0003:fff95000       $unwind$??0?$basic_string@DU?$char_traits@D@std@@V?$allocator@D@2@@std@@QEAA@QEBD@Z 0000000140000000     SessionHandler.obj
 0003:fff95000       $unwind$??0_Bxty@?$_String_val@U?$_Simple_types@D@std@@@std@@QEAA@XZ 0000000140000000     SessionHandler.obj
 0003:fff95000       $unwind$??0_Container_base12@std@@QEAA@XZ 0000000140000000     SessionHandler.obj
 0003:fff95000       $unwind$??0_Container_proxy@std@@QEAA@PEAU_Container_base12@1@@Z 0000000140000000     SessionHandler.obj
 0003:fff95000       $unwind$??0bad_alloc@std@@AEAA@QEBD@Z 0000000140000000     SessionHandler.obj
 0003:fff95000       $unwind$??0bad_alloc@std@@QEAA@AEBV01@@Z 0000000140000000     SessionHandler.obj
 0003:fff95000       $unwind$??0bad_array_new_length@std@@QEAA@AEBV01@@Z 0000000140000000     SessionHandler.obj
 0003:fff95000       $unwind$??0bad_array_new_length@std@@QEAA@XZ 0000000140000000     SessionHandler.obj
 0003:fff95000       $unwind$??0exception@std@@QEAA@AEBV01@@Z 0000000140000000     SessionHandler.obj
 0003:fff95000       $unwind$??0exception@std@@QEAA@QEBD@Z 0000000140000000     SessionHandler.obj
 0003:fff95000       $unwind$??0exception@std@@QEAA@QEBDH@Z 0000000140000000     SessionHandler.obj
 0003:fff95000       $unwind$??1?$_Compressed_pair@V?$allocator@D@std@@V?$_String_val@U?$_Simple_types@D@std@@@2@$00@std@@QEAA@XZ 0000000140000000     SessionHandler.obj
 0003:fff95000       $unwind$??1?$_Container_proxy_ptr12@V?$allocator@U_Container_proxy@std@@@std@@@std@@QEAA@XZ 0000000140000000     SessionHandler.obj
 0003:fff95000       $unwind$??1?$_String_val@U?$_Simple_types@D@std@@@std@@QEAA@XZ 0000000140000000     SessionHandler.obj
 0003:fff95000       $unwind$??1?$basic_string@DU?$char_traits@D@std@@V?$allocator@D@2@@std@@QEAA@XZ 0000000140000000     SessionHandler.obj
 0003:fff95000       $unwind$??1?$vector@V?$basic_string@DU?$char_traits@D@std@@V?$allocator@D@2@@std@@V?$allocator@V?$basic_string@DU?$char_traits@D@std@@V?$allocator@D@2@@std@@@2@@std@@QEAA@XZ 0000000140000000     SessionHandler.obj
 0003:fff95000       $unwind$??1UserCredentials@Persistence@TechnicalServices@@QEAA@XZ 0000000140000000     SessionHandler.obj
 0003:fff95000       $unwind$??1_Bxty@?$_String_val@U?$_Simple_types@D@std@@@std@@QEAA@XZ 0000000140000000     SessionHandler.obj
 0003:fff95000       $unwind$??1bad_alloc@std@@UEAA@XZ 0000000140000000     SessionHandler.obj
 0003:fff95000       $unwind$??1bad_array_new_length@std@@UEAA@XZ 0000000140000000     SessionHandler.obj
 0003:fff95000       $unwind$??1exception@std@@UEAA@XZ 0000000140000000     SessionHandler.obj
 0003:fff95000       $unwind$??2@YAPEAX_KPEAX@Z 0000000140000000     SessionHandler.obj
 0003:fff95000       $unwind$??R<lambda_66f57f934f28d61049862f64df852ff0>@@QEBA@QEAD_KQEBD@Z 0000000140000000     SessionHandler.obj
 0003:fff95000       $unwind$??R<lambda_f3a66ab6a0570788f31503db83886f49>@@QEBA@QEADQEBD_K212@Z 0000000140000000     SessionHandler.obj
 0003:fff95000       $unwind$??_G?$basic_string@DU?$char_traits@D@std@@V?$allocator@D@2@@std@@QEAAPEAXI@Z 0000000140000000     SessionHandler.obj
 0003:fff95000       $unwind$??_Gbad_alloc@std@@UEAAPEAXI@Z 0000000140000000     SessionHandler.obj
 0003:fff95000       $unwind$??_Gbad_array_new_length@std@@UEAAPEAXI@Z 0000000140000000     SessionHandler.obj
 0003:fff95000       $unwind$??_Gexception@std@@UEAAPEAXI@Z 0000000140000000     SessionHandler.obj
 0003:fff95000       $unwind$?_Adjust_manually_vector_aligned@std@@YAXAEAPEAXAEA_K@Z 0000000140000000     SessionHandler.obj
 0003:fff95000       $unwind$?_Allocate@_Default_allocate_traits@std@@SAPEAX_K@Z 0000000140000000     SessionHandler.obj
 0003:fff95000       $unwind$?_Calculate_growth@?$basic_string@DU?$char_traits@D@std@@V?$allocator@D@2@@std@@AEBA_K_K@Z 0000000140000000     SessionHandler.obj
 0003:fff95000       $unwind$?_Calculate_growth@?$basic_string@DU?$char_traits@D@std@@V?$allocator@D@2@@std@@CA_K_K00@Z 0000000140000000     SessionHandler.obj
 0003:fff95000       $unwind$?_Check_offset@?$_String_val@U?$_Simple_types@D@std@@@std@@QEBAX_K@Z 0000000140000000     SessionHandler.obj
 0003:fff95000       $unwind$?_Destroy@?$vector@V?$basic_string@DU?$char_traits@D@std@@V?$allocator@D@2@@std@@V?$allocator@V?$basic_string@DU?$char_traits@D@std@@V?$allocator@D@2@@std@@@2@@std@@AEAAXPEAV?$basic_string@DU?$char_traits@D@std@@V?$allocator@D@2@@2@0@Z 0000000140000000     SessionHandler.obj
 0003:fff95000       $unwind$?_Equal@?$basic_string@DU?$char_traits@D@std@@V?$allocator@D@2@@std@@QEBA_NQEBD@Z 0000000140000000     SessionHandler.obj
 0003:fff95000       $unwind$?_Get_first@?$_Compressed_pair@V?$allocator@D@std@@V?$_String_val@U?$_Simple_types@D@std@@@2@$00@std@@QEAAAEAV?$allocator@D@2@XZ 0000000140000000     SessionHandler.obj
 0003:fff95000       $unwind$?_Get_first@?$_Compressed_pair@V?$allocator@D@std@@V?$_String_val@U?$_Simple_types@D@std@@@2@$00@std@@QEBAAEBV?$allocator@D@2@XZ 0000000140000000     SessionHandler.obj
 0003:fff95000       $unwind$?_Get_first@?$_Compressed_pair@V?$allocator@V?$basic_string@DU?$char_traits@D@std@@V?$allocator@D@2@@std@@@std@@V?$_Vector_val@U?$_Simple_types@V?$basic_string@DU?$char_traits@D@std@@V?$allocator@D@2@@std@@@std@@@2@$00@std@@QEAAAEAV?$allocator@V?$basic_string@DU?$char_traits@D@std@@V?$allocator@D@2@@std@@@2@XZ 0000000140000000     SessionHandler.obj
 0003:fff95000       $unwind$?_Getal@?$basic_string@DU?$char_traits@D@std@@V?$allocator@D@2@@std@@AEAAAEAV?$allocator@D@2@XZ 0000000140000000     SessionHandler.obj
 0003:fff95000       $unwind$?_Getal@?$basic_string@DU?$char_traits@D@std@@V?$allocator@D@2@@std@@AEBAAEBV?$allocator@D@2@XZ 0000000140000000     SessionHandler.obj
 0003:fff95000       $unwind$?_Getal@?$vector@V?$basic_string@DU?$char_traits@D@std@@V?$allocator@D@2@@std@@V?$allocator@V?$basic_string@DU?$char_traits@D@std@@V?$allocator@D@2@@std@@@2@@std@@AEAAAEAV?$allocator@V?$basic_string@DU?$char_traits@D@std@@V?$allocator@D@2@@std@@@2@XZ 0000000140000000     SessionHandler.obj
 0003:fff95000       $unwind$?_Large_string_engaged@?$_String_val@U?$_Simple_types@D@std@@@std@@QEBA_NXZ 0000000140000000     SessionHandler.obj
 0003:fff95000       $unwind$?_Memcpy_val_from@?$basic_string@DU?$char_traits@D@std@@V?$allocator@D@2@@std@@AEAAXAEBV12@@Z 0000000140000000     SessionHandler.obj
 0003:fff95000       $unwind$?_Myptr@?$_String_val@U?$_Simple_types@D@std@@@std@@QEAAPEADXZ 0000000140000000     SessionHandler.obj
 0003:fff95000       $unwind$?_Myptr@?$_String_val@U?$_Simple_types@D@std@@@std@@QEBAPEBDXZ 0000000140000000     SessionHandler.obj
 0003:fff95000       $unwind$?_Orphan_all@_Container_base12@std@@QEAAXXZ 0000000140000000     SessionHandler.obj
 0003:fff95000       $unwind$?_Release@_Basic_container_proxy_ptr12@std@@QEAAXXZ 0000000140000000     SessionHandler.obj
 0003:fff95000       $unwind$?_Swap_proxy_and_iterators@?$basic_string@DU?$char_traits@D@std@@V?$allocator@D@2@@std@@AEAAXAEAV12@@Z 0000000140000000     SessionHandler.obj
 0003:fff95000       $unwind$?_Swap_proxy_and_iterators@_Container_base12@std@@QEAAXAEAU12@@Z 0000000140000000     SessionHandler.obj
 0003:fff95000       $unwind$?_Take_contents@?$basic_string@DU?$char_traits@D@std@@V?$allocator@D@2@@std@@AEAAXAEAV12@U?$integral_constant@_N$00@2@@Z 0000000140000000     SessionHandler.obj
 0003:fff95000       $unwind$?_Throw_bad_array_new_length@std@@YAXXZ 0000000140000000     SessionHandler.obj
 0003:fff95000       $unwind$?_Tidy@?$vector@V?$basic_string@DU?$char_traits@D@std@@V?$allocator@D@2@@std@@V?$allocator@V?$basic_string@DU?$char_traits@D@std@@V?$allocator@D@2@@std@@@2@@std@@AEAAXXZ 0000000140000000     SessionHandler.obj
 0003:fff95000       $unwind$?_Tidy_deallocate@?$basic_string@DU?$char_traits@D@std@@V?$allocator@D@2@@std@@AEAAXXZ 0000000140000000     SessionHandler.obj
 0003:fff95000       $unwind$?_Tidy_init@?$basic_string@DU?$char_traits@D@std@@V?$allocator@D@2@@std@@AEAAXXZ 0000000140000000     SessionHandler.obj
 0003:fff95000       $unwind$?_Xlen_string@std@@YAXXZ 0000000140000000     SessionHandler.obj
 0003:fff95000       $unwind$?_Xran@?$_String_val@U?$_Simple_types@D@std@@@std@@SAXXZ 0000000140000000     SessionHandler.obj
 0003:fff95000       $unwind$?__empty_global_delete@@YAXPEAX@Z 0000000140000000     SessionHandler.obj
 0003:fff95000       $unwind$?__empty_global_delete@@YAXPEAXW4align_val_t@std@@@Z 0000000140000000     SessionHandler.obj
 0003:fff95000       $unwind$?__empty_global_delete@@YAXPEAX_K@Z 0000000140000000     SessionHandler.obj
 0003:fff95000       $unwind$?__empty_global_delete@@YAXPEAX_KW4align_val_t@std@@@Z 0000000140000000     SessionHandler.obj
 0003:fff95000       $unwind$?allocate@?$allocator@D@std@@QEAAPEAD_K@Z 0000000140000000     SessionHandler.obj
 0003:fff95000       $unwind$?allocate@?$allocator@U_Container_proxy@std@@@std@@QEAAPEAU_Container_proxy@2@_K@Z 0000000140000000     SessionHandler.obj
 0003:fff95000       $unwind$?assign@?$_Narrow_char_traits@DH@std@@SAXAEADAEBD@Z 0000000140000000     SessionHandler.obj
 0003:fff95000       $unwind$?assign@?$basic_string@DU?$char_traits@D@std@@V?$allocator@D@2@@std@@QEAAAEAV12@QEBD@Z 0000000140000000     SessionHandler.obj
 0003:fff95000       $unwind$?assign@?$basic_string@DU?$char_traits@D@std@@V?$allocator@D@2@@std@@QEAAAEAV12@QEBD_K@Z 0000000140000000     SessionHandler.obj
 0003:fff95000       $unwind$?c_str@?$basic_string@DU?$char_traits@D@std@@V?$allocator@D@2@@std@@QEBAPEBDXZ 0000000140000000     SessionHandler.obj
 0003:fff95000       $unwind$?compare@?$_Narrow_char_traits@DH@std@@SAHQEBD0_K@Z 0000000140000000     SessionHandler.obj
 0003:fff95000       $unwind$?copy@?$_Narrow_char_traits@DH@std@@SAPEADQEADQEBD_K@Z 0000000140000000     SessionHandler.obj
 0003:fff95000       $unwind$?deallocate@?$_Default_allocator_traits@V?$allocator@U_Container_proxy@std@@@std@@@std@@SAXAEAV?$allocator@U_Container_proxy@std@@@2@QEAU_Container_proxy@2@_K@Z 0000000140000000     SessionHandler.obj
 0003:fff95000       $unwind$?deallocate@?$allocator@D@std@@QEAAXQEAD_K@Z 0000000140000000     SessionHandler.obj
 0003:fff95000       $unwind$?deallocate@?$allocator@V?$basic_string@DU?$char_traits@D@std@@V?$allocator@D@2@@std@@@std@@QEAAXQEAV?$basic_string@DU?$char_traits@D@std@@V?$allocator@D@2@@2@_K@Z 0000000140000000     SessionHandler.obj
 0003:fff95000       $unwind$?dtor$0@?0???0?$basic_string@DU?$char_traits@D@std@@V?$allocator@D@2@@std@@QEAA@QEBD@Z@4HA 0000000140000000     SessionHandler.obj
 0003:fff95000       $unwind$?dtor$1@?0???0?$basic_string@DU?$char_traits@D@std@@V?$allocator@D@2@@std@@QEAA@QEBD@Z@4HA 0000000140000000     SessionHandler.obj
 0003:fff95000       $unwind$?insert@?$basic_string@DU?$char_traits@D@std@@V?$allocator@D@2@@std@@QEAAAEAV12@_KQEBD0@Z 0000000140000000     SessionHandler.obj
 0003:fff95000       $unwind$?insert@?$basic_string@DU?$char_traits@D@std@@V?$allocator@D@2@@std@@QEAAAEAV12@_KQEBD@Z 0000000140000000     SessionHandler.obj
 0003:fff95000       $unwind$?length@?$_Narrow_char_traits@DH@std@@SA_KQEBD@Z 0000000140000000     SessionHandler.obj
 0003:fff95000       $unwind$?max@?$numeric_limits@_J@std@@SA_JXZ 0000000140000000     SessionHandler.obj
 0003:fff95000       $unwind$?max_size@?$_Default_allocator_traits@V?$allocator@D@std@@@std@@SA_KAEBV?$allocator@D@2@@Z 0000000140000000     SessionHandler.obj
 0003:fff95000       $unwind$?max_size@?$basic_string@DU?$char_traits@D@std@@V?$allocator@D@2@@std@@QEBA_KXZ 0000000140000000     SessionHandler.obj
 0003:fff95000       $unwind$?move@?$_Narrow_char_traits@DH@std@@SAPEADQEADQEBD_K@Z 0000000140000000     SessionHandler.obj
 0003:fff95000       $unwind$?what@exception@std@@UEBAPEBDXZ 0000000140000000     SessionHandler.obj
 0003:fff95000       ??$_Reallocate_for@V<lambda_66f57f934f28d61049862f64df852ff0>@@PEBD@?$basic_string@DU?$char_traits@D@std@@V?$allocator@D@2@@std@@AEAAAEAV01@_KV<lambda_66f57f934f28d61049862f64df852ff0>@@PEBD@Z$rtcName$0 0000000140000000     SessionHandler.obj
 0003:fff95000       ??$_Reallocate_grow_by@V<lambda_f3a66ab6a0570788f31503db83886f49>@@_KPEBD_K@?$basic_string@DU?$char_traits@D@std@@V?$allocator@D@2@@std@@AEAAAEAV01@_KV<lambda_f3a66ab6a0570788f31503db83886f49>@@_KPEBD2@Z$rtcName$0 0000000140000000     SessionHandler.obj
 0003:fff95000       ??0?$basic_string@DU?$char_traits@D@std@@V?$allocator@D@2@@std@@QEAA@QEBD@Z$rtcName$0 0000000140000000     SessionHandler.obj
 0003:fff95000       ??0exception@std@@QEAA@QEBD@Z$rtcName$0 0000000140000000     SessionHandler.obj
 0003:fff95000       ??1?$basic_string@DU?$char_traits@D@std@@V?$allocator@D@2@@std@@QEAA@XZ$rtcName$0 0000000140000000     SessionHandler.obj
 0003:fff95000       ??1?$vector@V?$basic_string@DU?$char_traits@D@std@@V?$allocator@D@2@@std@@V?$allocator@V?$basic_string@DU?$char_traits@D@std@@V?$allocator@D@2@@std@@@2@@std@@QEAA@XZ$rtcName$0 0000000140000000     SessionHandler.obj
 0003:fff95000       ?_Calculate_growth@?$basic_string@DU?$char_traits@D@std@@V?$allocator@D@2@@std@@CA_K_K00@Z$rtcName$0 0000000140000000     SessionHandler.obj
 0003:fff95000       ?_Orphan_all@_Container_base12@std@@QEAAXXZ$rtcName$0 0000000140000000     SessionHandler.obj
 0003:fff95000       ?_Swap_proxy_and_iterators@_Container_base12@std@@QEAAXAEAU12@@Z$rtcName$0 0000000140000000     SessionHandler.obj
 0002:fffdf000       ?dtor$0@?0???0?$basic_string@DU?$char_traits@D@std@@V?$allocator@D@2@@std@@QEAA@QEBD@Z@4HA 0000000140000000 f   SessionHandler.obj
 0002:fffdf000       ?dtor$1@?0???0?$basic_string@DU?$char_traits@D@std@@V?$allocator@D@2@@std@@QEAA@QEBD@Z@4HA 0000000140000000 f   SessionHandler.obj
 0003:fff95000       ?max_size@?$basic_string@DU?$char_traits@D@std@@V?$allocator@D@2@@std@@QEBA_KXZ$rtcName$0 0000000140000000     SessionHandler.obj
 0003:fff95000       $cppxdata$??$?0AEAPEAV_Facet_base@std@@@?$_Compressed_pair@U?$default_delete@V_Facet_base@std@@@std@@PEAV_Facet_base@2@$00@std@@QEAA@U_Zero_then_variadic_args_t@1@AEAPEAV_Facet_base@1@@Z 0000000140000000     LoggerHandler.obj
 0003:fff95000       $cppxdata$??$?0D@?$allocator@U_Container_proxy@std@@@std@@QEAA@AEBV?$allocator@D@1@@Z 0000000140000000     LoggerHandler.obj
 0003:fff95000       $cppxdata$??$?0U?$default_delete@V_Facet_base@std@@@std@@$0A@@?$unique_ptr@V_Facet_base@std@@U?$default_delete@V_Facet_base@std@@@2@@std@@QEAA@PEAV_Facet_base@1@@Z 0000000140000000     LoggerHandler.obj
 0003:fff95000       $cppxdata$??$?6U?$char_traits@D@std@@@std@@YAAEAV?$basic_ostream@DU?$char_traits@D@std@@@0@AEAV10@D@Z 0000000140000000     LoggerHandler.obj
 0003:fff95000       $cppxdata$??$?6U?$char_traits@D@std@@@std@@YAAEAV?$basic_ostream@DU?$char_traits@D@std@@@0@AEAV10@PEBD@Z 0000000140000000     LoggerHandler.obj
 0003:fff95000       $cppxdata$??$_Construct_in_place@PEADAEBQEAD@std@@YAXAEAPEADAEBQEAD@Z 0000000140000000     LoggerHandler.obj
 0003:fff95000       $cppxdata$??$_Construct_in_place@U_Container_proxy@std@@PEAU_Container_base12@2@@std@@YAXAEAU_Container_proxy@0@$$QEAPEAU_Container_base12@0@@Z 0000000140000000     LoggerHandler.obj
 0003:fff95000       $cppxdata$??$_Convert_size@_K@std@@YA_K_K@Z 0000000140000000     LoggerHandler.obj
 0003:fff95000       $cppxdata$??$_Deallocate@$0BA@$0A@@std@@YAXPEAX_K@Z 0000000140000000     LoggerHandler.obj
 0003:fff95000       $cppxdata$??$_Deallocate_plain@V?$allocator@U_Container_proxy@std@@@std@@@std@@YAXAEAV?$allocator@U_Container_proxy@std@@@0@QEAU_Container_proxy@0@@Z 0000000140000000     LoggerHandler.obj
 0003:fff95000       $cppxdata$??$_Delete_plain_internal@V?$allocator@U_Container_proxy@std@@@std@@@std@@YAXAEAV?$allocator@U_Container_proxy@std@@@0@QEAU_Container_proxy@0@@Z 0000000140000000     LoggerHandler.obj
 0003:fff95000       $cppxdata$??$_Destroy_in_place@PEAD@std@@YAXAEAPEAD@Z 0000000140000000     LoggerHandler.obj
 0003:fff95000       $cppxdata$??$_Insert_string@DU?$char_traits@D@std@@_K@std@@YAAEAV?$basic_ostream@DU?$char_traits@D@std@@@0@AEAV10@QEBD_K@Z 0000000140000000     LoggerHandler.obj
 0003:fff95000       $cppxdata$??$_Traits_equal@U?$char_traits@D@std@@@std@@YA_NQEBD_K01@Z 0000000140000000     LoggerHandler.obj
 0003:fff95000       $cppxdata$??$_Unfancy@D@std@@YAPEADPEAD@Z 0000000140000000     LoggerHandler.obj
 0003:fff95000       $cppxdata$??$_Unfancy@U_Container_proxy@std@@@std@@YAPEAU_Container_proxy@0@PEAU10@@Z 0000000140000000     LoggerHandler.obj
 0003:fff95000       $cppxdata$??$addressof@$$CBV?$_String_val@U?$_Simple_types@D@std@@@std@@@std@@YAPEBV?$_String_val@U?$_Simple_types@D@std@@@0@AEBV10@@Z 0000000140000000     LoggerHandler.obj
 0003:fff95000       $cppxdata$??$addressof@PEAD@std@@YAPEAPEADAEAPEAD@Z 0000000140000000     LoggerHandler.obj
 0003:fff95000       $cppxdata$??$addressof@U_Container_base12@std@@@std@@YAPEAU_Container_base12@0@AEAU10@@Z 0000000140000000     LoggerHandler.obj
 0003:fff95000       $cppxdata$??$addressof@U_Container_proxy@std@@@std@@YAPEAU_Container_proxy@0@AEAU10@@Z 0000000140000000     LoggerHandler.obj
 0003:fff95000       $cppxdata$??$addressof@V?$_String_val@U?$_Simple_types@D@std@@@std@@@std@@YAPEAV?$_String_val@U?$_Simple_types@D@std@@@0@AEAV10@@Z 0000000140000000     LoggerHandler.obj
 0003:fff95000       $cppxdata$??$exchange@PEAV_Facet_base@std@@PEAV12@@std@@YAPEAV_Facet_base@0@AEAPEAV10@$$QEAPEAV10@@Z 0000000140000000     LoggerHandler.obj
 0003:fff95000       $cppxdata$??$forward@AEAPEAV_Facet_base@std@@@std@@YAAEAPEAV_Facet_base@0@AEAPEAV10@@Z 0000000140000000     LoggerHandler.obj
 0003:fff95000       $cppxdata$??$forward@AEBQEAD@std@@YAAEBQEADAEBQEAD@Z 0000000140000000     LoggerHandler.obj
 0003:fff95000       $cppxdata$??$forward@PEAU_Container_base12@std@@@std@@YA$$QEAPEAU_Container_base12@0@AEAPEAU10@@Z 0000000140000000     LoggerHandler.obj
 0003:fff95000       $cppxdata$??$forward@V?$allocator@D@std@@@std@@YA$$QEAV?$allocator@D@0@AEAV10@@Z 0000000140000000     LoggerHandler.obj
 0003:fff95000       $cppxdata$??$max@_K@std@@YAAEB_KAEB_K0@Z 0000000140000000     LoggerHandler.obj
 0003:fff95000       $cppxdata$??$min@_K@std@@YAAEB_KAEB_K0@Z 0000000140000000     LoggerHandler.obj
 0003:fff95000       $cppxdata$??$move@AEAV?$allocator@D@std@@@std@@YA$$QEAV?$allocator@D@0@AEAV10@@Z 0000000140000000     LoggerHandler.obj
 0003:fff95000       $cppxdata$??$move@AEAV?$basic_string@DU?$char_traits@D@std@@V?$allocator@D@2@@std@@@std@@YA$$QEAV?$basic_string@DU?$char_traits@D@std@@V?$allocator@D@2@@0@AEAV10@@Z 0000000140000000     LoggerHandler.obj
 0003:fff95000       $cppxdata$??0?$allocator@D@std@@QEAA@XZ 0000000140000000     LoggerHandler.obj
 0003:fff95000       $cppxdata$??0?$basic_string@DU?$char_traits@D@std@@V?$allocator@D@2@@std@@QEAA@$$QEAV01@@Z 0000000140000000     LoggerHandler.obj
 0003:fff95000       $cppxdata$??0?$basic_string@DU?$char_traits@D@std@@V?$allocator@D@2@@std@@QEAA@AEBV01@@Z 0000000140000000     LoggerHandler.obj
 0003:fff95000       $cppxdata$??0?$basic_string@DU?$char_traits@D@std@@V?$allocator@D@2@@std@@QEAA@QEBD@Z 0000000140000000     LoggerHandler.obj
 0003:fff95000       $cppxdata$??0?$basic_string@DU?$char_traits@D@std@@V?$allocator@D@2@@std@@QEAA@U_String_constructor_concat_tag@1@AEBV01@QEBD_K23@Z 0000000140000000     LoggerHandler.obj
 0003:fff95000       $cppxdata$??0_Container_base12@std@@QEAA@XZ 0000000140000000     LoggerHandler.obj
 0003:fff95000       $cppxdata$??0_Container_proxy@std@@QEAA@PEAU_Container_base12@1@@Z 0000000140000000     LoggerHandler.obj
 0003:fff95000       $cppxdata$??0bad_alloc@std@@AEAA@QEBD@Z 0000000140000000     LoggerHandler.obj
 0003:fff95000       $cppxdata$??0bad_array_new_length@std@@QEAA@XZ 0000000140000000     LoggerHandler.obj
 0003:fff95000       $cppxdata$??0bad_cast@std@@QEAA@XZ 0000000140000000     LoggerHandler.obj
 0003:fff95000       $cppxdata$??0exception@std@@QEAA@AEBV01@@Z 0000000140000000     LoggerHandler.obj
 0003:fff95000       $cppxdata$??0exception@std@@QEAA@QEBD@Z 0000000140000000     LoggerHandler.obj
 0003:fff95000       $cppxdata$??0exception@std@@QEAA@QEBDH@Z 0000000140000000     LoggerHandler.obj
 0003:fff95000       $cppxdata$??0sentry@?$basic_ostream@DU?$char_traits@D@std@@@std@@QEAA@AEAV12@@Z 0000000140000000     LoggerHandler.obj
 0003:fff95000       $cppxdata$??1?$_Container_proxy_ptr12@V?$allocator@U_Container_proxy@std@@@std@@@std@@QEAA@XZ 0000000140000000     LoggerHandler.obj
 0003:fff95000       $cppxdata$??1?$basic_string@DU?$char_traits@D@std@@V?$allocator@D@2@@std@@QEAA@XZ 0000000140000000     LoggerHandler.obj
 0003:fff95000       $cppxdata$??1?$unique_ptr@V_Facet_base@std@@U?$default_delete@V_Facet_base@std@@@2@@std@@QEAA@XZ 0000000140000000     LoggerHandler.obj
 0003:fff95000       $cppxdata$??1_Bxty@?$_String_val@U?$_Simple_types@D@std@@@std@@QEAA@XZ 0000000140000000     LoggerHandler.obj
 0003:fff95000       $cppxdata$??1_Sentry_base@?$basic_ostream@DU?$char_traits@D@std@@@std@@QEAA@XZ 0000000140000000     LoggerHandler.obj
 0003:fff95000       $cppxdata$??1exception@std@@UEAA@XZ 0000000140000000     LoggerHandler.obj
 0003:fff95000       $cppxdata$??1locale@std@@QEAA@XZ 0000000140000000     LoggerHandler.obj
 0003:fff95000       $cppxdata$??1sentry@?$basic_ostream@DU?$char_traits@D@std@@@std@@QEAA@XZ 0000000140000000     LoggerHandler.obj
 0003:fff95000       $cppxdata$??2@YAPEAX_KPEAX@Z 0000000140000000     LoggerHandler.obj
 0003:fff95000       $cppxdata$??R?$default_delete@V_Facet_base@std@@@std@@QEBAXPEAV_Facet_base@1@@Z 0000000140000000     LoggerHandler.obj
 0003:fff95000       $cppxdata$?_Calculate_growth@?$basic_string@DU?$char_traits@D@std@@V?$allocator@D@2@@std@@AEBA_K_K@Z 0000000140000000     LoggerHandler.obj
 0003:fff95000       $cppxdata$?_Calculate_growth@?$basic_string@DU?$char_traits@D@std@@V?$allocator@D@2@@std@@CA_K_K00@Z 0000000140000000     LoggerHandler.obj
 0003:fff95000       $cppxdata$?_Equal@?$basic_string@DU?$char_traits@D@std@@V?$allocator@D@2@@std@@QEBA_NQEBD@Z 0000000140000000     LoggerHandler.obj
 0003:fff95000       $cppxdata$?_Get_first@?$_Compressed_pair@U?$default_delete@V_Facet_base@std@@@std@@PEAV_Facet_base@2@$00@std@@QEAAAEAU?$default_delete@V_Facet_base@std@@@2@XZ 0000000140000000     LoggerHandler.obj
 0003:fff95000       $cppxdata$?_Get_first@?$_Compressed_pair@V?$allocator@D@std@@V?$_String_val@U?$_Simple_types@D@std@@@2@$00@std@@QEAAAEAV?$allocator@D@2@XZ 0000000140000000     LoggerHandler.obj
 0003:fff95000       $cppxdata$?_Get_first@?$_Compressed_pair@V?$allocator@D@std@@V?$_String_val@U?$_Simple_types@D@std@@@2@$00@std@@QEBAAEBV?$allocator@D@2@XZ 0000000140000000     LoggerHandler.obj
 0003:fff95000       $cppxdata$?_Getal@?$basic_string@DU?$char_traits@D@std@@V?$allocator@D@2@@std@@AEAAAEAV?$allocator@D@2@XZ 0000000140000000     LoggerHandler.obj
 0003:fff95000       $cppxdata$?_Getal@?$basic_string@DU?$char_traits@D@std@@V?$allocator@D@2@@std@@AEBAAEBV?$allocator@D@2@XZ 0000000140000000     LoggerHandler.obj
 0003:fff95000       $cppxdata$?_Large_string_engaged@?$_String_val@U?$_Simple_types@D@std@@@std@@QEBA_NXZ 0000000140000000     LoggerHandler.obj
 0003:fff95000       $cppxdata$?_Memcpy_val_from@?$basic_string@DU?$char_traits@D@std@@V?$allocator@D@2@@std@@AEAAXAEBV12@@Z 0000000140000000     LoggerHandler.obj
 0003:fff95000       $cppxdata$?_Myptr@?$_String_val@U?$_Simple_types@D@std@@@std@@QEAAPEADXZ 0000000140000000     LoggerHandler.obj
 0003:fff95000       $cppxdata$?_Myptr@?$_String_val@U?$_Simple_types@D@std@@@std@@QEBAPEBDXZ 0000000140000000     LoggerHandler.obj
 0003:fff95000       $cppxdata$?_Orphan_all@_Container_base12@std@@QEAAXXZ 0000000140000000     LoggerHandler.obj
 0003:fff95000       $cppxdata$?_Release@_Basic_container_proxy_ptr12@std@@QEAAXXZ 0000000140000000     LoggerHandler.obj
 0003:fff95000       $cppxdata$?_Swap_proxy_and_iterators@_Container_base12@std@@QEAAXAEAU12@@Z 0000000140000000     LoggerHandler.obj
 0003:fff95000       $cppxdata$?_Take_contents@?$basic_string@DU?$char_traits@D@std@@V?$allocator@D@2@@std@@AEAAXAEAV12@U?$integral_constant@_N$00@2@@Z 0000000140000000     LoggerHandler.obj
 0003:fff95000       $cppxdata$?_Tidy_deallocate@?$basic_string@DU?$char_traits@D@std@@V?$allocator@D@2@@std@@AEAAXXZ 0000000140000000     LoggerHandler.obj
 0003:fff95000       $cppxdata$?_Tidy_init@?$basic_string@DU?$char_traits@D@std@@V?$allocator@D@2@@std@@AEAAXXZ 0000000140000000     LoggerHandler.obj
 0003:fff95000       $cppxdata$?__empty_global_delete@@YAXPEAX@Z 0000000140000000     LoggerHandler.obj
 0003:fff95000       $cppxdata$?__empty_global_delete@@YAXPEAXW4align_val_t@std@@@Z 0000000140000000     LoggerHandler.obj
 0003:fff95000       $cppxdata$?__empty_global_delete@@YAXPEAX_K@Z 0000000140000000     LoggerHandler.obj
 0003:fff95000       $cppxdata$?__empty_global_delete@@YAXPEAX_KW4align_val_t@std@@@Z 0000000140000000     LoggerHandler.obj
 0003:fff95000       $cppxdata$?assign@?$_Narrow_char_traits@DH@std@@SAXAEADAEBD@Z 0000000140000000     LoggerHandler.obj
 0003:fff95000       $cppxdata$?c_str@?$basic_string@DU?$char_traits@D@std@@V?$allocator@D@2@@std@@QEBAPEBDXZ 0000000140000000     LoggerHandler.obj
 0003:fff95000       $cppxdata$?compare@?$_Narrow_char_traits@DH@std@@SAHQEBD0_K@Z 0000000140000000     LoggerHandler.obj
 0003:fff95000       $cppxdata$?copy@?$_Narrow_char_traits@DH@std@@SAPEADQEADQEBD_K@Z 0000000140000000     LoggerHandler.obj
 0003:fff95000       $cppxdata$?data@?$basic_string@DU?$char_traits@D@std@@V?$allocator@D@2@@std@@QEBAPEBDXZ 0000000140000000     LoggerHandler.obj
 0003:fff95000       $cppxdata$?eof@?$_Narrow_char_traits@DH@std@@SAHXZ 0000000140000000     LoggerHandler.obj
 0003:fff95000       $cppxdata$?eq_int_type@?$_Narrow_char_traits@DH@std@@SA_NAEBH0@Z 0000000140000000     LoggerHandler.obj
 0003:fff95000       $cppxdata$?length@?$_Narrow_char_traits@DH@std@@SA_KQEBD@Z 0000000140000000     LoggerHandler.obj
 0003:fff95000       $cppxdata$?max@?$numeric_limits@_J@std@@SA_JXZ 0000000140000000     LoggerHandler.obj
 0003:fff95000       $cppxdata$?max_size@?$_Default_allocator_traits@V?$allocator@D@std@@@std@@SA_KAEBV?$allocator@D@2@@Z 0000000140000000     LoggerHandler.obj
 0003:fff95000       $cppxdata$?max_size@?$basic_string@DU?$char_traits@D@std@@V?$allocator@D@2@@std@@QEBA_KXZ 0000000140000000     LoggerHandler.obj
 0003:fff95000       $cppxdata$?move@?$_Narrow_char_traits@DH@std@@SAPEADQEADQEBD_K@Z 0000000140000000     LoggerHandler.obj
 0003:fff95000       $cppxdata$?release@?$unique_ptr@V_Facet_base@std@@U?$default_delete@V_Facet_base@std@@@2@@std@@QEAAPEAV_Facet_base@2@XZ 0000000140000000     LoggerHandler.obj
 0003:fff95000       $cppxdata$?size@?$basic_string@DU?$char_traits@D@std@@V?$allocator@D@2@@std@@QEBA_KXZ 0000000140000000     LoggerHandler.obj
 0003:fff95000       $handlerMap$??$?6U?$char_traits@D@std@@@std@@YAAEAV?$basic_ostream@DU?$char_traits@D@std@@@0@AEAV10@D@Z 0000000140000000     LoggerHandler.obj
 0003:fff95000       $handlerMap$??$?6U?$char_traits@D@std@@@std@@YAAEAV?$basic_ostream@DU?$char_traits@D@std@@@0@AEAV10@PEBD@Z 0000000140000000     LoggerHandler.obj
 0003:fff95000       $handlerMap$??$_Insert_string@DU?$char_traits@D@std@@_K@std@@YAAEAV?$basic_ostream@DU?$char_traits@D@std@@@0@AEAV10@QEBD_K@Z 0000000140000000     LoggerHandler.obj
 0003:fff95000       $ip2state$??$?0AEAPEAV_Facet_base@std@@@?$_Compressed_pair@U?$default_delete@V_Facet_base@std@@@std@@PEAV_Facet_base@2@$00@std@@QEAA@U_Zero_then_variadic_args_t@1@AEAPEAV_Facet_base@1@@Z 0000000140000000     LoggerHandler.obj
 0003:fff95000       $ip2state$??$?0D@?$allocator@U_Container_proxy@std@@@std@@QEAA@AEBV?$allocator@D@1@@Z 0000000140000000     LoggerHandler.obj
 0003:fff95000       $ip2state$??$?0U?$default_delete@V_Facet_base@std@@@std@@$0A@@?$unique_ptr@V_Facet_base@std@@U?$default_delete@V_Facet_base@std@@@2@@std@@QEAA@PEAV_Facet_base@1@@Z 0000000140000000     LoggerHandler.obj
 0003:fff95000       $ip2state$??$?6U?$char_traits@D@std@@@std@@YAAEAV?$basic_ostream@DU?$char_traits@D@std@@@0@AEAV10@D@Z 0000000140000000     LoggerHandler.obj
 0003:fff95000       $ip2state$??$?6U?$char_traits@D@std@@@std@@YAAEAV?$basic_ostream@DU?$char_traits@D@std@@@0@AEAV10@PEBD@Z 0000000140000000     LoggerHandler.obj
 0003:fff95000       $ip2state$??$_Construct_in_place@PEADAEBQEAD@std@@YAXAEAPEADAEBQEAD@Z 0000000140000000     LoggerHandler.obj
 0003:fff95000       $ip2state$??$_Construct_in_place@U_Container_proxy@std@@PEAU_Container_base12@2@@std@@YAXAEAU_Container_proxy@0@$$QEAPEAU_Container_base12@0@@Z 0000000140000000     LoggerHandler.obj
 0003:fff95000       $ip2state$??$_Convert_size@_K@std@@YA_K_K@Z 0000000140000000     LoggerHandler.obj
 0003:fff95000       $ip2state$??$_Deallocate@$0BA@$0A@@std@@YAXPEAX_K@Z 0000000140000000     LoggerHandler.obj
 0003:fff95000       $ip2state$??$_Deallocate_plain@V?$allocator@U_Container_proxy@std@@@std@@@std@@YAXAEAV?$allocator@U_Container_proxy@std@@@0@QEAU_Container_proxy@0@@Z 0000000140000000     LoggerHandler.obj
 0003:fff95000       $ip2state$??$_Delete_plain_internal@V?$allocator@U_Container_proxy@std@@@std@@@std@@YAXAEAV?$allocator@U_Container_proxy@std@@@0@QEAU_Container_proxy@0@@Z 0000000140000000     LoggerHandler.obj
 0003:fff95000       $ip2state$??$_Destroy_in_place@PEAD@std@@YAXAEAPEAD@Z 0000000140000000     LoggerHandler.obj
 0003:fff95000       $ip2state$??$_Insert_string@DU?$char_traits@D@std@@_K@std@@YAAEAV?$basic_ostream@DU?$char_traits@D@std@@@0@AEAV10@QEBD_K@Z 0000000140000000     LoggerHandler.obj
 0003:fff95000       $ip2state$??$_Traits_equal@U?$char_traits@D@std@@@std@@YA_NQEBD_K01@Z 0000000140000000     LoggerHandler.obj
 0003:fff95000       $ip2state$??$_Unfancy@D@std@@YAPEADPEAD@Z 0000000140000000     LoggerHandler.obj
 0003:fff95000       $ip2state$??$_Unfancy@U_Container_proxy@std@@@std@@YAPEAU_Container_proxy@0@PEAU10@@Z 0000000140000000     LoggerHandler.obj
 0003:fff95000       $ip2state$??$addressof@$$CBV?$_String_val@U?$_Simple_types@D@std@@@std@@@std@@YAPEBV?$_String_val@U?$_Simple_types@D@std@@@0@AEBV10@@Z 0000000140000000     LoggerHandler.obj
 0003:fff95000       $ip2state$??$addressof@PEAD@std@@YAPEAPEADAEAPEAD@Z 0000000140000000     LoggerHandler.obj
 0003:fff95000       $ip2state$??$addressof@U_Container_base12@std@@@std@@YAPEAU_Container_base12@0@AEAU10@@Z 0000000140000000     LoggerHandler.obj
 0003:fff95000       $ip2state$??$addressof@U_Container_proxy@std@@@std@@YAPEAU_Container_proxy@0@AEAU10@@Z 0000000140000000     LoggerHandler.obj
 0003:fff95000       $ip2state$??$addressof@V?$_String_val@U?$_Simple_types@D@std@@@std@@@std@@YAPEAV?$_String_val@U?$_Simple_types@D@std@@@0@AEAV10@@Z 0000000140000000     LoggerHandler.obj
 0003:fff95000       $ip2state$??$exchange@PEAV_Facet_base@std@@PEAV12@@std@@YAPEAV_Facet_base@0@AEAPEAV10@$$QEAPEAV10@@Z 0000000140000000     LoggerHandler.obj
 0003:fff95000       $ip2state$??$forward@AEAPEAV_Facet_base@std@@@std@@YAAEAPEAV_Facet_base@0@AEAPEAV10@@Z 0000000140000000     LoggerHandler.obj
 0003:fff95000       $ip2state$??$forward@AEBQEAD@std@@YAAEBQEADAEBQEAD@Z 0000000140000000     LoggerHandler.obj
 0003:fff95000       $ip2state$??$forward@PEAU_Container_base12@std@@@std@@YA$$QEAPEAU_Container_base12@0@AEAPEAU10@@Z 0000000140000000     LoggerHandler.obj
 0003:fff95000       $ip2state$??$forward@V?$allocator@D@std@@@std@@YA$$QEAV?$allocator@D@0@AEAV10@@Z 0000000140000000     LoggerHandler.obj
 0003:fff95000       $ip2state$??$max@_K@std@@YAAEB_KAEB_K0@Z 0000000140000000     LoggerHandler.obj
 0003:fff95000       $ip2state$??$min@_K@std@@YAAEB_KAEB_K0@Z 0000000140000000     LoggerHandler.obj
 0003:fff95000       $ip2state$??$move@AEAV?$allocator@D@std@@@std@@YA$$QEAV?$allocator@D@0@AEAV10@@Z 0000000140000000     LoggerHandler.obj
 0003:fff95000       $ip2state$??$move@AEAV?$basic_string@DU?$char_traits@D@std@@V?$allocator@D@2@@std@@@std@@YA$$QEAV?$basic_string@DU?$char_traits@D@std@@V?$allocator@D@2@@0@AEAV10@@Z 0000000140000000     LoggerHandler.obj
 0003:fff95000       $ip2state$??0?$allocator@D@std@@QEAA@XZ 0000000140000000     LoggerHandler.obj
 0003:fff95000       $ip2state$??0?$basic_string@DU?$char_traits@D@std@@V?$allocator@D@2@@std@@QEAA@$$QEAV01@@Z 0000000140000000     LoggerHandler.obj
 0003:fff95000       $ip2state$??0?$basic_string@DU?$char_traits@D@std@@V?$allocator@D@2@@std@@QEAA@AEBV01@@Z 0000000140000000     LoggerHandler.obj
 0003:fff95000       $ip2state$??0?$basic_string@DU?$char_traits@D@std@@V?$allocator@D@2@@std@@QEAA@QEBD@Z 0000000140000000     LoggerHandler.obj
 0003:fff95000       $ip2state$??0?$basic_string@DU?$char_traits@D@std@@V?$allocator@D@2@@std@@QEAA@U_String_constructor_concat_tag@1@AEBV01@QEBD_K23@Z 0000000140000000     LoggerHandler.obj
 0003:fff95000       $ip2state$??0_Container_base12@std@@QEAA@XZ 0000000140000000     LoggerHandler.obj
 0003:fff95000       $ip2state$??0_Container_proxy@std@@QEAA@PEAU_Container_base12@1@@Z 0000000140000000     LoggerHandler.obj
 0003:fff95000       $ip2state$??0bad_alloc@std@@AEAA@QEBD@Z 0000000140000000     LoggerHandler.obj
 0003:fff95000       $ip2state$??0bad_array_new_length@std@@QEAA@XZ 0000000140000000     LoggerHandler.obj
 0003:fff95000       $ip2state$??0bad_cast@std@@QEAA@XZ 0000000140000000     LoggerHandler.obj
 0003:fff95000       $ip2state$??0exception@std@@QEAA@AEBV01@@Z 0000000140000000     LoggerHandler.obj
 0003:fff95000       $ip2state$??0exception@std@@QEAA@QEBD@Z 0000000140000000     LoggerHandler.obj
 0003:fff95000       $ip2state$??0exception@std@@QEAA@QEBDH@Z 0000000140000000     LoggerHandler.obj
 0003:fff95000       $ip2state$??0sentry@?$basic_ostream@DU?$char_traits@D@std@@@std@@QEAA@AEAV12@@Z 0000000140000000     LoggerHandler.obj
 0003:fff95000       $ip2state$??1?$_Container_proxy_ptr12@V?$allocator@U_Container_proxy@std@@@std@@@std@@QEAA@XZ 0000000140000000     LoggerHandler.obj
 0003:fff95000       $ip2state$??1?$basic_string@DU?$char_traits@D@std@@V?$allocator@D@2@@std@@QEAA@XZ 0000000140000000     LoggerHandler.obj
 0003:fff95000       $ip2state$??1?$unique_ptr@V_Facet_base@std@@U?$default_delete@V_Facet_base@std@@@2@@std@@QEAA@XZ 0000000140000000     LoggerHandler.obj
 0003:fff95000       $ip2state$??1_Bxty@?$_String_val@U?$_Simple_types@D@std@@@std@@QEAA@XZ 0000000140000000     LoggerHandler.obj
 0003:fff95000       $ip2state$??1_Sentry_base@?$basic_ostream@DU?$char_traits@D@std@@@std@@QEAA@XZ 0000000140000000     LoggerHandler.obj
 0003:fff95000       $ip2state$??1exception@std@@UEAA@XZ 0000000140000000     LoggerHandler.obj
 0003:fff95000       $ip2state$??1locale@std@@QEAA@XZ 0000000140000000     LoggerHandler.obj
 0003:fff95000       $ip2state$??1sentry@?$basic_ostream@DU?$char_traits@D@std@@@std@@QEAA@XZ 0000000140000000     LoggerHandler.obj
 0003:fff95000       $ip2state$??2@YAPEAX_KPEAX@Z 0000000140000000     LoggerHandler.obj
 0003:fff95000       $ip2state$??R?$default_delete@V_Facet_base@std@@@std@@QEBAXPEAV_Facet_base@1@@Z 0000000140000000     LoggerHandler.obj
 0003:fff95000       $ip2state$?_Calculate_growth@?$basic_string@DU?$char_traits@D@std@@V?$allocator@D@2@@std@@AEBA_K_K@Z 0000000140000000     LoggerHandler.obj
 0003:fff95000       $ip2state$?_Calculate_growth@?$basic_string@DU?$char_traits@D@std@@V?$allocator@D@2@@std@@CA_K_K00@Z 0000000140000000     LoggerHandler.obj
 0003:fff95000       $ip2state$?_Equal@?$basic_string@DU?$char_traits@D@std@@V?$allocator@D@2@@std@@QEBA_NQEBD@Z 0000000140000000     LoggerHandler.obj
 0003:fff95000       $ip2state$?_Get_first@?$_Compressed_pair@U?$default_delete@V_Facet_base@std@@@std@@PEAV_Facet_base@2@$00@std@@QEAAAEAU?$default_delete@V_Facet_base@std@@@2@XZ 0000000140000000     LoggerHandler.obj
 0003:fff95000       $ip2state$?_Get_first@?$_Compressed_pair@V?$allocator@D@std@@V?$_String_val@U?$_Simple_types@D@std@@@2@$00@std@@QEAAAEAV?$allocator@D@2@XZ 0000000140000000     LoggerHandler.obj
 0003:fff95000       $ip2state$?_Get_first@?$_Compressed_pair@V?$allocator@D@std@@V?$_String_val@U?$_Simple_types@D@std@@@2@$00@std@@QEBAAEBV?$allocator@D@2@XZ 0000000140000000     LoggerHandler.obj
 0003:fff95000       $ip2state$?_Getal@?$basic_string@DU?$char_traits@D@std@@V?$allocator@D@2@@std@@AEAAAEAV?$allocator@D@2@XZ 0000000140000000     LoggerHandler.obj
 0003:fff95000       $ip2state$?_Getal@?$basic_string@DU?$char_traits@D@std@@V?$allocator@D@2@@std@@AEBAAEBV?$allocator@D@2@XZ 0000000140000000     LoggerHandler.obj
 0003:fff95000       $ip2state$?_Large_string_engaged@?$_String_val@U?$_Simple_types@D@std@@@std@@QEBA_NXZ 0000000140000000     LoggerHandler.obj
 0003:fff95000       $ip2state$?_Memcpy_val_from@?$basic_string@DU?$char_traits@D@std@@V?$allocator@D@2@@std@@AEAAXAEBV12@@Z 0000000140000000     LoggerHandler.obj
 0003:fff95000       $ip2state$?_Myptr@?$_String_val@U?$_Simple_types@D@std@@@std@@QEAAPEADXZ 0000000140000000     LoggerHandler.obj
 0003:fff95000       $ip2state$?_Myptr@?$_String_val@U?$_Simple_types@D@std@@@std@@QEBAPEBDXZ 0000000140000000     LoggerHandler.obj
 0003:fff95000       $ip2state$?_Orphan_all@_Container_base12@std@@QEAAXXZ 0000000140000000     LoggerHandler.obj
 0003:fff95000       $ip2state$?_Release@_Basic_container_proxy_ptr12@std@@QEAAXXZ 0000000140000000     LoggerHandler.obj
 0003:fff95000       $ip2state$?_Swap_proxy_and_iterators@_Container_base12@std@@QEAAXAEAU12@@Z 0000000140000000     LoggerHandler.obj
 0003:fff95000       $ip2state$?_Take_contents@?$basic_string@DU?$char_traits@D@std@@V?$allocator@D@2@@std@@AEAAXAEAV12@U?$integral_constant@_N$00@2@@Z 0000000140000000     LoggerHandler.obj
 0003:fff95000       $ip2state$?_Tidy_deallocate@?$basic_string@DU?$char_traits@D@std@@V?$allocator@D@2@@std@@AEAAXXZ 0000000140000000     LoggerHandler.obj
 0003:fff95000       $ip2state$?_Tidy_init@?$basic_string@DU?$char_traits@D@std@@V?$allocator@D@2@@std@@AEAAXXZ 0000000140000000     LoggerHandler.obj
 0003:fff95000       $ip2state$?__empty_global_delete@@YAXPEAX@Z 0000000140000000     LoggerHandler.obj
 0003:fff95000       $ip2state$?__empty_global_delete@@YAXPEAXW4align_val_t@std@@@Z 0000000140000000     LoggerHandler.obj
 0003:fff95000       $ip2state$?__empty_global_delete@@YAXPEAX_K@Z 0000000140000000     LoggerHandler.obj
 0003:fff95000       $ip2state$?__empty_global_delete@@YAXPEAX_KW4align_val_t@std@@@Z 0000000140000000     LoggerHandler.obj
 0003:fff95000       $ip2state$?assign@?$_Narrow_char_traits@DH@std@@SAXAEADAEBD@Z 0000000140000000     LoggerHandler.obj
 0003:fff95000       $ip2state$?c_str@?$basic_string@DU?$char_traits@D@std@@V?$allocator@D@2@@std@@QEBAPEBDXZ 0000000140000000     LoggerHandler.obj
 0003:fff95000       $ip2state$?compare@?$_Narrow_char_traits@DH@std@@SAHQEBD0_K@Z 0000000140000000     LoggerHandler.obj
 0003:fff95000       $ip2state$?copy@?$_Narrow_char_traits@DH@std@@SAPEADQEADQEBD_K@Z 0000000140000000     LoggerHandler.obj
 0003:fff95000       $ip2state$?data@?$basic_string@DU?$char_traits@D@std@@V?$allocator@D@2@@std@@QEBAPEBDXZ 0000000140000000     LoggerHandler.obj
 0003:fff95000       $ip2state$?eof@?$_Narrow_char_traits@DH@std@@SAHXZ 0000000140000000     LoggerHandler.obj
 0003:fff95000       $ip2state$?eq_int_type@?$_Narrow_char_traits@DH@std@@SA_NAEBH0@Z 0000000140000000     LoggerHandler.obj
 0003:fff95000       $ip2state$?length@?$_Narrow_char_traits@DH@std@@SA_KQEBD@Z 0000000140000000     LoggerHandler.obj
 0003:fff95000       $ip2state$?max@?$numeric_limits@_J@std@@SA_JXZ 0000000140000000     LoggerHandler.obj
 0003:fff95000       $ip2state$?max_size@?$_Default_allocator_traits@V?$allocator@D@std@@@std@@SA_KAEBV?$allocator@D@2@@Z 0000000140000000     LoggerHandler.obj
 0003:fff95000       $ip2state$?max_size@?$basic_string@DU?$char_traits@D@std@@V?$allocator@D@2@@std@@QEBA_KXZ 0000000140000000     LoggerHandler.obj
 0003:fff95000       $ip2state$?move@?$_Narrow_char_traits@DH@std@@SAPEADQEADQEBD_K@Z 0000000140000000     LoggerHandler.obj
 0003:fff95000       $ip2state$?release@?$unique_ptr@V_Facet_base@std@@U?$default_delete@V_Facet_base@std@@@2@@std@@QEAAPEAV_Facet_base@2@XZ 0000000140000000     LoggerHandler.obj
 0003:fff95000       $ip2state$?size@?$basic_string@DU?$char_traits@D@std@@V?$allocator@D@2@@std@@QEBA_KXZ 0000000140000000     LoggerHandler.obj
 0003:fff95000       $stateUnwindMap$??$?6U?$char_traits@D@std@@@std@@YAAEAV?$basic_ostream@DU?$char_traits@D@std@@@0@AEAV10@D@Z 0000000140000000     LoggerHandler.obj
 0003:fff95000       $stateUnwindMap$??$?6U?$char_traits@D@std@@@std@@YAAEAV?$basic_ostream@DU?$char_traits@D@std@@@0@AEAV10@PEBD@Z 0000000140000000     LoggerHandler.obj
 0003:fff95000       $stateUnwindMap$??$_Insert_string@DU?$char_traits@D@std@@_K@std@@YAAEAV?$basic_ostream@DU?$char_traits@D@std@@@0@AEAV10@QEBD_K@Z 0000000140000000     LoggerHandler.obj
 0003:fff95000       $stateUnwindMap$??0?$basic_string@DU?$char_traits@D@std@@V?$allocator@D@2@@std@@QEAA@AEBV01@@Z 0000000140000000     LoggerHandler.obj
 0003:fff95000       $stateUnwindMap$??0?$basic_string@DU?$char_traits@D@std@@V?$allocator@D@2@@std@@QEAA@QEBD@Z 0000000140000000     LoggerHandler.obj
 0003:fff95000       $stateUnwindMap$??0?$basic_string@DU?$char_traits@D@std@@V?$allocator@D@2@@std@@QEAA@U_String_constructor_concat_tag@1@AEBV01@QEBD_K23@Z 0000000140000000     LoggerHandler.obj
 0003:fff95000       $stateUnwindMap$??0sentry@?$basic_ostream@DU?$char_traits@D@std@@@std@@QEAA@AEAV12@@Z 0000000140000000     LoggerHandler.obj
 0003:fff95000       $tryMap$??$?6U?$char_traits@D@std@@@std@@YAAEAV?$basic_ostream@DU?$char_traits@D@std@@@0@AEAV10@D@Z 0000000140000000     LoggerHandler.obj
 0003:fff95000       $tryMap$??$?6U?$char_traits@D@std@@@std@@YAAEAV?$basic_ostream@DU?$char_traits@D@std@@@0@AEAV10@PEBD@Z 0000000140000000     LoggerHandler.obj
 0003:fff95000       $tryMap$??$_Insert_string@DU?$char_traits@D@std@@_K@std@@YAAEAV?$basic_ostream@DU?$char_traits@D@std@@@0@AEAV10@QEBD_K@Z 0000000140000000     LoggerHandler.obj
 0003:fff95000       $unwind$??$?0$$V@?$_Compressed_pair@V?$allocator@D@std@@V?$_String_val@U?$_Simple_types@D@std@@@2@$00@std@@QEAA@U_Zero_then_variadic_args_t@1@@Z 0000000140000000     LoggerHandler.obj
 0003:fff95000       $unwind$??$?0AEAPEAV_Facet_base@std@@@?$_Compressed_pair@U?$default_delete@V_Facet_base@std@@@std@@PEAV_Facet_base@2@$00@std@@QEAA@U_Zero_then_variadic_args_t@1@AEAPEAV_Facet_base@1@@Z 0000000140000000     LoggerHandler.obj
 0003:fff95000       $unwind$??$?0D@?$allocator@U_Container_proxy@std@@@std@@QEAA@AEBV?$allocator@D@1@@Z 0000000140000000     LoggerHandler.obj
 0003:fff95000       $unwind$??$?0U?$default_delete@V_Facet_base@std@@@std@@$0A@@?$unique_ptr@V_Facet_base@std@@U?$default_delete@V_Facet_base@std@@@2@@std@@QEAA@PEAV_Facet_base@1@@Z 0000000140000000     LoggerHandler.obj
 0003:fff95000       $unwind$??$?0V?$allocator@D@std@@$$V@?$_Compressed_pair@V?$allocator@D@std@@V?$_String_val@U?$_Simple_types@D@std@@@2@$00@std@@QEAA@U_One_then_variadic_args_t@1@$$QEAV?$allocator@D@1@@Z 0000000140000000     LoggerHandler.obj
 0003:fff95000       $unwind$??$?6DU?$char_traits@D@std@@V?$allocator@D@1@@std@@YAAEAV?$basic_ostream@DU?$char_traits@D@std@@@0@AEAV10@AEBV?$basic_string@DU?$char_traits@D@std@@V?$allocator@D@2@@0@@Z 0000000140000000     LoggerHandler.obj
 0003:fff95000       $unwind$??$?6U?$char_traits@D@std@@@std@@YAAEAV?$basic_ostream@DU?$char_traits@D@std@@@0@AEAV10@D@Z 0000000140000000     LoggerHandler.obj
 0003:fff95000       $unwind$??$?6U?$char_traits@D@std@@@std@@YAAEAV?$basic_ostream@DU?$char_traits@D@std@@@0@AEAV10@PEBD@Z 0000000140000000     LoggerHandler.obj
 0003:fff95000       $unwind$??$?8DU?$char_traits@D@std@@V?$allocator@D@1@@std@@YA_NAEBV?$basic_string@DU?$char_traits@D@std@@V?$allocator@D@2@@0@QEBD@Z 0000000140000000     LoggerHandler.obj
 0003:fff95000       $unwind$??$?HDU?$char_traits@D@std@@V?$allocator@D@1@@std@@YA?AV?$basic_string@DU?$char_traits@D@std@@V?$allocator@D@2@@0@$$QEAV10@QEBD@Z 0000000140000000     LoggerHandler.obj
 0003:fff95000       $unwind$??$?HDU?$char_traits@D@std@@V?$allocator@D@1@@std@@YA?AV?$basic_string@DU?$char_traits@D@std@@V?$allocator@D@2@@0@QEBDAEBV10@@Z 0000000140000000     LoggerHandler.obj
 0003:fff95000       $unwind$??$_Alloc_proxy@V?$allocator@U_Container_proxy@std@@@std@@@_Container_base12@std@@QEAAX$$QEAV?$allocator@U_Container_proxy@std@@@1@@Z 0000000140000000     LoggerHandler.obj
 0003:fff95000       $unwind$??$_Allocate@$0BA@U_Default_allocate_traits@std@@$0A@@std@@YAPEAX_K@Z 0000000140000000     LoggerHandler.obj
 0003:fff95000       $unwind$??$_Allocate_manually_vector_aligned@U_Default_allocate_traits@std@@@std@@YAPEAX_K@Z 0000000140000000     LoggerHandler.obj
 0003:fff95000       $unwind$??$_Construct_in_place@PEADAEBQEAD@std@@YAXAEAPEADAEBQEAD@Z 0000000140000000     LoggerHandler.obj
 0003:fff95000       $unwind$??$_Construct_in_place@U_Container_proxy@std@@PEAU_Container_base12@2@@std@@YAXAEAU_Container_proxy@0@$$QEAPEAU_Container_base12@0@@Z 0000000140000000     LoggerHandler.obj
 0003:fff95000       $unwind$??$_Convert_size@_K@std@@YA_K_K@Z 0000000140000000     LoggerHandler.obj
 0003:fff95000       $unwind$??$_Deallocate@$0BA@$0A@@std@@YAXPEAX_K@Z 0000000140000000     LoggerHandler.obj
 0003:fff95000       $unwind$??$_Deallocate_plain@V?$allocator@U_Container_proxy@std@@@std@@@std@@YAXAEAV?$allocator@U_Container_proxy@std@@@0@QEAU_Container_proxy@0@@Z 0000000140000000     LoggerHandler.obj
 0003:fff95000       $unwind$??$_Delete_plain_internal@V?$allocator@U_Container_proxy@std@@@std@@@std@@YAXAEAV?$allocator@U_Container_proxy@std@@@0@QEAU_Container_proxy@0@@Z 0000000140000000     LoggerHandler.obj
 0003:fff95000       $unwind$??$_Destroy_in_place@PEAD@std@@YAXAEAPEAD@Z 0000000140000000     LoggerHandler.obj
 0003:fff95000       $unwind$??$_Get_size_of_n@$00@std@@YA_K_K@Z 0000000140000000     LoggerHandler.obj
 0003:fff95000       $unwind$??$_Get_size_of_n@$0BA@@std@@YA_K_K@Z 0000000140000000     LoggerHandler.obj
